---
triple:          'arm64-apple-darwin'
binary-path:     '/Users/oohareddy/GitHub/Flutter-Tiktok-UI-API-Clone/build/ios/Release-iphoneos/abseil/absl.framework/absl'
relocations:
  - { offsetInCU: 0x33, offset: 0x33, size: 0x8, addend: 0x0, symName: _abslVersionString, symObjAddr: 0x0, symBinAddr: 0x66E50, symSize: 0x0 }
  - { offsetInCU: 0x67, offset: 0x67, size: 0x8, addend: 0x0, symName: _abslVersionNumber, symObjAddr: 0x28, symBinAddr: 0x66E78, symSize: 0x0 }
  - { offsetInCU: 0x26, offset: 0xA2, size: 0x8, addend: 0x0, symName: __ZN4absl12lts_2024011618debugging_internal17AddressIsReadableEPKv, symObjAddr: 0x0, symBinAddr: 0x4000, symSize: 0x8 }
  - { offsetInCU: 0xB0, offset: 0x12C, size: 0x8, addend: 0x0, symName: __ZN4absl12lts_2024011618debugging_internal17AddressIsReadableEPKv, symObjAddr: 0x0, symBinAddr: 0x4000, symSize: 0x8 }
  - { offsetInCU: 0x26, offset: 0x18B, size: 0x8, addend: 0x0, symName: __ZN4absl12lts_2024011619str_format_internal13ConvertIntArgIcEEbT_NS1_24FormatConversionSpecImplEPNS1_14FormatSinkImplE, symObjAddr: 0x0, symBinAddr: 0x4008, symSize: 0x204 }
  - { offsetInCU: 0xAC5, offset: 0xC2A, size: 0x8, addend: 0x0, symName: __ZN4absl12lts_2024011619str_format_internal13ConvertIntArgIcEEbT_NS1_24FormatConversionSpecImplEPNS1_14FormatSinkImplE, symObjAddr: 0x0, symBinAddr: 0x4008, symSize: 0x204 }
  - { offsetInCU: 0xD9C, offset: 0xF01, size: 0x8, addend: 0x0, symName: __ZN4absl12lts_2024011619str_format_internal12_GLOBAL__N_117ConvertWCharTImplEwNS1_24FormatConversionSpecImplEPNS1_14FormatSinkImplE, symObjAddr: 0x204, symBinAddr: 0x420C, symSize: 0x118 }
  - { offsetInCU: 0xDAF, offset: 0xF14, size: 0x8, addend: 0x0, symName: __ZN4absl12lts_2024011619str_format_internal13ConvertIntArgIaEEbT_NS1_24FormatConversionSpecImplEPNS1_14FormatSinkImplE, symObjAddr: 0x660, symBinAddr: 0x4668, symSize: 0x204 }
  - { offsetInCU: 0x1086, offset: 0x11EB, size: 0x8, addend: 0x0, symName: __ZN4absl12lts_2024011619str_format_internal13ConvertIntArgIhEEbT_NS1_24FormatConversionSpecImplEPNS1_14FormatSinkImplE, symObjAddr: 0x864, symBinAddr: 0x486C, symSize: 0x1F0 }
  - { offsetInCU: 0x1099, offset: 0x11FE, size: 0x8, addend: 0x0, symName: __ZN4absl12lts_2024011619str_format_internal13ConvertIntArgIhEEbT_NS1_24FormatConversionSpecImplEPNS1_14FormatSinkImplE, symObjAddr: 0x864, symBinAddr: 0x486C, symSize: 0x1F0 }
  - { offsetInCU: 0x12F5, offset: 0x145A, size: 0x8, addend: 0x0, symName: __ZN4absl12lts_2024011619str_format_internal13ConvertIntArgIwEEbT_NS1_24FormatConversionSpecImplEPNS1_14FormatSinkImplE, symObjAddr: 0xA54, symBinAddr: 0x4A5C, symSize: 0x200 }
  - { offsetInCU: 0x1308, offset: 0x146D, size: 0x8, addend: 0x0, symName: __ZN4absl12lts_2024011619str_format_internal13ConvertIntArgIwEEbT_NS1_24FormatConversionSpecImplEPNS1_14FormatSinkImplE, symObjAddr: 0xA54, symBinAddr: 0x4A5C, symSize: 0x200 }
  - { offsetInCU: 0x15E3, offset: 0x1748, size: 0x8, addend: 0x0, symName: __ZN4absl12lts_2024011619str_format_internal13ConvertIntArgIsEEbT_NS1_24FormatConversionSpecImplEPNS1_14FormatSinkImplE, symObjAddr: 0xC54, symBinAddr: 0x4C5C, symSize: 0x21C }
  - { offsetInCU: 0x15F6, offset: 0x175B, size: 0x8, addend: 0x0, symName: __ZN4absl12lts_2024011619str_format_internal13ConvertIntArgIsEEbT_NS1_24FormatConversionSpecImplEPNS1_14FormatSinkImplE, symObjAddr: 0xC54, symBinAddr: 0x4C5C, symSize: 0x21C }
  - { offsetInCU: 0x18CD, offset: 0x1A32, size: 0x8, addend: 0x0, symName: __ZN4absl12lts_2024011619str_format_internal13ConvertIntArgItEEbT_NS1_24FormatConversionSpecImplEPNS1_14FormatSinkImplE, symObjAddr: 0xE70, symBinAddr: 0x4E78, symSize: 0x208 }
  - { offsetInCU: 0x18E0, offset: 0x1A45, size: 0x8, addend: 0x0, symName: __ZN4absl12lts_2024011619str_format_internal13ConvertIntArgItEEbT_NS1_24FormatConversionSpecImplEPNS1_14FormatSinkImplE, symObjAddr: 0xE70, symBinAddr: 0x4E78, symSize: 0x208 }
  - { offsetInCU: 0x1B3C, offset: 0x1CA1, size: 0x8, addend: 0x0, symName: __ZN4absl12lts_2024011619str_format_internal13ConvertIntArgIiEEbT_NS1_24FormatConversionSpecImplEPNS1_14FormatSinkImplE, symObjAddr: 0x1078, symBinAddr: 0x5080, symSize: 0x224 }
  - { offsetInCU: 0x1B4F, offset: 0x1CB4, size: 0x8, addend: 0x0, symName: __ZN4absl12lts_2024011619str_format_internal13ConvertIntArgIiEEbT_NS1_24FormatConversionSpecImplEPNS1_14FormatSinkImplE, symObjAddr: 0x1078, symBinAddr: 0x5080, symSize: 0x224 }
  - { offsetInCU: 0x1E13, offset: 0x1F78, size: 0x8, addend: 0x0, symName: __ZN4absl12lts_2024011619str_format_internal13ConvertIntArgIjEEbT_NS1_24FormatConversionSpecImplEPNS1_14FormatSinkImplE, symObjAddr: 0x129C, symBinAddr: 0x52A4, symSize: 0x20C }
  - { offsetInCU: 0x1E26, offset: 0x1F8B, size: 0x8, addend: 0x0, symName: __ZN4absl12lts_2024011619str_format_internal13ConvertIntArgIjEEbT_NS1_24FormatConversionSpecImplEPNS1_14FormatSinkImplE, symObjAddr: 0x129C, symBinAddr: 0x52A4, symSize: 0x20C }
  - { offsetInCU: 0x2088, offset: 0x21ED, size: 0x8, addend: 0x0, symName: __ZN4absl12lts_2024011619str_format_internal13ConvertIntArgIlEEbT_NS1_24FormatConversionSpecImplEPNS1_14FormatSinkImplE, symObjAddr: 0x14A8, symBinAddr: 0x54B0, symSize: 0x220 }
  - { offsetInCU: 0x209B, offset: 0x2200, size: 0x8, addend: 0x0, symName: __ZN4absl12lts_2024011619str_format_internal13ConvertIntArgIlEEbT_NS1_24FormatConversionSpecImplEPNS1_14FormatSinkImplE, symObjAddr: 0x14A8, symBinAddr: 0x54B0, symSize: 0x220 }
  - { offsetInCU: 0x23BF, offset: 0x2524, size: 0x8, addend: 0x0, symName: __ZN4absl12lts_2024011619str_format_internal13ConvertIntArgImEEbT_NS1_24FormatConversionSpecImplEPNS1_14FormatSinkImplE, symObjAddr: 0x16C8, symBinAddr: 0x56D0, symSize: 0x208 }
  - { offsetInCU: 0x23D2, offset: 0x2537, size: 0x8, addend: 0x0, symName: __ZN4absl12lts_2024011619str_format_internal13ConvertIntArgImEEbT_NS1_24FormatConversionSpecImplEPNS1_14FormatSinkImplE, symObjAddr: 0x16C8, symBinAddr: 0x56D0, symSize: 0x208 }
  - { offsetInCU: 0x2634, offset: 0x2799, size: 0x8, addend: 0x0, symName: __ZN4absl12lts_2024011619str_format_internal13ConvertIntArgIxEEbT_NS1_24FormatConversionSpecImplEPNS1_14FormatSinkImplE, symObjAddr: 0x18D0, symBinAddr: 0x58D8, symSize: 0x220 }
  - { offsetInCU: 0x2647, offset: 0x27AC, size: 0x8, addend: 0x0, symName: __ZN4absl12lts_2024011619str_format_internal13ConvertIntArgIxEEbT_NS1_24FormatConversionSpecImplEPNS1_14FormatSinkImplE, symObjAddr: 0x18D0, symBinAddr: 0x58D8, symSize: 0x220 }
  - { offsetInCU: 0x290B, offset: 0x2A70, size: 0x8, addend: 0x0, symName: __ZN4absl12lts_2024011619str_format_internal13ConvertIntArgIyEEbT_NS1_24FormatConversionSpecImplEPNS1_14FormatSinkImplE, symObjAddr: 0x1AF0, symBinAddr: 0x5AF8, symSize: 0x208 }
  - { offsetInCU: 0x291E, offset: 0x2A83, size: 0x8, addend: 0x0, symName: __ZN4absl12lts_2024011619str_format_internal13ConvertIntArgIyEEbT_NS1_24FormatConversionSpecImplEPNS1_14FormatSinkImplE, symObjAddr: 0x1AF0, symBinAddr: 0x5AF8, symSize: 0x208 }
  - { offsetInCU: 0x2B80, offset: 0x2CE5, size: 0x8, addend: 0x0, symName: __ZN4absl12lts_2024011619str_format_internal13FormatArgImpl8DispatchINS1_7VoidPtrEEEbNS2_4DataENS1_24FormatConversionSpecImplEPv, symObjAddr: 0x1CF8, symBinAddr: 0x5D00, symSize: 0x34 }
  - { offsetInCU: 0x2DE8, offset: 0x2F4D, size: 0x8, addend: 0x0, symName: __ZN4absl12lts_2024011619str_format_internal13ConvertIntArgINS0_6int128EEEbT_NS1_24FormatConversionSpecImplEPNS1_14FormatSinkImplE, symObjAddr: 0x2CF0, symBinAddr: 0x6CF8, symSize: 0x21C }
  - { offsetInCU: 0x30F7, offset: 0x325C, size: 0x8, addend: 0x0, symName: __ZN4absl12lts_2024011619str_format_internal13ConvertIntArgINS0_7uint128EEEbT_NS1_24FormatConversionSpecImplEPNS1_14FormatSinkImplE, symObjAddr: 0x2F0C, symBinAddr: 0x6F14, symSize: 0x208 }
  - { offsetInCU: 0x35AA, offset: 0x370F, size: 0x8, addend: 0x0, symName: __ZN4absl12lts_2024011619str_format_internal12_GLOBAL__N_117ConvertWCharTImplEwNS1_24FormatConversionSpecImplEPNS1_14FormatSinkImplE, symObjAddr: 0x204, symBinAddr: 0x420C, symSize: 0x118 }
  - { offsetInCU: 0x36C3, offset: 0x3828, size: 0x8, addend: 0x0, symName: __ZN4absl12lts_2024011619str_format_internal12_GLOBAL__N_123ConvertIntImplInnerSlowERKNS2_9IntDigitsENS1_24FormatConversionSpecImplEPNS1_14FormatSinkImplE, symObjAddr: 0x41C, symBinAddr: 0x4424, symSize: 0x244 }
  - { offsetInCU: 0x3A2F, offset: 0x3B94, size: 0x8, addend: 0x0, symName: __ZN4absl12lts_2024011619str_format_internal12_GLOBAL__N_115ConvertCharImplEcNS1_24FormatConversionSpecImplEPNS1_14FormatSinkImplE, symObjAddr: 0x31C, symBinAddr: 0x4324, symSize: 0x78 }
  - { offsetInCU: 0x3D1B, offset: 0x3E80, size: 0x8, addend: 0x0, symName: __ZN4absl12lts_2024011619str_format_internal12_GLOBAL__N_116ConvertStringArgEPKwmNS1_24FormatConversionSpecImplEPNS1_14FormatSinkImplE, symObjAddr: 0x2A00, symBinAddr: 0x6A08, symSize: 0x2CC }
  - { offsetInCU: 0x4372, offset: 0x44D7, size: 0x8, addend: 0x0, symName: __ZN4absl12lts_2024011619str_format_internal13ConvertIntArgINS0_7uint128EEEbT_NS1_24FormatConversionSpecImplEPNS1_14FormatSinkImplE, symObjAddr: 0x2F0C, symBinAddr: 0x6F14, symSize: 0x208 }
  - { offsetInCU: 0x4653, offset: 0x47B8, size: 0x8, addend: 0x0, symName: __ZN4absl12lts_2024011619str_format_internal14FormatSinkImpl5FlushEv, symObjAddr: 0x3114, symBinAddr: 0x711C, symSize: 0x40 }
  - { offsetInCU: 0x46D6, offset: 0x483B, size: 0x8, addend: 0x0, symName: __ZN4absl12lts_2024011619str_format_internal17FormatConvertImplENS1_7VoidPtrENS1_24FormatConversionSpecImplEPNS1_14FormatSinkImplE, symObjAddr: 0x1D2C, symBinAddr: 0x5D34, symSize: 0xC0 }
  - { offsetInCU: 0x47EB, offset: 0x4950, size: 0x8, addend: 0x0, symName: __ZN4absl12lts_2024011619str_format_internal17FormatConvertImplIbLi0EEENS1_16ArgConvertResultILNS0_23FormatConversionCharSetE655355EEET_NS1_24FormatConversionSpecImplEPNS1_14FormatSinkImplE, symObjAddr: 0x1E48, symBinAddr: 0x5E50, symSize: 0x54 }
  - { offsetInCU: 0x494E, offset: 0x4AB3, size: 0x8, addend: 0x0, symName: __ZN4absl12lts_2024011619str_format_internal17FormatConvertImplEcNS1_24FormatConversionSpecImplEPNS1_14FormatSinkImplE, symObjAddr: 0x1EE4, symBinAddr: 0x5EEC, symSize: 0x18 }
  - { offsetInCU: 0x49D2, offset: 0x4B37, size: 0x8, addend: 0x0, symName: __ZN4absl12lts_2024011619str_format_internal17FormatConvertImplEaNS1_24FormatConversionSpecImplEPNS1_14FormatSinkImplE, symObjAddr: 0x1F44, symBinAddr: 0x5F4C, symSize: 0x18 }
  - { offsetInCU: 0x4A56, offset: 0x4BBB, size: 0x8, addend: 0x0, symName: __ZN4absl12lts_2024011619str_format_internal17FormatConvertImplEhNS1_24FormatConversionSpecImplEPNS1_14FormatSinkImplE, symObjAddr: 0x1FA4, symBinAddr: 0x5FAC, symSize: 0x18 }
  - { offsetInCU: 0x4ADA, offset: 0x4C3F, size: 0x8, addend: 0x0, symName: __ZN4absl12lts_2024011619str_format_internal17FormatConvertImplEsNS1_24FormatConversionSpecImplEPNS1_14FormatSinkImplE, symObjAddr: 0x2004, symBinAddr: 0x600C, symSize: 0x18 }
  - { offsetInCU: 0x4B5E, offset: 0x4CC3, size: 0x8, addend: 0x0, symName: __ZN4absl12lts_2024011619str_format_internal17FormatConvertImplEtNS1_24FormatConversionSpecImplEPNS1_14FormatSinkImplE, symObjAddr: 0x2064, symBinAddr: 0x606C, symSize: 0x18 }
  - { offsetInCU: 0x4BAC, offset: 0x4D11, size: 0x8, addend: 0x0, symName: __ZN4absl12lts_2024011619str_format_internal17FormatConvertImplEiNS1_24FormatConversionSpecImplEPNS1_14FormatSinkImplE, symObjAddr: 0x20BC, symBinAddr: 0x60C4, symSize: 0x18 }
  - { offsetInCU: 0x4C30, offset: 0x4D95, size: 0x8, addend: 0x0, symName: __ZN4absl12lts_2024011619str_format_internal17FormatConvertImplEjNS1_24FormatConversionSpecImplEPNS1_14FormatSinkImplE, symObjAddr: 0x2120, symBinAddr: 0x6128, symSize: 0x18 }
  - { offsetInCU: 0x4CB4, offset: 0x4E19, size: 0x8, addend: 0x0, symName: __ZN4absl12lts_2024011619str_format_internal17FormatConvertImplElNS1_24FormatConversionSpecImplEPNS1_14FormatSinkImplE, symObjAddr: 0x2190, symBinAddr: 0x6198, symSize: 0x18 }
  - { offsetInCU: 0x4D38, offset: 0x4E9D, size: 0x8, addend: 0x0, symName: __ZN4absl12lts_2024011619str_format_internal17FormatConvertImplEmNS1_24FormatConversionSpecImplEPNS1_14FormatSinkImplE, symObjAddr: 0x21F4, symBinAddr: 0x61FC, symSize: 0x18 }
  - { offsetInCU: 0x4DBC, offset: 0x4F21, size: 0x8, addend: 0x0, symName: __ZN4absl12lts_2024011619str_format_internal17FormatConvertImplExNS1_24FormatConversionSpecImplEPNS1_14FormatSinkImplE, symObjAddr: 0x2264, symBinAddr: 0x626C, symSize: 0x18 }
  - { offsetInCU: 0x4E40, offset: 0x4FA5, size: 0x8, addend: 0x0, symName: __ZN4absl12lts_2024011619str_format_internal17FormatConvertImplEyNS1_24FormatConversionSpecImplEPNS1_14FormatSinkImplE, symObjAddr: 0x22C8, symBinAddr: 0x62D0, symSize: 0x18 }
  - { offsetInCU: 0x4EC4, offset: 0x5029, size: 0x8, addend: 0x0, symName: __ZN4absl12lts_2024011619str_format_internal17FormatConvertImplENS0_6int128ENS1_24FormatConversionSpecImplEPNS1_14FormatSinkImplE, symObjAddr: 0x2324, symBinAddr: 0x632C, symSize: 0x18 }
  - { offsetInCU: 0x4F4F, offset: 0x50B4, size: 0x8, addend: 0x0, symName: __ZN4absl12lts_2024011619str_format_internal17FormatConvertImplENS0_7uint128ENS1_24FormatConversionSpecImplEPNS1_14FormatSinkImplE, symObjAddr: 0x2380, symBinAddr: 0x6388, symSize: 0x18 }
  - { offsetInCU: 0x4FA4, offset: 0x5109, size: 0x8, addend: 0x0, symName: __ZN4absl12lts_2024011619str_format_internal17FormatConvertImplEfNS1_24FormatConversionSpecImplEPNS1_14FormatSinkImplE, symObjAddr: 0x23F0, symBinAddr: 0x63F8, symSize: 0x58 }
  - { offsetInCU: 0x50B5, offset: 0x521A, size: 0x8, addend: 0x0, symName: __ZN4absl12lts_2024011619str_format_internal17FormatConvertImplEdNS1_24FormatConversionSpecImplEPNS1_14FormatSinkImplE, symObjAddr: 0x24A0, symBinAddr: 0x64A8, symSize: 0x58 }
  - { offsetInCU: 0x518B, offset: 0x52F0, size: 0x8, addend: 0x0, symName: __ZN4absl12lts_2024011619str_format_internal17FormatConvertImplEeNS1_24FormatConversionSpecImplEPNS1_14FormatSinkImplE, symObjAddr: 0x2550, symBinAddr: 0x6558, symSize: 0x58 }
  - { offsetInCU: 0x5280, offset: 0x53E5, size: 0x8, addend: 0x0, symName: __ZN4absl12lts_2024011619str_format_internal17FormatConvertImplEPKcNS1_24FormatConversionSpecImplEPNS1_14FormatSinkImplE, symObjAddr: 0x25EC, symBinAddr: 0x65F4, symSize: 0xE4 }
  - { offsetInCU: 0x5406, offset: 0x556B, size: 0x8, addend: 0x0, symName: __ZN4absl12lts_2024011619str_format_internal13FormatArgImpl8DispatchINSt3__112basic_stringIcNS4_11char_traitsIcEENS4_9allocatorIcEEEEEEbNS2_4DataENS1_24FormatConversionSpecImplEPv, symObjAddr: 0x26D0, symBinAddr: 0x66D8, symSize: 0x48 }
  - { offsetInCU: 0x5410, offset: 0x5575, size: 0x8, addend: 0x0, symName: __ZN4absl12lts_2024011619str_format_internal17FormatConvertImplERKNSt3__112basic_stringIcNS2_11char_traitsIcEENS2_9allocatorIcEEEENS1_24FormatConversionSpecImplEPNS1_14FormatSinkImplE, symObjAddr: 0x2718, symBinAddr: 0x6720, symSize: 0x60 }
  - { offsetInCU: 0x5530, offset: 0x5695, size: 0x8, addend: 0x0, symName: __ZN4absl12lts_2024011619str_format_internal17FormatConvertImplENS0_11string_viewENS1_24FormatConversionSpecImplEPNS1_14FormatSinkImplE, symObjAddr: 0x27D4, symBinAddr: 0x67DC, symSize: 0x50 }
  - { offsetInCU: 0x55D9, offset: 0x573E, size: 0x8, addend: 0x0, symName: __ZN4absl12lts_2024011619str_format_internal17FormatConvertImplEPKwNS1_24FormatConversionSpecImplEPNS1_14FormatSinkImplE, symObjAddr: 0x2868, symBinAddr: 0x6870, symSize: 0xC4 }
  - { offsetInCU: 0x56CE, offset: 0x5833, size: 0x8, addend: 0x0, symName: __ZN4absl12lts_2024011619str_format_internal17FormatConvertImplERKNSt3__112basic_stringIwNS2_11char_traitsIwEENS2_9allocatorIwEEEENS1_24FormatConversionSpecImplEPNS1_14FormatSinkImplE, symObjAddr: 0x2984, symBinAddr: 0x698C, symSize: 0x3C }
  - { offsetInCU: 0x5774, offset: 0x58D9, size: 0x8, addend: 0x0, symName: __ZN4absl12lts_2024011619str_format_internal14ConvertBoolArgEbPNS1_14FormatSinkImplE, symObjAddr: 0x29C0, symBinAddr: 0x69C8, symSize: 0x40 }
  - { offsetInCU: 0x57AF, offset: 0x5914, size: 0x8, addend: 0x0, symName: __ZN4absl12lts_2024011619str_format_internal17FormatConvertImplEDnNS1_24FormatConversionSpecImplEPNS1_14FormatSinkImplE, symObjAddr: 0x2CCC, symBinAddr: 0x6CD4, symSize: 0xC }
  - { offsetInCU: 0x5815, offset: 0x597A, size: 0x8, addend: 0x0, symName: __ZN4absl12lts_2024011619str_format_internal17FormatConvertImplEwNS1_24FormatConversionSpecImplEPNS1_14FormatSinkImplE, symObjAddr: 0x2CD8, symBinAddr: 0x6CE0, symSize: 0x18 }
  - { offsetInCU: 0xF66A, offset: 0xF7CF, size: 0x8, addend: 0x0, symName: __ZN4absl12lts_2024011619str_format_internal14FormatSinkImpl6AppendENS0_11string_viewE, symObjAddr: 0x394, symBinAddr: 0x439C, symSize: 0x88 }
  - { offsetInCU: 0xF716, offset: 0xF87B, size: 0x8, addend: 0x0, symName: __ZN4absl12lts_2024011619str_format_internal13ConvertIntArgIcEEbT_NS1_24FormatConversionSpecImplEPNS1_14FormatSinkImplE.cold.2, symObjAddr: 0x335C, symBinAddr: 0x5BBFC, symSize: 0x24 }
  - { offsetInCU: 0xF799, offset: 0xF8FE, size: 0x8, addend: 0x0, symName: __ZN4absl12lts_2024011619str_format_internal13ConvertIntArgIcEEbT_NS1_24FormatConversionSpecImplEPNS1_14FormatSinkImplE.cold.1, symObjAddr: 0x3338, symBinAddr: 0x5BBD8, symSize: 0x24 }
  - { offsetInCU: 0xF7DC, offset: 0xF941, size: 0x8, addend: 0x0, symName: __ZN4absl12lts_2024011619str_format_internal14FormatSinkImpl6AppendEmc, symObjAddr: 0x3154, symBinAddr: 0x715C, symSize: 0xA8 }
  - { offsetInCU: 0xF907, offset: 0xFA6C, size: 0x8, addend: 0x0, symName: __ZN4absl12lts_2024011619str_format_internal14FormatSinkImpl5FlushEv, symObjAddr: 0x3114, symBinAddr: 0x711C, symSize: 0x40 }
  - { offsetInCU: 0xF9C8, offset: 0xFB2D, size: 0x8, addend: 0x0, symName: __ZN4absl12lts_2024011619str_format_internal14FormatSinkImpl6AppendEmc, symObjAddr: 0x3154, symBinAddr: 0x715C, symSize: 0xA8 }
  - { offsetInCU: 0xF9EF, offset: 0xFB54, size: 0x8, addend: 0x0, symName: __ZNK4absl12lts_2024011619str_format_internal12_GLOBAL__N_19IntDigits19without_neg_or_zeroEv, symObjAddr: 0x31FC, symBinAddr: 0x7204, symSize: 0x30 }
  - { offsetInCU: 0xFA90, offset: 0xFBF5, size: 0x8, addend: 0x0, symName: __ZN4absl12lts_2024011619str_format_internal12_GLOBAL__N_19IntDigits15PrintAsHexLowerINS0_7uint128EEEvT_, symObjAddr: 0x322C, symBinAddr: 0x7234, symSize: 0x58 }
  - { offsetInCU: 0xFAC5, offset: 0xFC2A, size: 0x8, addend: 0x0, symName: __ZN4absl12lts_2024011619str_format_internal13ConvertIntArgIaEEbT_NS1_24FormatConversionSpecImplEPNS1_14FormatSinkImplE.cold.2, symObjAddr: 0x33A4, symBinAddr: 0x5BC44, symSize: 0x24 }
  - { offsetInCU: 0xFB48, offset: 0xFCAD, size: 0x8, addend: 0x0, symName: __ZN4absl12lts_2024011619str_format_internal13ConvertIntArgIaEEbT_NS1_24FormatConversionSpecImplEPNS1_14FormatSinkImplE.cold.1, symObjAddr: 0x3380, symBinAddr: 0x5BC20, symSize: 0x24 }
  - { offsetInCU: 0xFB60, offset: 0xFCC5, size: 0x8, addend: 0x0, symName: __ZN4absl12lts_2024011619str_format_internal13ConvertIntArgIhEEbT_NS1_24FormatConversionSpecImplEPNS1_14FormatSinkImplE.cold.2, symObjAddr: 0x33EC, symBinAddr: 0x5BC8C, symSize: 0x24 }
  - { offsetInCU: 0xFBE3, offset: 0xFD48, size: 0x8, addend: 0x0, symName: __ZN4absl12lts_2024011619str_format_internal13ConvertIntArgIhEEbT_NS1_24FormatConversionSpecImplEPNS1_14FormatSinkImplE.cold.1, symObjAddr: 0x33C8, symBinAddr: 0x5BC68, symSize: 0x24 }
  - { offsetInCU: 0xFCFB, offset: 0xFE60, size: 0x8, addend: 0x0, symName: __ZN4absl12lts_2024011619str_format_internal13ConvertIntArgIwEEbT_NS1_24FormatConversionSpecImplEPNS1_14FormatSinkImplE.cold.2, symObjAddr: 0x3434, symBinAddr: 0x5BCD4, symSize: 0x24 }
  - { offsetInCU: 0xFD7E, offset: 0xFEE3, size: 0x8, addend: 0x0, symName: __ZN4absl12lts_2024011619str_format_internal13ConvertIntArgIwEEbT_NS1_24FormatConversionSpecImplEPNS1_14FormatSinkImplE.cold.1, symObjAddr: 0x3410, symBinAddr: 0x5BCB0, symSize: 0x24 }
  - { offsetInCU: 0xFE96, offset: 0xFFFB, size: 0x8, addend: 0x0, symName: __ZN4absl12lts_2024011619str_format_internal13ConvertIntArgIsEEbT_NS1_24FormatConversionSpecImplEPNS1_14FormatSinkImplE.cold.2, symObjAddr: 0x347C, symBinAddr: 0x5BD1C, symSize: 0x24 }
  - { offsetInCU: 0xFF19, offset: 0x1007E, size: 0x8, addend: 0x0, symName: __ZN4absl12lts_2024011619str_format_internal13ConvertIntArgIsEEbT_NS1_24FormatConversionSpecImplEPNS1_14FormatSinkImplE.cold.1, symObjAddr: 0x3458, symBinAddr: 0x5BCF8, symSize: 0x24 }
  - { offsetInCU: 0xFF31, offset: 0x10096, size: 0x8, addend: 0x0, symName: __ZN4absl12lts_2024011619str_format_internal13ConvertIntArgItEEbT_NS1_24FormatConversionSpecImplEPNS1_14FormatSinkImplE.cold.2, symObjAddr: 0x34C4, symBinAddr: 0x5BD64, symSize: 0x24 }
  - { offsetInCU: 0xFFB4, offset: 0x10119, size: 0x8, addend: 0x0, symName: __ZN4absl12lts_2024011619str_format_internal13ConvertIntArgItEEbT_NS1_24FormatConversionSpecImplEPNS1_14FormatSinkImplE.cold.1, symObjAddr: 0x34A0, symBinAddr: 0x5BD40, symSize: 0x24 }
  - { offsetInCU: 0xFFF6, offset: 0x1015B, size: 0x8, addend: 0x0, symName: __ZN4absl12lts_2024011619str_format_internal13ConvertIntArgIiEEbT_NS1_24FormatConversionSpecImplEPNS1_14FormatSinkImplE.cold.2, symObjAddr: 0x350C, symBinAddr: 0x5BDAC, symSize: 0x24 }
  - { offsetInCU: 0x10079, offset: 0x101DE, size: 0x8, addend: 0x0, symName: __ZN4absl12lts_2024011619str_format_internal13ConvertIntArgIiEEbT_NS1_24FormatConversionSpecImplEPNS1_14FormatSinkImplE.cold.1, symObjAddr: 0x34E8, symBinAddr: 0x5BD88, symSize: 0x24 }
  - { offsetInCU: 0x10091, offset: 0x101F6, size: 0x8, addend: 0x0, symName: __ZN4absl12lts_2024011619str_format_internal13ConvertIntArgIjEEbT_NS1_24FormatConversionSpecImplEPNS1_14FormatSinkImplE.cold.2, symObjAddr: 0x3554, symBinAddr: 0x5BDF4, symSize: 0x24 }
  - { offsetInCU: 0x10114, offset: 0x10279, size: 0x8, addend: 0x0, symName: __ZN4absl12lts_2024011619str_format_internal13ConvertIntArgIjEEbT_NS1_24FormatConversionSpecImplEPNS1_14FormatSinkImplE.cold.1, symObjAddr: 0x3530, symBinAddr: 0x5BDD0, symSize: 0x24 }
  - { offsetInCU: 0x1022C, offset: 0x10391, size: 0x8, addend: 0x0, symName: __ZN4absl12lts_2024011619str_format_internal13ConvertIntArgIlEEbT_NS1_24FormatConversionSpecImplEPNS1_14FormatSinkImplE.cold.2, symObjAddr: 0x359C, symBinAddr: 0x5BE3C, symSize: 0x24 }
  - { offsetInCU: 0x102AF, offset: 0x10414, size: 0x8, addend: 0x0, symName: __ZN4absl12lts_2024011619str_format_internal13ConvertIntArgIlEEbT_NS1_24FormatConversionSpecImplEPNS1_14FormatSinkImplE.cold.1, symObjAddr: 0x3578, symBinAddr: 0x5BE18, symSize: 0x24 }
  - { offsetInCU: 0x102C7, offset: 0x1042C, size: 0x8, addend: 0x0, symName: __ZN4absl12lts_2024011619str_format_internal13ConvertIntArgImEEbT_NS1_24FormatConversionSpecImplEPNS1_14FormatSinkImplE.cold.2, symObjAddr: 0x35E4, symBinAddr: 0x5BE84, symSize: 0x24 }
  - { offsetInCU: 0x1034A, offset: 0x104AF, size: 0x8, addend: 0x0, symName: __ZN4absl12lts_2024011619str_format_internal13ConvertIntArgImEEbT_NS1_24FormatConversionSpecImplEPNS1_14FormatSinkImplE.cold.1, symObjAddr: 0x35C0, symBinAddr: 0x5BE60, symSize: 0x24 }
  - { offsetInCU: 0x10462, offset: 0x105C7, size: 0x8, addend: 0x0, symName: __ZN4absl12lts_2024011619str_format_internal13ConvertIntArgIxEEbT_NS1_24FormatConversionSpecImplEPNS1_14FormatSinkImplE.cold.2, symObjAddr: 0x362C, symBinAddr: 0x5BECC, symSize: 0x24 }
  - { offsetInCU: 0x104E5, offset: 0x1064A, size: 0x8, addend: 0x0, symName: __ZN4absl12lts_2024011619str_format_internal13ConvertIntArgIxEEbT_NS1_24FormatConversionSpecImplEPNS1_14FormatSinkImplE.cold.1, symObjAddr: 0x3608, symBinAddr: 0x5BEA8, symSize: 0x24 }
  - { offsetInCU: 0x104FD, offset: 0x10662, size: 0x8, addend: 0x0, symName: __ZN4absl12lts_2024011619str_format_internal13ConvertIntArgIyEEbT_NS1_24FormatConversionSpecImplEPNS1_14FormatSinkImplE.cold.2, symObjAddr: 0x3674, symBinAddr: 0x5BF14, symSize: 0x24 }
  - { offsetInCU: 0x10580, offset: 0x106E5, size: 0x8, addend: 0x0, symName: __ZN4absl12lts_2024011619str_format_internal13ConvertIntArgIyEEbT_NS1_24FormatConversionSpecImplEPNS1_14FormatSinkImplE.cold.1, symObjAddr: 0x3650, symBinAddr: 0x5BEF0, symSize: 0x24 }
  - { offsetInCU: 0x10598, offset: 0x106FD, size: 0x8, addend: 0x0, symName: __ZN4absl12lts_2024011619str_format_internal13FormatArgImpl8DispatchINS1_7VoidPtrEEEbNS2_4DataENS1_24FormatConversionSpecImplEPv, symObjAddr: 0x1CF8, symBinAddr: 0x5D00, symSize: 0x34 }
  - { offsetInCU: 0x1064E, offset: 0x107B3, size: 0x8, addend: 0x0, symName: __ZN4absl12lts_2024011619str_format_internal13FormatArgImpl8DispatchIbEEbNS2_4DataENS1_24FormatConversionSpecImplEPv, symObjAddr: 0x1DEC, symBinAddr: 0x5DF4, symSize: 0x5C }
  - { offsetInCU: 0x10777, offset: 0x108DC, size: 0x8, addend: 0x0, symName: __ZN4absl12lts_2024011619str_format_internal13FormatArgImpl8DispatchIcEEbNS2_4DataENS1_24FormatConversionSpecImplEPv, symObjAddr: 0x1E9C, symBinAddr: 0x5EA4, symSize: 0x48 }
  - { offsetInCU: 0x108BA, offset: 0x10A1F, size: 0x8, addend: 0x0, symName: __ZN4absl12lts_2024011619str_format_internal13FormatArgImpl8DispatchIaEEbNS2_4DataENS1_24FormatConversionSpecImplEPv, symObjAddr: 0x1EFC, symBinAddr: 0x5F04, symSize: 0x48 }
  - { offsetInCU: 0x109FD, offset: 0x10B62, size: 0x8, addend: 0x0, symName: __ZN4absl12lts_2024011619str_format_internal13FormatArgImpl8DispatchIhEEbNS2_4DataENS1_24FormatConversionSpecImplEPv, symObjAddr: 0x1F5C, symBinAddr: 0x5F64, symSize: 0x48 }
  - { offsetInCU: 0x10B49, offset: 0x10CAE, size: 0x8, addend: 0x0, symName: __ZN4absl12lts_2024011619str_format_internal13FormatArgImpl8DispatchIsEEbNS2_4DataENS1_24FormatConversionSpecImplEPv, symObjAddr: 0x1FBC, symBinAddr: 0x5FC4, symSize: 0x48 }
  - { offsetInCU: 0x10C8C, offset: 0x10DF1, size: 0x8, addend: 0x0, symName: __ZN4absl12lts_2024011619str_format_internal13FormatArgImpl8DispatchItEEbNS2_4DataENS1_24FormatConversionSpecImplEPv, symObjAddr: 0x201C, symBinAddr: 0x6024, symSize: 0x48 }
  - { offsetInCU: 0x10DBB, offset: 0x10F20, size: 0x8, addend: 0x0, symName: __ZN4absl12lts_2024011619str_format_internal13FormatArgImpl8DispatchIiEEbNS2_4DataENS1_24FormatConversionSpecImplEPv, symObjAddr: 0x207C, symBinAddr: 0x6084, symSize: 0x40 }
  - { offsetInCU: 0x10EF0, offset: 0x11055, size: 0x8, addend: 0x0, symName: __ZN4absl12lts_2024011619str_format_internal13FormatArgImpl8DispatchIjEEbNS2_4DataENS1_24FormatConversionSpecImplEPv, symObjAddr: 0x20D4, symBinAddr: 0x60DC, symSize: 0x4C }
  - { offsetInCU: 0x1103A, offset: 0x1119F, size: 0x8, addend: 0x0, symName: __ZN4absl12lts_2024011619str_format_internal13FormatArgImpl8DispatchIlEEbNS2_4DataENS1_24FormatConversionSpecImplEPv, symObjAddr: 0x2138, symBinAddr: 0x6140, symSize: 0x58 }
  - { offsetInCU: 0x11184, offset: 0x112E9, size: 0x8, addend: 0x0, symName: __ZN4absl12lts_2024011619str_format_internal13FormatArgImpl8DispatchImEEbNS2_4DataENS1_24FormatConversionSpecImplEPv, symObjAddr: 0x21A8, symBinAddr: 0x61B0, symSize: 0x4C }
  - { offsetInCU: 0x112CE, offset: 0x11433, size: 0x8, addend: 0x0, symName: __ZN4absl12lts_2024011619str_format_internal13FormatArgImpl8DispatchIxEEbNS2_4DataENS1_24FormatConversionSpecImplEPv, symObjAddr: 0x220C, symBinAddr: 0x6214, symSize: 0x58 }
  - { offsetInCU: 0x11418, offset: 0x1157D, size: 0x8, addend: 0x0, symName: __ZN4absl12lts_2024011619str_format_internal13FormatArgImpl8DispatchIyEEbNS2_4DataENS1_24FormatConversionSpecImplEPv, symObjAddr: 0x227C, symBinAddr: 0x6284, symSize: 0x4C }
  - { offsetInCU: 0x1150A, offset: 0x1166F, size: 0x8, addend: 0x0, symName: __ZN4absl12lts_2024011619str_format_internal13FormatArgImpl8DispatchINS0_6int128EEEbNS2_4DataENS1_24FormatConversionSpecImplEPv, symObjAddr: 0x22E0, symBinAddr: 0x62E8, symSize: 0x44 }
  - { offsetInCU: 0x115C7, offset: 0x1172C, size: 0x8, addend: 0x0, symName: __ZN4absl12lts_2024011619str_format_internal13FormatArgImpl8DispatchINS0_7uint128EEEbNS2_4DataENS1_24FormatConversionSpecImplEPv, symObjAddr: 0x233C, symBinAddr: 0x6344, symSize: 0x44 }
  - { offsetInCU: 0x116AF, offset: 0x11814, size: 0x8, addend: 0x0, symName: __ZN4absl12lts_2024011619str_format_internal13FormatArgImpl8DispatchIfEEbNS2_4DataENS1_24FormatConversionSpecImplEPv, symObjAddr: 0x2398, symBinAddr: 0x63A0, symSize: 0x58 }
  - { offsetInCU: 0x117AC, offset: 0x11911, size: 0x8, addend: 0x0, symName: __ZN4absl12lts_2024011619str_format_internal13FormatArgImpl8DispatchIdEEbNS2_4DataENS1_24FormatConversionSpecImplEPv, symObjAddr: 0x2448, symBinAddr: 0x6450, symSize: 0x58 }
  - { offsetInCU: 0x11884, offset: 0x119E9, size: 0x8, addend: 0x0, symName: __ZN4absl12lts_2024011619str_format_internal13FormatArgImpl8DispatchIeEEbNS2_4DataENS1_24FormatConversionSpecImplEPv, symObjAddr: 0x24F8, symBinAddr: 0x6500, symSize: 0x58 }
  - { offsetInCU: 0x11931, offset: 0x11A96, size: 0x8, addend: 0x0, symName: __ZN4absl12lts_2024011619str_format_internal13FormatArgImpl8DispatchIPKcEEbNS2_4DataENS1_24FormatConversionSpecImplEPv, symObjAddr: 0x25A8, symBinAddr: 0x65B0, symSize: 0x44 }
  - { offsetInCU: 0x119BF, offset: 0x11B24, size: 0x8, addend: 0x0, symName: __ZN4absl12lts_2024011619str_format_internal17FormatConvertImplEPKcNS1_24FormatConversionSpecImplEPNS1_14FormatSinkImplE.cold.1, symObjAddr: 0x3698, symBinAddr: 0x5BF38, symSize: 0x24 }
  - { offsetInCU: 0x11A2D, offset: 0x11B92, size: 0x8, addend: 0x0, symName: __ZN4absl12lts_2024011619str_format_internal13FormatArgImpl8DispatchINSt3__112basic_stringIcNS4_11char_traitsIcEENS4_9allocatorIcEEEEEEbNS2_4DataENS1_24FormatConversionSpecImplEPv, symObjAddr: 0x26D0, symBinAddr: 0x66D8, symSize: 0x48 }
  - { offsetInCU: 0x11B2B, offset: 0x11C90, size: 0x8, addend: 0x0, symName: __ZN4absl12lts_2024011619str_format_internal13FormatArgImpl8DispatchINS0_11string_viewEEEbNS2_4DataENS1_24FormatConversionSpecImplEPv, symObjAddr: 0x2778, symBinAddr: 0x6780, symSize: 0x5C }
  - { offsetInCU: 0x11BB9, offset: 0x11D1E, size: 0x8, addend: 0x0, symName: __ZN4absl12lts_2024011619str_format_internal13FormatArgImpl8DispatchIPKwEEbNS2_4DataENS1_24FormatConversionSpecImplEPv, symObjAddr: 0x2824, symBinAddr: 0x682C, symSize: 0x44 }
  - { offsetInCU: 0x11C94, offset: 0x11DF9, size: 0x8, addend: 0x0, symName: __ZN4absl12lts_2024011619str_format_internal13FormatArgImpl8DispatchINSt3__112basic_stringIwNS4_11char_traitsIwEENS4_9allocatorIwEEEEEEbNS2_4DataENS1_24FormatConversionSpecImplEPv, symObjAddr: 0x292C, symBinAddr: 0x6934, symSize: 0x58 }
  - { offsetInCU: 0x12282, offset: 0x123E7, size: 0x8, addend: 0x0, symName: __ZN4absl12lts_2024011619str_format_internal12_GLOBAL__N_19IntDigits10PrintAsDecENS0_7uint128Eb, symObjAddr: 0x3284, symBinAddr: 0x728C, symSize: 0xB4 }
  - { offsetInCU: 0x12354, offset: 0x124B9, size: 0x8, addend: 0x0, symName: __ZN4absl12lts_2024011619str_format_internal12_GLOBAL__N_19IntDigits15PrintAsHexLowerINS0_7uint128EEEvT_, symObjAddr: 0x322C, symBinAddr: 0x7234, symSize: 0x58 }
  - { offsetInCU: 0x12408, offset: 0x1256D, size: 0x8, addend: 0x0, symName: __ZN4absl12lts_2024011619str_format_internal13ConvertIntArgINS0_6int128EEEbT_NS1_24FormatConversionSpecImplEPNS1_14FormatSinkImplE.cold.2, symObjAddr: 0x36E0, symBinAddr: 0x5BF80, symSize: 0x24 }
  - { offsetInCU: 0x1248B, offset: 0x125F0, size: 0x8, addend: 0x0, symName: __ZN4absl12lts_2024011619str_format_internal13ConvertIntArgINS0_6int128EEEbT_NS1_24FormatConversionSpecImplEPNS1_14FormatSinkImplE.cold.1, symObjAddr: 0x36BC, symBinAddr: 0x5BF5C, symSize: 0x24 }
  - { offsetInCU: 0x124BB, offset: 0x12620, size: 0x8, addend: 0x0, symName: __ZN4absl12lts_2024011619str_format_internal13ConvertIntArgINS0_7uint128EEEbT_NS1_24FormatConversionSpecImplEPNS1_14FormatSinkImplE.cold.2, symObjAddr: 0x3728, symBinAddr: 0x5BFC8, symSize: 0x24 }
  - { offsetInCU: 0x1253E, offset: 0x126A3, size: 0x8, addend: 0x0, symName: __ZN4absl12lts_2024011619str_format_internal13ConvertIntArgINS0_7uint128EEEbT_NS1_24FormatConversionSpecImplEPNS1_14FormatSinkImplE.cold.1, symObjAddr: 0x3704, symBinAddr: 0x5BFA4, symSize: 0x24 }
  - { offsetInCU: 0x12556, offset: 0x126BB, size: 0x8, addend: 0x0, symName: __ZN4absl12lts_2024011619str_format_internal14FormatSinkImpl5FlushEv.cold.1, symObjAddr: 0x374C, symBinAddr: 0x5BFEC, symSize: 0x24 }
  - { offsetInCU: 0x125F7, offset: 0x1275C, size: 0x8, addend: 0x0, symName: __ZNK4absl12lts_2024011619str_format_internal12_GLOBAL__N_19IntDigits19without_neg_or_zeroEv.cold.1, symObjAddr: 0x3770, symBinAddr: 0x5C010, symSize: 0x24 }
  - { offsetInCU: 0x126B0, offset: 0x12815, size: 0x8, addend: 0x0, symName: _OUTLINED_FUNCTION_0, symObjAddr: 0x3794, symBinAddr: 0x7340, symSize: 0x8 }
  - { offsetInCU: 0x126C8, offset: 0x1282D, size: 0x8, addend: 0x0, symName: _OUTLINED_FUNCTION_1, symObjAddr: 0x379C, symBinAddr: 0x7348, symSize: 0x8 }
  - { offsetInCU: 0x26, offset: 0x12883, size: 0x8, addend: 0x0, symName: __ZN4absl12lts_2024011615AsciiStrToLowerEPNSt3__112basic_stringIcNS1_11char_traitsIcEENS1_9allocatorIcEEEE, symObjAddr: 0x0, symBinAddr: 0x7350, symSize: 0x11C }
  - { offsetInCU: 0x4E, offset: 0x128AB, size: 0x8, addend: 0x0, symName: __ZN4absl12lts_2024011614ascii_internal13kPropertyBitsE, symObjAddr: 0x480, symBinAddr: 0x66FD0, symSize: 0x0 }
  - { offsetInCU: 0x68, offset: 0x128C5, size: 0x8, addend: 0x0, symName: __ZN4absl12lts_2024011614ascii_internal8kToLowerE, symObjAddr: 0x580, symBinAddr: 0x670D0, symSize: 0x0 }
  - { offsetInCU: 0x82, offset: 0x128DF, size: 0x8, addend: 0x0, symName: __ZN4absl12lts_2024011614ascii_internal8kToUpperE, symObjAddr: 0x680, symBinAddr: 0x671D0, symSize: 0x0 }
  - { offsetInCU: 0x370, offset: 0x12BCD, size: 0x8, addend: 0x0, symName: __ZN4absl12lts_2024011615AsciiStrToLowerEPNSt3__112basic_stringIcNS1_11char_traitsIcEENS1_9allocatorIcEEEE, symObjAddr: 0x0, symBinAddr: 0x7350, symSize: 0x11C }
  - { offsetInCU: 0x3AF, offset: 0x12C0C, size: 0x8, addend: 0x0, symName: __ZN4absl12lts_2024011615AsciiStrToLowerEPNSt3__112basic_stringIcNS1_11char_traitsIcEENS1_9allocatorIcEEEE, symObjAddr: 0x0, symBinAddr: 0x7350, symSize: 0x11C }
  - { offsetInCU: 0x3D1, offset: 0x12C2E, size: 0x8, addend: 0x0, symName: __ZN4absl12lts_2024011615AsciiStrToLowerEPNSt3__112basic_stringIcNS1_11char_traitsIcEENS1_9allocatorIcEEEE, symObjAddr: 0x0, symBinAddr: 0x7350, symSize: 0x11C }
  - { offsetInCU: 0x3ED, offset: 0x12C4A, size: 0x8, addend: 0x0, symName: __ZN4absl12lts_2024011615AsciiStrToLowerEPNSt3__112basic_stringIcNS1_11char_traitsIcEENS1_9allocatorIcEEEE, symObjAddr: 0x0, symBinAddr: 0x7350, symSize: 0x11C }
  - { offsetInCU: 0x57B, offset: 0x12DD8, size: 0x8, addend: 0x0, symName: __ZN4absl12lts_2024011615AsciiStrToUpperEPNSt3__112basic_stringIcNS1_11char_traitsIcEENS1_9allocatorIcEEEE, symObjAddr: 0x11C, symBinAddr: 0x746C, symSize: 0x11C }
  - { offsetInCU: 0x5BA, offset: 0x12E17, size: 0x8, addend: 0x0, symName: __ZN4absl12lts_2024011615AsciiStrToUpperEPNSt3__112basic_stringIcNS1_11char_traitsIcEENS1_9allocatorIcEEEE, symObjAddr: 0x11C, symBinAddr: 0x746C, symSize: 0x11C }
  - { offsetInCU: 0x5DC, offset: 0x12E39, size: 0x8, addend: 0x0, symName: __ZN4absl12lts_2024011615AsciiStrToUpperEPNSt3__112basic_stringIcNS1_11char_traitsIcEENS1_9allocatorIcEEEE, symObjAddr: 0x11C, symBinAddr: 0x746C, symSize: 0x11C }
  - { offsetInCU: 0x5F8, offset: 0x12E55, size: 0x8, addend: 0x0, symName: __ZN4absl12lts_2024011615AsciiStrToUpperEPNSt3__112basic_stringIcNS1_11char_traitsIcEENS1_9allocatorIcEEEE, symObjAddr: 0x11C, symBinAddr: 0x746C, symSize: 0x11C }
  - { offsetInCU: 0x80C, offset: 0x13069, size: 0x8, addend: 0x0, symName: __ZN4absl12lts_2024011626RemoveExtraAsciiWhitespaceEPNSt3__112basic_stringIcNS1_11char_traitsIcEENS1_9allocatorIcEEEE, symObjAddr: 0x238, symBinAddr: 0x7588, symSize: 0x154 }
  - { offsetInCU: 0x54C0, offset: 0x17D1D, size: 0x8, addend: 0x0, symName: __ZNK4absl12lts_2024011611string_view6substrEmm, symObjAddr: 0x38C, symBinAddr: 0x76DC, symSize: 0x44 }
  - { offsetInCU: 0x559D, offset: 0x17DFA, size: 0x8, addend: 0x0, symName: __ZNK4absl12lts_2024011611string_view6substrEmm.cold.1, symObjAddr: 0x3D0, symBinAddr: 0x5C034, symSize: 0x28 }
  - { offsetInCU: 0x567E, offset: 0x17EDB, size: 0x8, addend: 0x0, symName: __ZNK4absl12lts_2024011611string_view6substrEmm.cold.1, symObjAddr: 0x3D0, symBinAddr: 0x5C034, symSize: 0x28 }
  - { offsetInCU: 0x26, offset: 0x17F74, size: 0x8, addend: 0x0, symName: __ZN4absl12lts_2024011612bad_any_castD2Ev, symObjAddr: 0x0, symBinAddr: 0x7720, symSize: 0x4 }
  - { offsetInCU: 0x2B24, offset: 0x1AA72, size: 0x8, addend: 0x0, symName: __ZN4absl12lts_2024011612any_internal15ThrowBadAnyCastEv, symObjAddr: 0x28, symBinAddr: 0x7748, symSize: 0x2C }
  - { offsetInCU: 0x2B9D, offset: 0x1AAEB, size: 0x8, addend: 0x0, symName: __ZN4absl12lts_2024011612bad_any_castD2Ev, symObjAddr: 0x0, symBinAddr: 0x7720, symSize: 0x4 }
  - { offsetInCU: 0x2BDE, offset: 0x1AB2C, size: 0x8, addend: 0x0, symName: __ZN4absl12lts_2024011612bad_any_castD1Ev, symObjAddr: 0x4, symBinAddr: 0x7724, symSize: 0x4 }
  - { offsetInCU: 0x2C01, offset: 0x1AB4F, size: 0x8, addend: 0x0, symName: __ZN4absl12lts_2024011612bad_any_castD1Ev, symObjAddr: 0x4, symBinAddr: 0x7724, symSize: 0x4 }
  - { offsetInCU: 0x2C36, offset: 0x1AB84, size: 0x8, addend: 0x0, symName: __ZN4absl12lts_2024011612bad_any_castD0Ev, symObjAddr: 0x8, symBinAddr: 0x7728, symSize: 0x14 }
  - { offsetInCU: 0x2C99, offset: 0x1ABE7, size: 0x8, addend: 0x0, symName: __ZNK4absl12lts_2024011612bad_any_cast4whatEv, symObjAddr: 0x1C, symBinAddr: 0x773C, symSize: 0xC }
  - { offsetInCU: 0x2CBE, offset: 0x1AC0C, size: 0x8, addend: 0x0, symName: __ZN4absl12lts_2024011612bad_any_castC1Ev, symObjAddr: 0x54, symBinAddr: 0x7774, symSize: 0x20 }
  - { offsetInCU: 0x26, offset: 0x1AC9A, size: 0x8, addend: 0x0, symName: __ZN4absl12lts_2024011619bad_optional_accessD2Ev, symObjAddr: 0x0, symBinAddr: 0x7794, symSize: 0x4 }
  - { offsetInCU: 0x2A42, offset: 0x1D6B6, size: 0x8, addend: 0x0, symName: __ZN4absl12lts_2024011617optional_internal25throw_bad_optional_accessEv, symObjAddr: 0x28, symBinAddr: 0x77BC, symSize: 0x30 }
  - { offsetInCU: 0x2AA7, offset: 0x1D71B, size: 0x8, addend: 0x0, symName: __ZN4absl12lts_2024011619bad_optional_accessD2Ev, symObjAddr: 0x0, symBinAddr: 0x7794, symSize: 0x4 }
  - { offsetInCU: 0x2AE8, offset: 0x1D75C, size: 0x8, addend: 0x0, symName: __ZN4absl12lts_2024011619bad_optional_accessD1Ev, symObjAddr: 0x4, symBinAddr: 0x7798, symSize: 0x4 }
  - { offsetInCU: 0x2B0B, offset: 0x1D77F, size: 0x8, addend: 0x0, symName: __ZN4absl12lts_2024011619bad_optional_accessD1Ev, symObjAddr: 0x4, symBinAddr: 0x7798, symSize: 0x4 }
  - { offsetInCU: 0x2B40, offset: 0x1D7B4, size: 0x8, addend: 0x0, symName: __ZN4absl12lts_2024011619bad_optional_accessD0Ev, symObjAddr: 0x8, symBinAddr: 0x779C, symSize: 0x14 }
  - { offsetInCU: 0x2BA3, offset: 0x1D817, size: 0x8, addend: 0x0, symName: __ZNK4absl12lts_2024011619bad_optional_access4whatEv, symObjAddr: 0x1C, symBinAddr: 0x77B0, symSize: 0xC }
  - { offsetInCU: 0x26, offset: 0x1D89B, size: 0x8, addend: 0x0, symName: __ZN4absl12lts_2024011618bad_variant_accessD2Ev, symObjAddr: 0x0, symBinAddr: 0x77EC, symSize: 0x4 }
  - { offsetInCU: 0x2A42, offset: 0x202B7, size: 0x8, addend: 0x0, symName: __ZN4absl12lts_2024011616variant_internal21ThrowBadVariantAccessEv, symObjAddr: 0x28, symBinAddr: 0x7814, symSize: 0x30 }
  - { offsetInCU: 0x2A95, offset: 0x2030A, size: 0x8, addend: 0x0, symName: __ZN4absl12lts_2024011616variant_internal7RethrowEv, symObjAddr: 0x58, symBinAddr: 0x7844, symSize: 0xC }
  - { offsetInCU: 0x2AC1, offset: 0x20336, size: 0x8, addend: 0x0, symName: __ZN4absl12lts_2024011618bad_variant_accessD2Ev, symObjAddr: 0x0, symBinAddr: 0x77EC, symSize: 0x4 }
  - { offsetInCU: 0x2B02, offset: 0x20377, size: 0x8, addend: 0x0, symName: __ZN4absl12lts_2024011618bad_variant_accessD1Ev, symObjAddr: 0x4, symBinAddr: 0x77F0, symSize: 0x4 }
  - { offsetInCU: 0x2B25, offset: 0x2039A, size: 0x8, addend: 0x0, symName: __ZN4absl12lts_2024011618bad_variant_accessD1Ev, symObjAddr: 0x4, symBinAddr: 0x77F0, symSize: 0x4 }
  - { offsetInCU: 0x2B5A, offset: 0x203CF, size: 0x8, addend: 0x0, symName: __ZN4absl12lts_2024011618bad_variant_accessD0Ev, symObjAddr: 0x8, symBinAddr: 0x77F4, symSize: 0x14 }
  - { offsetInCU: 0x2BBD, offset: 0x20432, size: 0x8, addend: 0x0, symName: __ZNK4absl12lts_2024011618bad_variant_access4whatEv, symObjAddr: 0x1C, symBinAddr: 0x7808, symSize: 0xC }
  - { offsetInCU: 0x26, offset: 0x204B6, size: 0x8, addend: 0x0, symName: __ZN4absl12lts_202401167Barrier5BlockEv, symObjAddr: 0x0, symBinAddr: 0x7850, symSize: 0x170 }
  - { offsetInCU: 0x1A34, offset: 0x21EC4, size: 0x8, addend: 0x0, symName: __ZN4absl12lts_20240116L6IsZeroEPv, symObjAddr: 0x170, symBinAddr: 0x79C0, symSize: 0x10 }
  - { offsetInCU: 0x8161, offset: 0x285F1, size: 0x8, addend: 0x0, symName: __ZN4absl12lts_202401167Barrier5BlockEv, symObjAddr: 0x0, symBinAddr: 0x7850, symSize: 0x170 }
  - { offsetInCU: 0x5BC, offset: 0x28CF6, size: 0x8, addend: 0x0, symName: __ZN4absl12lts_2024011619str_format_internal9SummarizeENS1_21UntypedFormatSpecImplENS0_4SpanIKNS1_13FormatArgImplEEE, symObjAddr: 0x19C, symBinAddr: 0x7B78, symSize: 0x300 }
  - { offsetInCU: 0x11BA, offset: 0x298F4, size: 0x8, addend: 0x0, symName: __ZN4absl12lts_2024011619str_format_internal13FormatUntypedENS1_17FormatRawSinkImplENS1_21UntypedFormatSpecImplENS0_4SpanIKNS1_13FormatArgImplEEE, symObjAddr: 0x49C, symBinAddr: 0x7E78, symSize: 0x2AC }
  - { offsetInCU: 0x1BE0, offset: 0x2A31A, size: 0x8, addend: 0x0, symName: __ZN4absl12lts_2024011619str_format_internal12BindWithPackEPKNS1_17UnboundConversionENS0_4SpanIKNS1_13FormatArgImplEEEPNS1_15BoundConversionE, symObjAddr: 0x0, symBinAddr: 0x79DC, symSize: 0x30 }
  - { offsetInCU: 0x2098, offset: 0x2A7D2, size: 0x8, addend: 0x0, symName: __ZN4absl12lts_2024011619str_format_internal10AppendPackEPNSt3__112basic_stringIcNS2_11char_traitsIcEENS2_9allocatorIcEEEENS1_21UntypedFormatSpecImplENS0_4SpanIKNS1_13FormatArgImplEEE, symObjAddr: 0x7AC, symBinAddr: 0x8188, symSize: 0x6C }
  - { offsetInCU: 0x2174, offset: 0x2A8AE, size: 0x8, addend: 0x0, symName: __ZN4absl12lts_2024011619str_format_internal10FormatPackENS1_21UntypedFormatSpecImplENS0_4SpanIKNS1_13FormatArgImplEEE, symObjAddr: 0x818, symBinAddr: 0x81F4, symSize: 0x88 }
  - { offsetInCU: 0x241E, offset: 0x2AB58, size: 0x8, addend: 0x0, symName: __ZN4absl12lts_2024011619str_format_internal7FprintFEP7__sFILENS1_21UntypedFormatSpecImplENS0_4SpanIKNS1_13FormatArgImplEEE, symObjAddr: 0x8A0, symBinAddr: 0x827C, symSize: 0x8C }
  - { offsetInCU: 0x2527, offset: 0x2AC61, size: 0x8, addend: 0x0, symName: __ZN4absl12lts_2024011619str_format_internal8SnprintFEPcmNS1_21UntypedFormatSpecImplENS0_4SpanIKNS1_13FormatArgImplEEE, symObjAddr: 0x92C, symBinAddr: 0x8308, symSize: 0x80 }
  - { offsetInCU: 0x7C9E, offset: 0x303D8, size: 0x8, addend: 0x0, symName: __ZNSt3__124__put_character_sequenceB7v160006IcNS_11char_traitsIcEEEERNS_13basic_ostreamIT_T0_EES7_PKS4_m, symObjAddr: 0x146C, symBinAddr: 0x8DFC, symSize: 0x164 }
  - { offsetInCU: 0x9AD0, offset: 0x3220A, size: 0x8, addend: 0x0, symName: __ZNSt3__116__pad_and_outputB7v160006IcNS_11char_traitsIcEEEENS_19ostreambuf_iteratorIT_T0_EES6_PKS4_S8_S8_RNS_8ios_baseES4_, symObjAddr: 0x15D0, symBinAddr: 0x8F60, symSize: 0x13C }
  - { offsetInCU: 0xA0FB, offset: 0x32835, size: 0x8, addend: 0x0, symName: __ZNSt3__120__throw_length_errorB7v160006EPKc, symObjAddr: 0x17B8, symBinAddr: 0x9148, symSize: 0x50 }
  - { offsetInCU: 0xA8B2, offset: 0x32FEC, size: 0x8, addend: 0x0, symName: __ZSt28__throw_bad_array_new_lengthB7v160006v, symObjAddr: 0x182C, symBinAddr: 0x91BC, symSize: 0x28 }
  - { offsetInCU: 0xCF01, offset: 0x3563B, size: 0x8, addend: 0x0, symName: __ZN4absl12lts_2024011619str_format_internal12_GLOBAL__N_110ArgContext4BindEPKNS1_17UnboundConversionEPNS1_15BoundConversionE, symObjAddr: 0x30, symBinAddr: 0x7A0C, symSize: 0x16C }
  - { offsetInCU: 0xD316, offset: 0x35A50, size: 0x8, addend: 0x0, symName: __ZNK4absl12lts_202401164SpanIKNS0_19str_format_internal13FormatArgImplEEixEm, symObjAddr: 0x9AC, symBinAddr: 0x8388, symSize: 0x4C }
  - { offsetInCU: 0xD84D, offset: 0x35F87, size: 0x8, addend: 0x0, symName: __ZNK4absl12lts_2024011619str_format_internal21UntypedFormatSpecImpl3strEv, symObjAddr: 0xA48, symBinAddr: 0x83D8, symSize: 0x2C }
  - { offsetInCU: 0xD8F7, offset: 0x36031, size: 0x8, addend: 0x0, symName: __ZN4absl12lts_2024011619str_format_internal12_GLOBAL__N_117ConverterConsumerINS2_20SummarizingConverterEE10ConvertOneERKNS1_17UnboundConversionENS0_11string_viewE, symObjAddr: 0xA74, symBinAddr: 0x8404, symSize: 0x334 }
  - { offsetInCU: 0xD974, offset: 0x360AE, size: 0x8, addend: 0x0, symName: __ZN4absl12lts_2024011619str_format_internal12_GLOBAL__N_117ConverterConsumerINS2_20SummarizingConverterEE10ConvertOneERKNS1_17UnboundConversionENS0_11string_viewE, symObjAddr: 0xA74, symBinAddr: 0x8404, symSize: 0x334 }
  - { offsetInCU: 0xE8EC, offset: 0x37026, size: 0x8, addend: 0x0, symName: __ZNSt3__112basic_stringIcNS_11char_traitsIcEENS_9allocatorIcEEEC2B7v160006IDnEEPKc, symObjAddr: 0x1AF8, symBinAddr: 0x9400, symSize: 0x9C }
  - { offsetInCU: 0xEC49, offset: 0x37383, size: 0x8, addend: 0x0, symName: __ZN4absl12lts_2024011619str_format_internal12_GLOBAL__N_117ConverterConsumerINS2_16DefaultConverterEE10ConvertOneERKNS1_17UnboundConversionENS0_11string_viewE, symObjAddr: 0x1B94, symBinAddr: 0x949C, symSize: 0x68 }
  - { offsetInCU: 0xECDA, offset: 0x37414, size: 0x8, addend: 0x0, symName: __ZN4absl12lts_2024011619str_format_internal17FormatRawSinkImpl5FlushINSt3__112basic_stringIcNS4_11char_traitsIcEENS4_9allocatorIcEEEEEEvPvNS0_11string_viewE, symObjAddr: 0xA44, symBinAddr: 0x83D4, symSize: 0x4 }
  - { offsetInCU: 0xEE0F, offset: 0x37549, size: 0x8, addend: 0x0, symName: __ZN4absl12lts_2024011619str_format_internal12_GLOBAL__N_117ConverterConsumerINS2_16DefaultConverterEE10ConvertOneERKNS1_17UnboundConversionENS0_11string_viewE, symObjAddr: 0x1B94, symBinAddr: 0x949C, symSize: 0x68 }
  - { offsetInCU: 0xF049, offset: 0x37783, size: 0x8, addend: 0x0, symName: __ZNK4absl12lts_2024011619str_format_internal10Streamable5PrintERNSt3__113basic_ostreamIcNS3_11char_traitsIcEEEE, symObjAddr: 0x748, symBinAddr: 0x8124, symSize: 0x64 }
  - { offsetInCU: 0xF3FE, offset: 0x37B38, size: 0x8, addend: 0x0, symName: __ZN4absl12lts_2024011619str_format_internal17FormatRawSinkImpl5FlushINSt3__112basic_stringIcNS4_11char_traitsIcEENS4_9allocatorIcEEEEEEvPvNS0_11string_viewE, symObjAddr: 0xA44, symBinAddr: 0x83D4, symSize: 0x4 }
  - { offsetInCU: 0xF42D, offset: 0x37B67, size: 0x8, addend: 0x0, symName: __ZN4absl12lts_2024011619str_format_internal17FormatRawSinkImpl5FlushINSt3__112basic_stringIcNS4_11char_traitsIcEENS4_9allocatorIcEEEEEEvPvNS0_11string_viewE, symObjAddr: 0xA44, symBinAddr: 0x83D4, symSize: 0x4 }
  - { offsetInCU: 0xF448, offset: 0x37B82, size: 0x8, addend: 0x0, symName: __ZN4absl12lts_2024011619str_format_internal17FormatRawSinkImpl5FlushINSt3__112basic_stringIcNS4_11char_traitsIcEENS4_9allocatorIcEEEEEEvPvNS0_11string_viewE, symObjAddr: 0xA44, symBinAddr: 0x83D4, symSize: 0x4 }
  - { offsetInCU: 0xF490, offset: 0x37BCA, size: 0x8, addend: 0x0, symName: __ZNK4absl12lts_2024011619str_format_internal21UntypedFormatSpecImpl3strEv.cold.1, symObjAddr: 0x1C30, symBinAddr: 0x5C05C, symSize: 0x28 }
  - { offsetInCU: 0xF4A8, offset: 0x37BE2, size: 0x8, addend: 0x0, symName: __ZNK4absl12lts_2024011619str_format_internal21UntypedFormatSpecImpl3strEv.cold.2, symObjAddr: 0x1C58, symBinAddr: 0x5C084, symSize: 0x28 }
  - { offsetInCU: 0xF9BF, offset: 0x380F9, size: 0x8, addend: 0x0, symName: __ZNSt3__119basic_ostringstreamIcNS_11char_traitsIcEENS_9allocatorIcEEEC1B7v160006Ev, symObjAddr: 0xDA8, symBinAddr: 0x8738, symSize: 0xD4 }
  - { offsetInCU: 0xFA78, offset: 0x381B2, size: 0x8, addend: 0x0, symName: __ZN4absl12lts_2024011613InlinedVectorINS0_19str_format_internal13FormatArgImplELm4ENSt3__19allocatorIS3_EEEC2IPKS3_Li0EEET_SB_RKS6_, symObjAddr: 0x1854, symBinAddr: 0x91E4, symSize: 0x4C }
  - { offsetInCU: 0xFD33, offset: 0x3846D, size: 0x8, addend: 0x0, symName: __ZNKSt3__115basic_stringbufIcNS_11char_traitsIcEENS_9allocatorIcEEE3strEv, symObjAddr: 0x19F8, symBinAddr: 0x9300, symSize: 0x68 }
  - { offsetInCU: 0xFF37, offset: 0x38671, size: 0x8, addend: 0x0, symName: __ZNSt3__119basic_ostringstreamIcNS_11char_traitsIcEENS_9allocatorIcEEED1Ev, symObjAddr: 0xE7C, symBinAddr: 0x880C, symSize: 0x8C }
  - { offsetInCU: 0x100C8, offset: 0x38802, size: 0x8, addend: 0x0, symName: __ZNSt3__119basic_ostringstreamIcNS_11char_traitsIcEENS_9allocatorIcEEED0Ev, symObjAddr: 0xF08, symBinAddr: 0x8898, symSize: 0x8C }
  - { offsetInCU: 0x10275, offset: 0x389AF, size: 0x8, addend: 0x0, symName: __ZTv0_n24_NSt3__119basic_ostringstreamIcNS_11char_traitsIcEENS_9allocatorIcEEED1Ev, symObjAddr: 0xF94, symBinAddr: 0x8924, symSize: 0x8C }
  - { offsetInCU: 0x10435, offset: 0x38B6F, size: 0x8, addend: 0x0, symName: __ZTv0_n24_NSt3__119basic_ostringstreamIcNS_11char_traitsIcEENS_9allocatorIcEEED0Ev, symObjAddr: 0x1020, symBinAddr: 0x89B0, symSize: 0x94 }
  - { offsetInCU: 0x105F5, offset: 0x38D2F, size: 0x8, addend: 0x0, symName: __ZNSt3__115basic_stringbufIcNS_11char_traitsIcEENS_9allocatorIcEEED1Ev, symObjAddr: 0x10B4, symBinAddr: 0x8A44, symSize: 0x40 }
  - { offsetInCU: 0x1075E, offset: 0x38E98, size: 0x8, addend: 0x0, symName: __ZNSt3__115basic_stringbufIcNS_11char_traitsIcEENS_9allocatorIcEEED0Ev, symObjAddr: 0x10F4, symBinAddr: 0x8A84, symSize: 0x44 }
  - { offsetInCU: 0x109B8, offset: 0x390F2, size: 0x8, addend: 0x0, symName: __ZNSt3__115basic_stringbufIcNS_11char_traitsIcEENS_9allocatorIcEEE7seekoffExNS_8ios_base7seekdirEj, symObjAddr: 0x1138, symBinAddr: 0x8AC8, symSize: 0x100 }
  - { offsetInCU: 0x10BB7, offset: 0x392F1, size: 0x8, addend: 0x0, symName: __ZNSt3__115basic_stringbufIcNS_11char_traitsIcEENS_9allocatorIcEEE7seekposENS_4fposI11__mbstate_tEEj, symObjAddr: 0x1238, symBinAddr: 0x8BC8, symSize: 0x18 }
  - { offsetInCU: 0x10C56, offset: 0x39390, size: 0x8, addend: 0x0, symName: __ZNSt3__115basic_stringbufIcNS_11char_traitsIcEENS_9allocatorIcEEE9underflowEv, symObjAddr: 0x1250, symBinAddr: 0x8BE0, symSize: 0x50 }
  - { offsetInCU: 0x10CFA, offset: 0x39434, size: 0x8, addend: 0x0, symName: __ZNSt3__115basic_stringbufIcNS_11char_traitsIcEENS_9allocatorIcEEE9pbackfailEi, symObjAddr: 0x12A0, symBinAddr: 0x8C30, symSize: 0x6C }
  - { offsetInCU: 0x10ED0, offset: 0x3960A, size: 0x8, addend: 0x0, symName: __ZNSt3__115basic_stringbufIcNS_11char_traitsIcEENS_9allocatorIcEEE8overflowEi, symObjAddr: 0x130C, symBinAddr: 0x8C9C, symSize: 0x160 }
  - { offsetInCU: 0x1145E, offset: 0x39B98, size: 0x8, addend: 0x0, symName: __ZNSt3__112basic_stringIcNS_11char_traitsIcEENS_9allocatorIcEEEC2B7v160006Emc, symObjAddr: 0x170C, symBinAddr: 0x909C, symSize: 0x98 }
  - { offsetInCU: 0x11670, offset: 0x39DAA, size: 0x8, addend: 0x0, symName: __ZNKSt3__112basic_stringIcNS_11char_traitsIcEENS_9allocatorIcEEE20__throw_length_errorB7v160006Ev, symObjAddr: 0x17A4, symBinAddr: 0x9134, symSize: 0x14 }
  - { offsetInCU: 0x1177A, offset: 0x39EB4, size: 0x8, addend: 0x0, symName: __ZNKSt3__112basic_stringIcNS_11char_traitsIcEENS_9allocatorIcEEE20__throw_length_errorB7v160006Ev, symObjAddr: 0x17A4, symBinAddr: 0x9134, symSize: 0x14 }
  - { offsetInCU: 0x117A4, offset: 0x39EDE, size: 0x8, addend: 0x0, symName: __ZNSt3__120__throw_length_errorB7v160006EPKc, symObjAddr: 0x17B8, symBinAddr: 0x9148, symSize: 0x50 }
  - { offsetInCU: 0x117AE, offset: 0x39EE8, size: 0x8, addend: 0x0, symName: __ZNSt12length_errorC1B7v160006EPKc, symObjAddr: 0x1808, symBinAddr: 0x9198, symSize: 0x24 }
  - { offsetInCU: 0x119A8, offset: 0x3A0E2, size: 0x8, addend: 0x0, symName: __ZN4absl12lts_2024011623inlined_vector_internal7StorageINS0_19str_format_internal13FormatArgImplELm4ENSt3__19allocatorIS4_EEE10InitializeINS1_20IteratorValueAdapterIS7_PKS4_EEEEvT_m, symObjAddr: 0x18A0, symBinAddr: 0x9230, symSize: 0x9C }
  - { offsetInCU: 0x11C3C, offset: 0x3A376, size: 0x8, addend: 0x0, symName: __ZN4absl12lts_2024011623inlined_vector_internal13MallocAdapterINSt3__19allocatorINS0_19str_format_internal13FormatArgImplEEELb0EE8AllocateERS7_m, symObjAddr: 0x193C, symBinAddr: 0x92CC, symSize: 0x34 }
  - { offsetInCU: 0x11DF0, offset: 0x3A52A, size: 0x8, addend: 0x0, symName: __ZN4absl12lts_2024011623inlined_vector_internal13MallocAdapterINSt3__19allocatorINS0_19str_format_internal13FormatArgImplEEELb0EE8AllocateERS7_m, symObjAddr: 0x193C, symBinAddr: 0x92CC, symSize: 0x34 }
  - { offsetInCU: 0x11EAE, offset: 0x3A5E8, size: 0x8, addend: 0x0, symName: __ZN4absl12lts_2024011623inlined_vector_internal7StorageINS0_19str_format_internal13FormatArgImplELm4ENSt3__19allocatorIS4_EEE10InitializeINS1_20IteratorValueAdapterIS7_PKS4_EEEEvT_m.cold.2, symObjAddr: 0x1CA8, symBinAddr: 0x5C0D4, symSize: 0x28 }
  - { offsetInCU: 0x11EDC, offset: 0x3A616, size: 0x8, addend: 0x0, symName: __ZN4absl12lts_2024011623inlined_vector_internal7StorageINS0_19str_format_internal13FormatArgImplELm4ENSt3__19allocatorIS4_EEE10InitializeINS1_20IteratorValueAdapterIS7_PKS4_EEEEvT_m.cold.1, symObjAddr: 0x1C80, symBinAddr: 0x5C0AC, symSize: 0x28 }
  - { offsetInCU: 0x11FFB, offset: 0x3A735, size: 0x8, addend: 0x0, symName: __ZNSt3__112basic_stringIcNS_11char_traitsIcEENS_9allocatorIcEEEC2B7v160006IPcvEET_S8_RKS4_, symObjAddr: 0x1A60, symBinAddr: 0x9368, symSize: 0x98 }
  - { offsetInCU: 0x12234, offset: 0x3A96E, size: 0x8, addend: 0x0, symName: __ZNSt3__112basic_stringIcNS_11char_traitsIcEENS_9allocatorIcEEEC2B7v160006IDnEEPKc, symObjAddr: 0x1AF8, symBinAddr: 0x9400, symSize: 0x9C }
  - { offsetInCU: 0x1242F, offset: 0x3AB69, size: 0x8, addend: 0x0, symName: __ZN4absl12lts_2024011619str_format_internal17FormatRawSinkImpl5FlushINSt3__113basic_ostreamIcNS4_11char_traitsIcEEEEEEvPvNS0_11string_viewE, symObjAddr: 0x1BFC, symBinAddr: 0x9504, symSize: 0x4 }
  - { offsetInCU: 0x1245E, offset: 0x3AB98, size: 0x8, addend: 0x0, symName: __ZN4absl12lts_2024011619str_format_internal17FormatRawSinkImpl5FlushINSt3__113basic_ostreamIcNS4_11char_traitsIcEEEEEEvPvNS0_11string_viewE, symObjAddr: 0x1BFC, symBinAddr: 0x9504, symSize: 0x4 }
  - { offsetInCU: 0x12479, offset: 0x3ABB3, size: 0x8, addend: 0x0, symName: __ZN4absl12lts_2024011619str_format_internal17FormatRawSinkImpl5FlushINSt3__113basic_ostreamIcNS4_11char_traitsIcEEEEEEvPvNS0_11string_viewE, symObjAddr: 0x1BFC, symBinAddr: 0x9504, symSize: 0x4 }
  - { offsetInCU: 0x124A6, offset: 0x3ABE0, size: 0x8, addend: 0x0, symName: __ZN4absl12lts_2024011619str_format_internal17FormatRawSinkImpl5FlushINS1_11FILERawSinkEEEvPvNS0_11string_viewE, symObjAddr: 0x1C00, symBinAddr: 0x9508, symSize: 0x4 }
  - { offsetInCU: 0x124D5, offset: 0x3AC0F, size: 0x8, addend: 0x0, symName: __ZN4absl12lts_2024011619str_format_internal17FormatRawSinkImpl5FlushINS1_11FILERawSinkEEEvPvNS0_11string_viewE, symObjAddr: 0x1C00, symBinAddr: 0x9508, symSize: 0x4 }
  - { offsetInCU: 0x124F0, offset: 0x3AC2A, size: 0x8, addend: 0x0, symName: __ZN4absl12lts_2024011619str_format_internal17FormatRawSinkImpl5FlushINS1_11FILERawSinkEEEvPvNS0_11string_viewE, symObjAddr: 0x1C00, symBinAddr: 0x9508, symSize: 0x4 }
  - { offsetInCU: 0x12514, offset: 0x3AC4E, size: 0x8, addend: 0x0, symName: __ZN4absl12lts_2024011619str_format_internal17FormatRawSinkImpl5FlushINS1_13BufferRawSinkEEEvPvNS0_11string_viewE, symObjAddr: 0x1C04, symBinAddr: 0x950C, symSize: 0x4 }
  - { offsetInCU: 0x12543, offset: 0x3AC7D, size: 0x8, addend: 0x0, symName: __ZN4absl12lts_2024011619str_format_internal17FormatRawSinkImpl5FlushINS1_13BufferRawSinkEEEvPvNS0_11string_viewE, symObjAddr: 0x1C04, symBinAddr: 0x950C, symSize: 0x4 }
  - { offsetInCU: 0x1255E, offset: 0x3AC98, size: 0x8, addend: 0x0, symName: __ZN4absl12lts_2024011619str_format_internal17FormatRawSinkImpl5FlushINS1_13BufferRawSinkEEEvPvNS0_11string_viewE, symObjAddr: 0x1C04, symBinAddr: 0x950C, symSize: 0x4 }
  - { offsetInCU: 0x1DE, offset: 0x3AEAE, size: 0x8, addend: 0x0, symName: __ZN4absl12lts_2024011612_GLOBAL__N_16IsDoneEPv, symObjAddr: 0x218, symBinAddr: 0x9728, symSize: 0x8 }
  - { offsetInCU: 0x2E90, offset: 0x3DB60, size: 0x8, addend: 0x0, symName: __ZN4absl12lts_2024011615BlockingCounterC2Ei, symObjAddr: 0x0, symBinAddr: 0x9510, symSize: 0xA8 }
  - { offsetInCU: 0x3135, offset: 0x3DE05, size: 0x8, addend: 0x0, symName: __ZN4absl12lts_2024011615BlockingCounterC1Ei, symObjAddr: 0xA8, symBinAddr: 0x95B8, symSize: 0x4 }
  - { offsetInCU: 0x3171, offset: 0x3DE41, size: 0x8, addend: 0x0, symName: __ZN4absl12lts_2024011615BlockingCounterC1Ei, symObjAddr: 0xA8, symBinAddr: 0x95B8, symSize: 0x4 }
  - { offsetInCU: 0x323D, offset: 0x3DF0D, size: 0x8, addend: 0x0, symName: __ZN4absl12lts_2024011615BlockingCounter14DecrementCountEv, symObjAddr: 0xAC, symBinAddr: 0x95BC, symSize: 0x68 }
  - { offsetInCU: 0x335C, offset: 0x3E02C, size: 0x8, addend: 0x0, symName: __ZN4absl12lts_2024011615BlockingCounter14DecrementCountEv.cold.1, symObjAddr: 0x22C, symBinAddr: 0x5C0FC, symSize: 0x5C }
  - { offsetInCU: 0x3396, offset: 0x3E066, size: 0x8, addend: 0x0, symName: __ZN4absl12lts_2024011615BlockingCounter4WaitEv, symObjAddr: 0x114, symBinAddr: 0x9624, symSize: 0x104 }
  - { offsetInCU: 0x26, offset: 0x3E1A2, size: 0x8, addend: 0x0, symName: __ZN4absl12lts_2024011610from_charsEPKcS2_RdNS0_12chars_formatE, symObjAddr: 0x0, symBinAddr: 0x9730, symSize: 0x46C }
  - { offsetInCU: 0x89, offset: 0x3E205, size: 0x8, addend: 0x0, symName: __ZN4absl12lts_2024011612_GLOBAL__N_125kPower10MantissaHighTableE, symObjAddr: 0x1040, symBinAddr: 0x67360, symSize: 0x0 }
  - { offsetInCU: 0xA4, offset: 0x3E220, size: 0x8, addend: 0x0, symName: __ZN4absl12lts_2024011612_GLOBAL__N_124kPower10MantissaLowTableE, symObjAddr: 0x2498, symBinAddr: 0x687B8, symSize: 0x0 }
  - { offsetInCU: 0x5B6, offset: 0x3E732, size: 0x8, addend: 0x0, symName: __ZN4absl12lts_2024011612_GLOBAL__N_114HandleEdgeCaseIdEEbRKNS0_16strings_internal11ParsedFloatEbPT_, symObjAddr: 0x8D0, symBinAddr: 0xA000, symSize: 0x104 }
  - { offsetInCU: 0x7E0, offset: 0x3E95C, size: 0x8, addend: 0x0, symName: __ZN4absl12lts_2024011612_GLOBAL__N_130CalculateFromParsedHexadecimalIdEENS1_15CalculatedFloatERKNS0_16strings_internal11ParsedFloatE, symObjAddr: 0x9D4, symBinAddr: 0xA104, symSize: 0x94 }
  - { offsetInCU: 0x960, offset: 0x3EADC, size: 0x8, addend: 0x0, symName: __ZN4absl12lts_2024011612_GLOBAL__N_118ShiftRightAndRoundENS0_7uint128EibPb, symObjAddr: 0xB0C, symBinAddr: 0xA23C, symSize: 0x100 }
  - { offsetInCU: 0xB06, offset: 0x3EC82, size: 0x8, addend: 0x0, symName: __ZN4absl12lts_2024011612_GLOBAL__N_111MustRoundUpEyiRKNS0_16strings_internal11ParsedFloatE, symObjAddr: 0xC0C, symBinAddr: 0xA33C, symSize: 0x190 }
  - { offsetInCU: 0xC54, offset: 0x3EDD0, size: 0x8, addend: 0x0, symName: __ZN4absl12lts_2024011612_GLOBAL__N_112EncodeResultIdEEvRKNS1_15CalculatedFloatEbPNS0_17from_chars_resultEPT_, symObjAddr: 0xA68, symBinAddr: 0xA198, symSize: 0xA4 }
  - { offsetInCU: 0xF70, offset: 0x3F0EC, size: 0x8, addend: 0x0, symName: __ZN4absl12lts_2024011612_GLOBAL__N_114HandleEdgeCaseIfEEbRKNS0_16strings_internal11ParsedFloatEbPT_, symObjAddr: 0xE08, symBinAddr: 0xA538, symSize: 0x100 }
  - { offsetInCU: 0x119A, offset: 0x3F316, size: 0x8, addend: 0x0, symName: __ZN4absl12lts_2024011612_GLOBAL__N_130CalculateFromParsedHexadecimalIfEENS1_15CalculatedFloatERKNS0_16strings_internal11ParsedFloatE, symObjAddr: 0xF08, symBinAddr: 0xA638, symSize: 0x94 }
  - { offsetInCU: 0x131A, offset: 0x3F496, size: 0x8, addend: 0x0, symName: __ZN4absl12lts_2024011612_GLOBAL__N_112EncodeResultIfEEvRKNS1_15CalculatedFloatEbPNS0_17from_chars_resultEPT_, symObjAddr: 0xF9C, symBinAddr: 0xA6CC, symSize: 0xA0 }
  - { offsetInCU: 0x16CC, offset: 0x3F848, size: 0x8, addend: 0x0, symName: __ZN4absl12lts_2024011616strings_internal7CompareILi84ELi84EEEiRKNS1_11BigUnsignedIXT_EEERKNS3_IXT0_EEE, symObjAddr: 0xD9C, symBinAddr: 0xA4CC, symSize: 0x6C }
  - { offsetInCU: 0x1718, offset: 0x3F894, size: 0x8, addend: 0x0, symName: __ZN4absl12lts_2024011616strings_internal7CompareILi84ELi84EEEiRKNS1_11BigUnsignedIXT_EEERKNS3_IXT0_EEE, symObjAddr: 0xD9C, symBinAddr: 0xA4CC, symSize: 0x6C }
  - { offsetInCU: 0x1946, offset: 0x3FAC2, size: 0x8, addend: 0x0, symName: __ZN4absl12lts_2024011610from_charsEPKcS2_RdNS0_12chars_formatE, symObjAddr: 0x0, symBinAddr: 0x9730, symSize: 0x46C }
  - { offsetInCU: 0x1EE7, offset: 0x40063, size: 0x8, addend: 0x0, symName: __ZN4absl12lts_2024011610from_charsEPKcS2_RfNS0_12chars_formatE, symObjAddr: 0x46C, symBinAddr: 0x9B9C, symSize: 0x464 }
  - { offsetInCU: 0x26, offset: 0x44F4A, size: 0x8, addend: 0x0, symName: __ZN4absl12lts_2024011616strings_internal11BigUnsignedILi4EEC2Ev, symObjAddr: 0x0, symBinAddr: 0xA76C, symSize: 0xC }
  - { offsetInCU: 0x89, offset: 0x44FAD, size: 0x8, addend: 0x0, symName: __ZN4absl12lts_2024011616strings_internal12_GLOBAL__N_118kLargePowersOfFiveE, symObjAddr: 0x1CF0, symBinAddr: 0x69C70, symSize: 0x0 }
  - { offsetInCU: 0xDC, offset: 0x45000, size: 0x8, addend: 0x0, symName: __ZN4absl12lts_2024011616strings_internal10kFiveToNthE, symObjAddr: 0x1C90, symBinAddr: 0x69C10, symSize: 0x0 }
  - { offsetInCU: 0xF6, offset: 0x4501A, size: 0x8, addend: 0x0, symName: __ZN4absl12lts_2024011616strings_internal9kTenToNthE, symObjAddr: 0x1CC8, symBinAddr: 0x69C48, symSize: 0x0 }
  - { offsetInCU: 0x51F1, offset: 0x4A115, size: 0x8, addend: 0x0, symName: __ZN4absl12lts_2024011616strings_internal11BigUnsignedILi4EEC2Ev, symObjAddr: 0x0, symBinAddr: 0xA76C, symSize: 0xC }
  - { offsetInCU: 0x5230, offset: 0x4A154, size: 0x8, addend: 0x0, symName: __ZN4absl12lts_2024011616strings_internal11BigUnsignedILi4EEC1Ev, symObjAddr: 0xC, symBinAddr: 0xA778, symSize: 0xC }
  - { offsetInCU: 0x525C, offset: 0x4A180, size: 0x8, addend: 0x0, symName: __ZN4absl12lts_2024011616strings_internal11BigUnsignedILi4EEC1Ev, symObjAddr: 0xC, symBinAddr: 0xA778, symSize: 0xC }
  - { offsetInCU: 0x5275, offset: 0x4A199, size: 0x8, addend: 0x0, symName: __ZN4absl12lts_2024011616strings_internal11BigUnsignedILi4EEC2Ey, symObjAddr: 0x18, symBinAddr: 0xA784, symSize: 0x28 }
  - { offsetInCU: 0x52C1, offset: 0x4A1E5, size: 0x8, addend: 0x0, symName: __ZN4absl12lts_2024011616strings_internal11BigUnsignedILi4EEC1Ey, symObjAddr: 0x40, symBinAddr: 0xA7AC, symSize: 0x28 }
  - { offsetInCU: 0x52EB, offset: 0x4A20F, size: 0x8, addend: 0x0, symName: __ZN4absl12lts_2024011616strings_internal11BigUnsignedILi4EEC1Ey, symObjAddr: 0x40, symBinAddr: 0xA7AC, symSize: 0x28 }
  - { offsetInCU: 0x531C, offset: 0x4A240, size: 0x8, addend: 0x0, symName: __ZN4absl12lts_2024011616strings_internal11BigUnsignedILi4EEC2ENS0_11string_viewE, symObjAddr: 0x68, symBinAddr: 0xA7D4, symSize: 0x84 }
  - { offsetInCU: 0x53DC, offset: 0x4A300, size: 0x8, addend: 0x0, symName: __ZN4absl12lts_2024011616strings_internal11BigUnsignedILi4EE10ReadDigitsEPKcS5_i, symObjAddr: 0xEC, symBinAddr: 0xA858, symSize: 0x2FC }
  - { offsetInCU: 0x5725, offset: 0x4A649, size: 0x8, addend: 0x0, symName: __ZN4absl12lts_2024011616strings_internal11BigUnsignedILi4EE8Digits10Ev, symObjAddr: 0x3E8, symBinAddr: 0xAB54, symSize: 0x8 }
  - { offsetInCU: 0x5730, offset: 0x4A654, size: 0x8, addend: 0x0, symName: __ZN4absl12lts_2024011616strings_internal11BigUnsignedILi4EE21MultiplyByTenToTheNthEi, symObjAddr: 0x3F0, symBinAddr: 0xAB5C, symSize: 0x6C }
  - { offsetInCU: 0x583E, offset: 0x4A762, size: 0x8, addend: 0x0, symName: __ZN4absl12lts_2024011616strings_internal11BigUnsignedILi4EE10MultiplyByEj, symObjAddr: 0x674, symBinAddr: 0xADE0, symSize: 0xA8 }
  - { offsetInCU: 0x58EF, offset: 0x4A813, size: 0x8, addend: 0x0, symName: __ZN4absl12lts_2024011616strings_internal11BigUnsignedILi4EE10ReadDigitsEPKcS5_i.cold.1, symObjAddr: 0x1B50, symBinAddr: 0x5C158, symSize: 0x28 }
  - { offsetInCU: 0x5907, offset: 0x4A82B, size: 0x8, addend: 0x0, symName: __ZN4absl12lts_2024011616strings_internal11BigUnsignedILi4EE8Digits10Ev, symObjAddr: 0x3E8, symBinAddr: 0xAB54, symSize: 0x8 }
  - { offsetInCU: 0x591B, offset: 0x4A83F, size: 0x8, addend: 0x0, symName: __ZN4absl12lts_2024011616strings_internal11BigUnsignedILi4EE22MultiplyByFiveToTheNthEi, symObjAddr: 0x810, symBinAddr: 0xAF7C, symSize: 0x74 }
  - { offsetInCU: 0x5979, offset: 0x4A89D, size: 0x8, addend: 0x0, symName: __ZN4absl12lts_2024011616strings_internal11BigUnsignedILi4EE9ShiftLeftEi, symObjAddr: 0x538, symBinAddr: 0xACA4, symSize: 0x13C }
  - { offsetInCU: 0x5B6D, offset: 0x4AA91, size: 0x8, addend: 0x0, symName: __ZN4absl12lts_2024011616strings_internal11BigUnsignedILi4EEC1ENS0_11string_viewE, symObjAddr: 0x45C, symBinAddr: 0xABC8, symSize: 0x4 }
  - { offsetInCU: 0x5BA5, offset: 0x4AAC9, size: 0x8, addend: 0x0, symName: __ZN4absl12lts_2024011616strings_internal11BigUnsignedILi4EEC1ENS0_11string_viewE, symObjAddr: 0x45C, symBinAddr: 0xABC8, symSize: 0x4 }
  - { offsetInCU: 0x5BC4, offset: 0x4AAE8, size: 0x8, addend: 0x0, symName: __ZN4absl12lts_2024011616strings_internal11BigUnsignedILi4EE17ReadFloatMantissaERKNS1_11ParsedFloatEi, symObjAddr: 0x460, symBinAddr: 0xABCC, symSize: 0xA0 }
  - { offsetInCU: 0x5C8F, offset: 0x4ABB3, size: 0x8, addend: 0x0, symName: __ZN4absl12lts_2024011616strings_internal11BigUnsignedILi4EE9SetToZeroEv, symObjAddr: 0x500, symBinAddr: 0xAC6C, symSize: 0x38 }
  - { offsetInCU: 0x5C9A, offset: 0x4ABBE, size: 0x8, addend: 0x0, symName: __ZN4absl12lts_2024011616strings_internal11BigUnsignedILi4EE17ReadFloatMantissaERKNS1_11ParsedFloatEi.cold.1, symObjAddr: 0x1B78, symBinAddr: 0x5C180, symSize: 0x28 }
  - { offsetInCU: 0x5CB2, offset: 0x4ABD6, size: 0x8, addend: 0x0, symName: __ZN4absl12lts_2024011616strings_internal11BigUnsignedILi4EE9SetToZeroEv, symObjAddr: 0x500, symBinAddr: 0xAC6C, symSize: 0x38 }
  - { offsetInCU: 0x5D8F, offset: 0x4ACB3, size: 0x8, addend: 0x0, symName: __ZN4absl12lts_2024011616strings_internal11BigUnsignedILi4EE10MultiplyByEy, symObjAddr: 0x71C, symBinAddr: 0xAE88, symSize: 0x80 }
  - { offsetInCU: 0x5DFA, offset: 0x4AD1E, size: 0x8, addend: 0x0, symName: __ZN4absl12lts_2024011616strings_internal11BigUnsignedILi4EE10MultiplyByEiPKj, symObjAddr: 0x79C, symBinAddr: 0xAF08, symSize: 0x74 }
  - { offsetInCU: 0x5EA7, offset: 0x4ADCB, size: 0x8, addend: 0x0, symName: __ZN4absl12lts_2024011616strings_internal11BigUnsignedILi4EE12MultiplyStepEiPKjii, symObjAddr: 0xB7C, symBinAddr: 0xB2E8, symSize: 0xC4 }
  - { offsetInCU: 0x6044, offset: 0x4AF68, size: 0x8, addend: 0x0, symName: __ZN4absl12lts_2024011616strings_internal11BigUnsignedILi4EE12FiveToTheNthEi, symObjAddr: 0x884, symBinAddr: 0xAFF0, symSize: 0xEC }
  - { offsetInCU: 0x6324, offset: 0x4B248, size: 0x8, addend: 0x0, symName: __ZNK4absl12lts_2024011616strings_internal11BigUnsignedILi4EE7GetWordEi, symObjAddr: 0x970, symBinAddr: 0xB0DC, symSize: 0x24 }
  - { offsetInCU: 0x652C, offset: 0x4B450, size: 0x8, addend: 0x0, symName: __ZNK4absl12lts_2024011616strings_internal11BigUnsignedILi4EE8ToStringEv, symObjAddr: 0x994, symBinAddr: 0xB100, symSize: 0x100 }
  - { offsetInCU: 0x68B2, offset: 0x4B7D6, size: 0x8, addend: 0x0, symName: __ZN4absl12lts_2024011616strings_internal11BigUnsignedILi4EE6DivModILj10EEEjv, symObjAddr: 0xA9C, symBinAddr: 0xB208, symSize: 0x84 }
  - { offsetInCU: 0x68E7, offset: 0x4B80B, size: 0x8, addend: 0x0, symName: __ZN4absl12lts_2024011616strings_internal11BigUnsignedILi4EE6DivModILj10EEEjv, symObjAddr: 0xA9C, symBinAddr: 0xB208, symSize: 0x84 }
  - { offsetInCU: 0x6910, offset: 0x4B834, size: 0x8, addend: 0x0, symName: __ZNK4absl12lts_2024011616strings_internal11BigUnsignedILi4EE4sizeEv, symObjAddr: 0xA94, symBinAddr: 0xB200, symSize: 0x8 }
  - { offsetInCU: 0x6933, offset: 0x4B857, size: 0x8, addend: 0x0, symName: __ZNK4absl12lts_2024011616strings_internal11BigUnsignedILi4EE5wordsEv, symObjAddr: 0xB20, symBinAddr: 0xB28C, symSize: 0x8 }
  - { offsetInCU: 0x6959, offset: 0x4B87D, size: 0x8, addend: 0x0, symName: __ZN4absl12lts_2024011616strings_internal11BigUnsignedILi4EE12AddWithCarryEij, symObjAddr: 0xB28, symBinAddr: 0xB294, symSize: 0x54 }
  - { offsetInCU: 0x6A1E, offset: 0x4B942, size: 0x8, addend: 0x0, symName: __ZN4absl12lts_2024011616strings_internal11BigUnsignedILi4EE12AddWithCarryEiy, symObjAddr: 0xC40, symBinAddr: 0xB3AC, symSize: 0xA8 }
  - { offsetInCU: 0x6BF4, offset: 0x4BB18, size: 0x8, addend: 0x0, symName: __ZN4absl12lts_2024011616strings_internal11BigUnsignedILi84EEC2Ev, symObjAddr: 0xCE8, symBinAddr: 0xB454, symSize: 0x38 }
  - { offsetInCU: 0x6C33, offset: 0x4BB57, size: 0x8, addend: 0x0, symName: __ZN4absl12lts_2024011616strings_internal11BigUnsignedILi84EEC1Ev, symObjAddr: 0xD20, symBinAddr: 0xB48C, symSize: 0x38 }
  - { offsetInCU: 0x6C5F, offset: 0x4BB83, size: 0x8, addend: 0x0, symName: __ZN4absl12lts_2024011616strings_internal11BigUnsignedILi84EEC1Ev, symObjAddr: 0xD20, symBinAddr: 0xB48C, symSize: 0x38 }
  - { offsetInCU: 0x6C78, offset: 0x4BB9C, size: 0x8, addend: 0x0, symName: __ZN4absl12lts_2024011616strings_internal11BigUnsignedILi84EEC2Ey, symObjAddr: 0xD58, symBinAddr: 0xB4C4, symSize: 0x7C }
  - { offsetInCU: 0x6CC4, offset: 0x4BBE8, size: 0x8, addend: 0x0, symName: __ZN4absl12lts_2024011616strings_internal11BigUnsignedILi84EEC1Ey, symObjAddr: 0xDD4, symBinAddr: 0xB540, symSize: 0x7C }
  - { offsetInCU: 0x6CEE, offset: 0x4BC12, size: 0x8, addend: 0x0, symName: __ZN4absl12lts_2024011616strings_internal11BigUnsignedILi84EEC1Ey, symObjAddr: 0xDD4, symBinAddr: 0xB540, symSize: 0x7C }
  - { offsetInCU: 0x6D0E, offset: 0x4BC32, size: 0x8, addend: 0x0, symName: __ZN4absl12lts_2024011616strings_internal11BigUnsignedILi84EEC2ENS0_11string_viewE, symObjAddr: 0xE50, symBinAddr: 0xB5BC, symSize: 0xB0 }
  - { offsetInCU: 0x6DCF, offset: 0x4BCF3, size: 0x8, addend: 0x0, symName: __ZN4absl12lts_2024011616strings_internal11BigUnsignedILi84EE10ReadDigitsEPKcS5_i, symObjAddr: 0xF00, symBinAddr: 0xB66C, symSize: 0x2FC }
  - { offsetInCU: 0x7118, offset: 0x4C03C, size: 0x8, addend: 0x0, symName: __ZN4absl12lts_2024011616strings_internal11BigUnsignedILi84EE8Digits10Ev, symObjAddr: 0x11FC, symBinAddr: 0xB968, symSize: 0x8 }
  - { offsetInCU: 0x7123, offset: 0x4C047, size: 0x8, addend: 0x0, symName: __ZN4absl12lts_2024011616strings_internal11BigUnsignedILi84EE21MultiplyByTenToTheNthEi, symObjAddr: 0x1204, symBinAddr: 0xB970, symSize: 0x6C }
  - { offsetInCU: 0x71E5, offset: 0x4C109, size: 0x8, addend: 0x0, symName: __ZN4absl12lts_2024011616strings_internal11BigUnsignedILi84EE10MultiplyByEj, symObjAddr: 0x1488, symBinAddr: 0xBBF4, symSize: 0xA8 }
  - { offsetInCU: 0x7296, offset: 0x4C1BA, size: 0x8, addend: 0x0, symName: __ZN4absl12lts_2024011616strings_internal11BigUnsignedILi84EE10ReadDigitsEPKcS5_i.cold.1, symObjAddr: 0x1BA0, symBinAddr: 0x5C1A8, symSize: 0x28 }
  - { offsetInCU: 0x72AE, offset: 0x4C1D2, size: 0x8, addend: 0x0, symName: __ZN4absl12lts_2024011616strings_internal11BigUnsignedILi84EE8Digits10Ev, symObjAddr: 0x11FC, symBinAddr: 0xB968, symSize: 0x8 }
  - { offsetInCU: 0x72C2, offset: 0x4C1E6, size: 0x8, addend: 0x0, symName: __ZN4absl12lts_2024011616strings_internal11BigUnsignedILi84EE22MultiplyByFiveToTheNthEi, symObjAddr: 0x1624, symBinAddr: 0xBD90, symSize: 0x74 }
  - { offsetInCU: 0x7320, offset: 0x4C244, size: 0x8, addend: 0x0, symName: __ZN4absl12lts_2024011616strings_internal11BigUnsignedILi84EE9ShiftLeftEi, symObjAddr: 0x134C, symBinAddr: 0xBAB8, symSize: 0x13C }
  - { offsetInCU: 0x7514, offset: 0x4C438, size: 0x8, addend: 0x0, symName: __ZN4absl12lts_2024011616strings_internal11BigUnsignedILi84EEC1ENS0_11string_viewE, symObjAddr: 0x1270, symBinAddr: 0xB9DC, symSize: 0x4 }
  - { offsetInCU: 0x754C, offset: 0x4C470, size: 0x8, addend: 0x0, symName: __ZN4absl12lts_2024011616strings_internal11BigUnsignedILi84EEC1ENS0_11string_viewE, symObjAddr: 0x1270, symBinAddr: 0xB9DC, symSize: 0x4 }
  - { offsetInCU: 0x756B, offset: 0x4C48F, size: 0x8, addend: 0x0, symName: __ZN4absl12lts_2024011616strings_internal11BigUnsignedILi84EE17ReadFloatMantissaERKNS1_11ParsedFloatEi, symObjAddr: 0x1274, symBinAddr: 0xB9E0, symSize: 0xA0 }
  - { offsetInCU: 0x7636, offset: 0x4C55A, size: 0x8, addend: 0x0, symName: __ZN4absl12lts_2024011616strings_internal11BigUnsignedILi84EE9SetToZeroEv, symObjAddr: 0x1314, symBinAddr: 0xBA80, symSize: 0x38 }
  - { offsetInCU: 0x7641, offset: 0x4C565, size: 0x8, addend: 0x0, symName: __ZN4absl12lts_2024011616strings_internal11BigUnsignedILi84EE17ReadFloatMantissaERKNS1_11ParsedFloatEi.cold.1, symObjAddr: 0x1BC8, symBinAddr: 0x5C1D0, symSize: 0x28 }
  - { offsetInCU: 0x7659, offset: 0x4C57D, size: 0x8, addend: 0x0, symName: __ZN4absl12lts_2024011616strings_internal11BigUnsignedILi84EE9SetToZeroEv, symObjAddr: 0x1314, symBinAddr: 0xBA80, symSize: 0x38 }
  - { offsetInCU: 0x76B7, offset: 0x4C5DB, size: 0x8, addend: 0x0, symName: __ZN4absl12lts_2024011616strings_internal11BigUnsignedILi84EE10MultiplyByEy, symObjAddr: 0x1530, symBinAddr: 0xBC9C, symSize: 0x80 }
  - { offsetInCU: 0x7722, offset: 0x4C646, size: 0x8, addend: 0x0, symName: __ZN4absl12lts_2024011616strings_internal11BigUnsignedILi84EE10MultiplyByEiPKj, symObjAddr: 0x15B0, symBinAddr: 0xBD1C, symSize: 0x74 }
  - { offsetInCU: 0x77CF, offset: 0x4C6F3, size: 0x8, addend: 0x0, symName: __ZN4absl12lts_2024011616strings_internal11BigUnsignedILi84EE12MultiplyStepEiPKjii, symObjAddr: 0x19E4, symBinAddr: 0xC150, symSize: 0xC4 }
  - { offsetInCU: 0x78D6, offset: 0x4C7FA, size: 0x8, addend: 0x0, symName: __ZN4absl12lts_2024011616strings_internal11BigUnsignedILi84EE12FiveToTheNthEi, symObjAddr: 0x1698, symBinAddr: 0xBE04, symSize: 0x138 }
  - { offsetInCU: 0x7BB6, offset: 0x4CADA, size: 0x8, addend: 0x0, symName: __ZNK4absl12lts_2024011616strings_internal11BigUnsignedILi84EE7GetWordEi, symObjAddr: 0x17D0, symBinAddr: 0xBF3C, symSize: 0x24 }
  - { offsetInCU: 0x7C05, offset: 0x4CB29, size: 0x8, addend: 0x0, symName: __ZNK4absl12lts_2024011616strings_internal11BigUnsignedILi84EE8ToStringEv, symObjAddr: 0x17F4, symBinAddr: 0xBF60, symSize: 0x108 }
  - { offsetInCU: 0x7F8D, offset: 0x4CEB1, size: 0x8, addend: 0x0, symName: __ZN4absl12lts_2024011616strings_internal11BigUnsignedILi84EE6DivModILj10EEEjv, symObjAddr: 0x1904, symBinAddr: 0xC070, symSize: 0x84 }
  - { offsetInCU: 0x7FC2, offset: 0x4CEE6, size: 0x8, addend: 0x0, symName: __ZN4absl12lts_2024011616strings_internal11BigUnsignedILi84EE6DivModILj10EEEjv, symObjAddr: 0x1904, symBinAddr: 0xC070, symSize: 0x84 }
  - { offsetInCU: 0x7FEB, offset: 0x4CF0F, size: 0x8, addend: 0x0, symName: __ZNK4absl12lts_2024011616strings_internal11BigUnsignedILi84EE4sizeEv, symObjAddr: 0x18FC, symBinAddr: 0xC068, symSize: 0x8 }
  - { offsetInCU: 0x800E, offset: 0x4CF32, size: 0x8, addend: 0x0, symName: __ZNK4absl12lts_2024011616strings_internal11BigUnsignedILi84EE5wordsEv, symObjAddr: 0x1988, symBinAddr: 0xC0F4, symSize: 0x8 }
  - { offsetInCU: 0x8034, offset: 0x4CF58, size: 0x8, addend: 0x0, symName: __ZN4absl12lts_2024011616strings_internal11BigUnsignedILi84EE12AddWithCarryEij, symObjAddr: 0x1990, symBinAddr: 0xC0FC, symSize: 0x54 }
  - { offsetInCU: 0x80F9, offset: 0x4D01D, size: 0x8, addend: 0x0, symName: __ZN4absl12lts_2024011616strings_internal11BigUnsignedILi84EE12AddWithCarryEiy, symObjAddr: 0x1AA8, symBinAddr: 0xC214, symSize: 0xA8 }
  - { offsetInCU: 0x26, offset: 0x4D22C, size: 0x8, addend: 0x0, symName: __ZN4absl12lts_2024011616strings_internal10ParseFloatILi10EEENS1_11ParsedFloatEPKcS5_NS0_12chars_formatE, symObjAddr: 0x0, symBinAddr: 0xC2BC, symSize: 0x274 }
  - { offsetInCU: 0x91, offset: 0x4D297, size: 0x8, addend: 0x0, symName: __ZN4absl12lts_2024011612_GLOBAL__N_111kAsciiToIntE, symObjAddr: 0xB2D, symBinAddr: 0x6A300, symSize: 0x0 }
  - { offsetInCU: 0xF7, offset: 0x4D2FD, size: 0x8, addend: 0x0, symName: __ZN4absl12lts_2024011612_GLOBAL__N_118ParseInfinityOrNanEPKcS3_PNS0_16strings_internal11ParsedFloatE, symObjAddr: 0x274, symBinAddr: 0xC530, symSize: 0x174 }
  - { offsetInCU: 0x1BC, offset: 0x4D3C2, size: 0x8, addend: 0x0, symName: __ZN4absl12lts_2024011612_GLOBAL__N_113ConsumeDigitsILi10EyEEiPKcS4_iPT0_Pb, symObjAddr: 0x3E8, symBinAddr: 0xC6A4, symSize: 0x108 }
  - { offsetInCU: 0x2D0, offset: 0x4D4D6, size: 0x8, addend: 0x0, symName: __ZN4absl12lts_2024011612_GLOBAL__N_113ConsumeDigitsILi10EiEEiPKcS4_iPT0_Pb, symObjAddr: 0x4F0, symBinAddr: 0xC7AC, symSize: 0xD4 }
  - { offsetInCU: 0x2ED, offset: 0x4D4F3, size: 0x8, addend: 0x0, symName: __ZN4absl12lts_2024011612_GLOBAL__N_113ConsumeDigitsILi10EiEEiPKcS4_iPT0_Pb, symObjAddr: 0x4F0, symBinAddr: 0xC7AC, symSize: 0xD4 }
  - { offsetInCU: 0x3E3, offset: 0x4D5E9, size: 0x8, addend: 0x0, symName: __ZN4absl12lts_2024011616strings_internal10ParseFloatILi16EEENS1_11ParsedFloatEPKcS5_NS0_12chars_formatE, symObjAddr: 0x5C4, symBinAddr: 0xC880, symSize: 0x278 }
  - { offsetInCU: 0x490, offset: 0x4D696, size: 0x8, addend: 0x0, symName: __ZN4absl12lts_2024011612_GLOBAL__N_113ConsumeDigitsILi16EyEEiPKcS4_iPT0_Pb, symObjAddr: 0x83C, symBinAddr: 0xCAF8, symSize: 0x10C }
  - { offsetInCU: 0x593, offset: 0x4D799, size: 0x8, addend: 0x0, symName: __ZN4absl12lts_2024011612_GLOBAL__N_113ConsumeDigitsILi10EyEEiPKcS4_iPT0_Pb.cold.1, symObjAddr: 0x948, symBinAddr: 0x5C1F8, symSize: 0x28 }
  - { offsetInCU: 0x646, offset: 0x4D84C, size: 0x8, addend: 0x0, symName: __ZN4absl12lts_2024011616strings_internal10ParseFloatILi10EEENS1_11ParsedFloatEPKcS5_NS0_12chars_formatE, symObjAddr: 0x0, symBinAddr: 0xC2BC, symSize: 0x274 }
  - { offsetInCU: 0x8AC, offset: 0x4DAB2, size: 0x8, addend: 0x0, symName: __ZN4absl12lts_2024011616strings_internal10ParseFloatILi16EEENS1_11ParsedFloatEPKcS5_NS0_12chars_formatE, symObjAddr: 0x5C4, symBinAddr: 0xC880, symSize: 0x278 }
  - { offsetInCU: 0x3515, offset: 0x5071B, size: 0x8, addend: 0x0, symName: __ZN4absl12lts_2024011612_GLOBAL__N_113ConsumeDigitsILi10EyEEiPKcS4_iPT0_Pb.cold.2, symObjAddr: 0x970, symBinAddr: 0x5C220, symSize: 0x24 }
  - { offsetInCU: 0x352D, offset: 0x50733, size: 0x8, addend: 0x0, symName: __ZN4absl12lts_2024011612_GLOBAL__N_113ConsumeDigitsILi10EyEEiPKcS4_iPT0_Pb.cold.3, symObjAddr: 0x994, symBinAddr: 0x5C244, symSize: 0x28 }
  - { offsetInCU: 0x3545, offset: 0x5074B, size: 0x8, addend: 0x0, symName: __ZN4absl12lts_2024011612_GLOBAL__N_113ConsumeDigitsILi10EyEEiPKcS4_iPT0_Pb.cold.1, symObjAddr: 0x948, symBinAddr: 0x5C1F8, symSize: 0x28 }
  - { offsetInCU: 0x355D, offset: 0x50763, size: 0x8, addend: 0x0, symName: __ZN4absl12lts_2024011612_GLOBAL__N_113ConsumeDigitsILi10EiEEiPKcS4_iPT0_Pb.cold.1, symObjAddr: 0x9BC, symBinAddr: 0x5C26C, symSize: 0x24 }
  - { offsetInCU: 0x3575, offset: 0x5077B, size: 0x8, addend: 0x0, symName: __ZN4absl12lts_2024011612_GLOBAL__N_113ConsumeDigitsILi16EyEEiPKcS4_iPT0_Pb.cold.2, symObjAddr: 0xA08, symBinAddr: 0x5C2B8, symSize: 0x24 }
  - { offsetInCU: 0x358D, offset: 0x50793, size: 0x8, addend: 0x0, symName: __ZN4absl12lts_2024011612_GLOBAL__N_113ConsumeDigitsILi16EyEEiPKcS4_iPT0_Pb.cold.3, symObjAddr: 0xA2C, symBinAddr: 0x5C2DC, symSize: 0x28 }
  - { offsetInCU: 0x35A5, offset: 0x507AB, size: 0x8, addend: 0x0, symName: __ZN4absl12lts_2024011612_GLOBAL__N_113ConsumeDigitsILi16EyEEiPKcS4_iPT0_Pb.cold.1, symObjAddr: 0x9E0, symBinAddr: 0x5C290, symSize: 0x28 }
  - { offsetInCU: 0x35BD, offset: 0x507C3, size: 0x8, addend: 0x0, symName: _OUTLINED_FUNCTION_0, symObjAddr: 0xA54, symBinAddr: 0xCC04, symSize: 0x8 }
  - { offsetInCU: 0x26, offset: 0x50810, size: 0x8, addend: 0x0, symName: __ZN4absl12lts_2024011613hash_internal10CityHash32EPKcm, symObjAddr: 0x0, symBinAddr: 0xCC0C, symSize: 0x440 }
  - { offsetInCU: 0x22E, offset: 0x50A18, size: 0x8, addend: 0x0, symName: __ZN4absl12lts_2024011613hash_internal10CityHash32EPKcm, symObjAddr: 0x0, symBinAddr: 0xCC0C, symSize: 0x440 }
  - { offsetInCU: 0x1257, offset: 0x51A41, size: 0x8, addend: 0x0, symName: __ZN4absl12lts_2024011613hash_internal10CityHash64EPKcm, symObjAddr: 0x440, symBinAddr: 0xD04C, symSize: 0x3B8 }
  - { offsetInCU: 0x1F3F, offset: 0x52729, size: 0x8, addend: 0x0, symName: __ZN4absl12lts_2024011613hash_internal18CityHash64WithSeedEPKcmy, symObjAddr: 0x7F8, symBinAddr: 0xD404, symSize: 0x60 }
  - { offsetInCU: 0x205A, offset: 0x52844, size: 0x8, addend: 0x0, symName: __ZN4absl12lts_2024011613hash_internal19CityHash64WithSeedsEPKcmyy, symObjAddr: 0x858, symBinAddr: 0xD464, symSize: 0x54 }
  - { offsetInCU: 0xD5B, offset: 0x5619F, size: 0x8, addend: 0x0, symName: __ZN4absl12lts_2024011613time_internal4cctz6detail4impl5n_secExxxxxx, symObjAddr: 0x1DC8, symBinAddr: 0xF280, symSize: 0x28C }
  - { offsetInCU: 0xFD6, offset: 0x5641A, size: 0x8, addend: 0x0, symName: __ZN4absl12lts_2024011613time_internal4cctz6detail4impl6n_hourExxxxxaa, symObjAddr: 0x2060, symBinAddr: 0xF50C, symSize: 0x7C }
  - { offsetInCU: 0x10B7, offset: 0x564FB, size: 0x8, addend: 0x0, symName: __ZN4absl12lts_2024011613time_internal4cctz6detail4impl5n_dayExaxxaaa, symObjAddr: 0x20DC, symBinAddr: 0xF588, symSize: 0x394 }
  - { offsetInCU: 0x170A, offset: 0x56B4E, size: 0x8, addend: 0x0, symName: __ZN4absl12lts_2024011613time_internallsERNSt3__113basic_ostreamIcNS2_11char_traitsIcEEEENS1_4cctz6detail10civil_timeINS1_8year_tagEEE, symObjAddr: 0x1990, symBinAddr: 0xEE48, symSize: 0x98 }
  - { offsetInCU: 0x1A5A, offset: 0x56E9E, size: 0x8, addend: 0x0, symName: __ZN4absl12lts_2024011613time_internallsERNSt3__113basic_ostreamIcNS2_11char_traitsIcEEEENS1_4cctz6detail10civil_timeINS1_9month_tagEEE, symObjAddr: 0x1A28, symBinAddr: 0xEEE0, symSize: 0x98 }
  - { offsetInCU: 0x1DAA, offset: 0x571EE, size: 0x8, addend: 0x0, symName: __ZN4absl12lts_2024011613time_internallsERNSt3__113basic_ostreamIcNS2_11char_traitsIcEEEENS1_4cctz6detail10civil_timeINS1_7day_tagEEE, symObjAddr: 0x1AC0, symBinAddr: 0xEF78, symSize: 0x98 }
  - { offsetInCU: 0x20FA, offset: 0x5753E, size: 0x8, addend: 0x0, symName: __ZN4absl12lts_2024011613time_internallsERNSt3__113basic_ostreamIcNS2_11char_traitsIcEEEENS1_4cctz6detail10civil_timeINS1_8hour_tagEEE, symObjAddr: 0x1B58, symBinAddr: 0xF010, symSize: 0x98 }
  - { offsetInCU: 0x244A, offset: 0x5788E, size: 0x8, addend: 0x0, symName: __ZN4absl12lts_2024011613time_internallsERNSt3__113basic_ostreamIcNS2_11char_traitsIcEEEENS1_4cctz6detail10civil_timeINS1_10minute_tagEEE, symObjAddr: 0x1BF0, symBinAddr: 0xF0A8, symSize: 0x98 }
  - { offsetInCU: 0x279A, offset: 0x57BDE, size: 0x8, addend: 0x0, symName: __ZN4absl12lts_2024011613time_internallsERNSt3__113basic_ostreamIcNS2_11char_traitsIcEEEENS1_4cctz6detail10civil_timeINS1_10second_tagEEE, symObjAddr: 0x1C88, symBinAddr: 0xF140, symSize: 0x98 }
  - { offsetInCU: 0x2AEA, offset: 0x57F2E, size: 0x8, addend: 0x0, symName: __ZN4absl12lts_2024011613time_internal13AbslParseFlagENS0_11string_viewEPNS1_4cctz6detail10civil_timeINS1_10second_tagEEEPNSt3__112basic_stringIcNS9_11char_traitsIcEENS9_9allocatorIcEEEE, symObjAddr: 0x1D20, symBinAddr: 0xF1D8, symSize: 0x4 }
  - { offsetInCU: 0x2B2D, offset: 0x57F71, size: 0x8, addend: 0x0, symName: __ZN4absl12lts_2024011613time_internal13AbslParseFlagENS0_11string_viewEPNS1_4cctz6detail10civil_timeINS1_10second_tagEEEPNSt3__112basic_stringIcNS9_11char_traitsIcEENS9_9allocatorIcEEEE, symObjAddr: 0x1D20, symBinAddr: 0xF1D8, symSize: 0x4 }
  - { offsetInCU: 0x2B4D, offset: 0x57F91, size: 0x8, addend: 0x0, symName: __ZN4absl12lts_2024011613time_internal13AbslParseFlagENS0_11string_viewEPNS1_4cctz6detail10civil_timeINS1_10minute_tagEEEPNSt3__112basic_stringIcNS9_11char_traitsIcEENS9_9allocatorIcEEEE, symObjAddr: 0x1D24, symBinAddr: 0xF1DC, symSize: 0x4 }
  - { offsetInCU: 0x2B90, offset: 0x57FD4, size: 0x8, addend: 0x0, symName: __ZN4absl12lts_2024011613time_internal13AbslParseFlagENS0_11string_viewEPNS1_4cctz6detail10civil_timeINS1_10minute_tagEEEPNSt3__112basic_stringIcNS9_11char_traitsIcEENS9_9allocatorIcEEEE, symObjAddr: 0x1D24, symBinAddr: 0xF1DC, symSize: 0x4 }
  - { offsetInCU: 0x2BB0, offset: 0x57FF4, size: 0x8, addend: 0x0, symName: __ZN4absl12lts_2024011613time_internal13AbslParseFlagENS0_11string_viewEPNS1_4cctz6detail10civil_timeINS1_8hour_tagEEEPNSt3__112basic_stringIcNS9_11char_traitsIcEENS9_9allocatorIcEEEE, symObjAddr: 0x1D28, symBinAddr: 0xF1E0, symSize: 0x4 }
  - { offsetInCU: 0x2BF3, offset: 0x58037, size: 0x8, addend: 0x0, symName: __ZN4absl12lts_2024011613time_internal13AbslParseFlagENS0_11string_viewEPNS1_4cctz6detail10civil_timeINS1_8hour_tagEEEPNSt3__112basic_stringIcNS9_11char_traitsIcEENS9_9allocatorIcEEEE, symObjAddr: 0x1D28, symBinAddr: 0xF1E0, symSize: 0x4 }
  - { offsetInCU: 0x2C13, offset: 0x58057, size: 0x8, addend: 0x0, symName: __ZN4absl12lts_2024011613time_internal13AbslParseFlagENS0_11string_viewEPNS1_4cctz6detail10civil_timeINS1_7day_tagEEEPNSt3__112basic_stringIcNS9_11char_traitsIcEENS9_9allocatorIcEEEE, symObjAddr: 0x1D2C, symBinAddr: 0xF1E4, symSize: 0x4 }
  - { offsetInCU: 0x2C56, offset: 0x5809A, size: 0x8, addend: 0x0, symName: __ZN4absl12lts_2024011613time_internal13AbslParseFlagENS0_11string_viewEPNS1_4cctz6detail10civil_timeINS1_7day_tagEEEPNSt3__112basic_stringIcNS9_11char_traitsIcEENS9_9allocatorIcEEEE, symObjAddr: 0x1D2C, symBinAddr: 0xF1E4, symSize: 0x4 }
  - { offsetInCU: 0x2C76, offset: 0x580BA, size: 0x8, addend: 0x0, symName: __ZN4absl12lts_2024011613time_internal13AbslParseFlagENS0_11string_viewEPNS1_4cctz6detail10civil_timeINS1_9month_tagEEEPNSt3__112basic_stringIcNS9_11char_traitsIcEENS9_9allocatorIcEEEE, symObjAddr: 0x1D30, symBinAddr: 0xF1E8, symSize: 0x4 }
  - { offsetInCU: 0x2CB9, offset: 0x580FD, size: 0x8, addend: 0x0, symName: __ZN4absl12lts_2024011613time_internal13AbslParseFlagENS0_11string_viewEPNS1_4cctz6detail10civil_timeINS1_9month_tagEEEPNSt3__112basic_stringIcNS9_11char_traitsIcEENS9_9allocatorIcEEEE, symObjAddr: 0x1D30, symBinAddr: 0xF1E8, symSize: 0x4 }
  - { offsetInCU: 0x2CD9, offset: 0x5811D, size: 0x8, addend: 0x0, symName: __ZN4absl12lts_2024011613time_internal13AbslParseFlagENS0_11string_viewEPNS1_4cctz6detail10civil_timeINS1_8year_tagEEEPNSt3__112basic_stringIcNS9_11char_traitsIcEENS9_9allocatorIcEEEE, symObjAddr: 0x1D34, symBinAddr: 0xF1EC, symSize: 0x4 }
  - { offsetInCU: 0x2D1C, offset: 0x58160, size: 0x8, addend: 0x0, symName: __ZN4absl12lts_2024011613time_internal13AbslParseFlagENS0_11string_viewEPNS1_4cctz6detail10civil_timeINS1_8year_tagEEEPNSt3__112basic_stringIcNS9_11char_traitsIcEENS9_9allocatorIcEEEE, symObjAddr: 0x1D34, symBinAddr: 0xF1EC, symSize: 0x4 }
  - { offsetInCU: 0x2D3C, offset: 0x58180, size: 0x8, addend: 0x0, symName: __ZN4absl12lts_2024011613time_internal15AbslUnparseFlagENS1_4cctz6detail10civil_timeINS1_10second_tagEEE, symObjAddr: 0x1D38, symBinAddr: 0xF1F0, symSize: 0x18 }
  - { offsetInCU: 0x2DA1, offset: 0x581E5, size: 0x8, addend: 0x0, symName: __ZN4absl12lts_2024011613time_internal15AbslUnparseFlagENS1_4cctz6detail10civil_timeINS1_10minute_tagEEE, symObjAddr: 0x1D50, symBinAddr: 0xF208, symSize: 0x18 }
  - { offsetInCU: 0x2E06, offset: 0x5824A, size: 0x8, addend: 0x0, symName: __ZN4absl12lts_2024011613time_internal15AbslUnparseFlagENS1_4cctz6detail10civil_timeINS1_8hour_tagEEE, symObjAddr: 0x1D68, symBinAddr: 0xF220, symSize: 0x18 }
  - { offsetInCU: 0x2E6B, offset: 0x582AF, size: 0x8, addend: 0x0, symName: __ZN4absl12lts_2024011613time_internal15AbslUnparseFlagENS1_4cctz6detail10civil_timeINS1_7day_tagEEE, symObjAddr: 0x1D80, symBinAddr: 0xF238, symSize: 0x18 }
  - { offsetInCU: 0x2ED0, offset: 0x58314, size: 0x8, addend: 0x0, symName: __ZN4absl12lts_2024011613time_internal15AbslUnparseFlagENS1_4cctz6detail10civil_timeINS1_9month_tagEEE, symObjAddr: 0x1D98, symBinAddr: 0xF250, symSize: 0x18 }
  - { offsetInCU: 0x2F35, offset: 0x58379, size: 0x8, addend: 0x0, symName: __ZN4absl12lts_2024011613time_internal15AbslUnparseFlagENS1_4cctz6detail10civil_timeINS1_8year_tagEEE, symObjAddr: 0x1DB0, symBinAddr: 0xF268, symSize: 0x18 }
  - { offsetInCU: 0x3966, offset: 0x58DAA, size: 0x8, addend: 0x0, symName: __ZN4absl12lts_2024011615FormatCivilTimeENS0_13time_internal4cctz6detail10civil_timeINS1_10second_tagEEE, symObjAddr: 0x0, symBinAddr: 0xD4B8, symSize: 0x18 }
  - { offsetInCU: 0x39A9, offset: 0x58DED, size: 0x8, addend: 0x0, symName: __ZN4absl12lts_2024011612_GLOBAL__N_113FormatYearAndENS0_11string_viewENS0_13time_internal4cctz6detail10civil_timeINS3_10second_tagEEE, symObjAddr: 0x18, symBinAddr: 0xD4D0, symSize: 0x198 }
  - { offsetInCU: 0x4F34, offset: 0x5A378, size: 0x8, addend: 0x0, symName: __ZN4absl12lts_2024011615FormatCivilTimeENS0_13time_internal4cctz6detail10civil_timeINS1_10minute_tagEEE, symObjAddr: 0x1B0, symBinAddr: 0xD668, symSize: 0x18 }
  - { offsetInCU: 0x4F76, offset: 0x5A3BA, size: 0x8, addend: 0x0, symName: __ZN4absl12lts_2024011615FormatCivilTimeENS0_13time_internal4cctz6detail10civil_timeINS1_8hour_tagEEE, symObjAddr: 0x1C8, symBinAddr: 0xD680, symSize: 0x18 }
  - { offsetInCU: 0x4FB8, offset: 0x5A3FC, size: 0x8, addend: 0x0, symName: __ZN4absl12lts_2024011615FormatCivilTimeENS0_13time_internal4cctz6detail10civil_timeINS1_7day_tagEEE, symObjAddr: 0x1E0, symBinAddr: 0xD698, symSize: 0x18 }
  - { offsetInCU: 0x4FFA, offset: 0x5A43E, size: 0x8, addend: 0x0, symName: __ZN4absl12lts_2024011615FormatCivilTimeENS0_13time_internal4cctz6detail10civil_timeINS1_9month_tagEEE, symObjAddr: 0x1F8, symBinAddr: 0xD6B0, symSize: 0x18 }
  - { offsetInCU: 0x503C, offset: 0x5A480, size: 0x8, addend: 0x0, symName: __ZN4absl12lts_2024011615FormatCivilTimeENS0_13time_internal4cctz6detail10civil_timeINS1_8year_tagEEE, symObjAddr: 0x210, symBinAddr: 0xD6C8, symSize: 0x18 }
  - { offsetInCU: 0x50C6, offset: 0x5A50A, size: 0x8, addend: 0x0, symName: __ZN4absl12lts_2024011614ParseCivilTimeENS0_11string_viewEPNS0_13time_internal4cctz6detail10civil_timeINS2_10second_tagEEE, symObjAddr: 0x228, symBinAddr: 0xD6E0, symSize: 0x2A4 }
  - { offsetInCU: 0x5E52, offset: 0x5B296, size: 0x8, addend: 0x0, symName: __ZN4absl12lts_2024011614ParseCivilTimeENS0_11string_viewEPNS0_13time_internal4cctz6detail10civil_timeINS2_10minute_tagEEE, symObjAddr: 0x4CC, symBinAddr: 0xD984, symSize: 0x2A8 }
  - { offsetInCU: 0x6C09, offset: 0x5C04D, size: 0x8, addend: 0x0, symName: __ZN4absl12lts_2024011614ParseCivilTimeENS0_11string_viewEPNS0_13time_internal4cctz6detail10civil_timeINS2_8hour_tagEEE, symObjAddr: 0x774, symBinAddr: 0xDC2C, symSize: 0x2A8 }
  - { offsetInCU: 0x79C0, offset: 0x5CE04, size: 0x8, addend: 0x0, symName: __ZN4absl12lts_2024011614ParseCivilTimeENS0_11string_viewEPNS0_13time_internal4cctz6detail10civil_timeINS2_7day_tagEEE, symObjAddr: 0xA1C, symBinAddr: 0xDED4, symSize: 0x2A8 }
  - { offsetInCU: 0x8777, offset: 0x5DBBB, size: 0x8, addend: 0x0, symName: __ZN4absl12lts_2024011614ParseCivilTimeENS0_11string_viewEPNS0_13time_internal4cctz6detail10civil_timeINS2_9month_tagEEE, symObjAddr: 0xCC4, symBinAddr: 0xE17C, symSize: 0x2AC }
  - { offsetInCU: 0x952E, offset: 0x5E972, size: 0x8, addend: 0x0, symName: __ZN4absl12lts_2024011614ParseCivilTimeENS0_11string_viewEPNS0_13time_internal4cctz6detail10civil_timeINS2_8year_tagEEE, symObjAddr: 0xF70, symBinAddr: 0xE428, symSize: 0x2A4 }
  - { offsetInCU: 0xA29A, offset: 0x5F6DE, size: 0x8, addend: 0x0, symName: __ZN4absl12lts_2024011621ParseLenientCivilTimeENS0_11string_viewEPNS0_13time_internal4cctz6detail10civil_timeINS2_10second_tagEEE, symObjAddr: 0x1214, symBinAddr: 0xE6CC, symSize: 0x138 }
  - { offsetInCU: 0xA92E, offset: 0x5FD72, size: 0x8, addend: 0x0, symName: __ZN4absl12lts_2024011621ParseLenientCivilTimeENS0_11string_viewEPNS0_13time_internal4cctz6detail10civil_timeINS2_10minute_tagEEE, symObjAddr: 0x134C, symBinAddr: 0xE804, symSize: 0x14C }
  - { offsetInCU: 0xAFC2, offset: 0x60406, size: 0x8, addend: 0x0, symName: __ZN4absl12lts_2024011621ParseLenientCivilTimeENS0_11string_viewEPNS0_13time_internal4cctz6detail10civil_timeINS2_8hour_tagEEE, symObjAddr: 0x1498, symBinAddr: 0xE950, symSize: 0x14C }
  - { offsetInCU: 0xB6A1, offset: 0x60AE5, size: 0x8, addend: 0x0, symName: __ZN4absl12lts_2024011621ParseLenientCivilTimeENS0_11string_viewEPNS0_13time_internal4cctz6detail10civil_timeINS2_7day_tagEEE, symObjAddr: 0x15E4, symBinAddr: 0xEA9C, symSize: 0x14C }
  - { offsetInCU: 0xBD35, offset: 0x61179, size: 0x8, addend: 0x0, symName: __ZN4absl12lts_2024011621ParseLenientCivilTimeENS0_11string_viewEPNS0_13time_internal4cctz6detail10civil_timeINS2_9month_tagEEE, symObjAddr: 0x1730, symBinAddr: 0xEBE8, symSize: 0x154 }
  - { offsetInCU: 0xC414, offset: 0x61858, size: 0x8, addend: 0x0, symName: __ZN4absl12lts_2024011621ParseLenientCivilTimeENS0_11string_viewEPNS0_13time_internal4cctz6detail10civil_timeINS2_8year_tagEEE, symObjAddr: 0x1884, symBinAddr: 0xED3C, symSize: 0x10C }
  - { offsetInCU: 0x12ACA, offset: 0x67F0E, size: 0x8, addend: 0x0, symName: __ZN4absl12lts_202401168AlphaNumC2Ex, symObjAddr: 0x2470, symBinAddr: 0xF91C, symSize: 0x44 }
  - { offsetInCU: 0x12E3D, offset: 0x68281, size: 0x8, addend: 0x0, symName: __ZNSt3__112basic_stringIcNS_11char_traitsIcEENS_9allocatorIcEEEC2B7v160006EPKcm, symObjAddr: 0x2874, symBinAddr: 0xF960, symSize: 0x94 }
  - { offsetInCU: 0x1317A, offset: 0x685BE, size: 0x8, addend: 0x0, symName: __ZN4absl12lts_202401168AlphaNumC2Ex.cold.1, symObjAddr: 0x2908, symBinAddr: 0x5C304, symSize: 0x28 }
  - { offsetInCU: 0x138BA, offset: 0x68CFE, size: 0x8, addend: 0x0, symName: __ZN4absl12lts_202401168AlphaNumC2Ex.cold.1, symObjAddr: 0x2908, symBinAddr: 0x5C304, symSize: 0x28 }
  - { offsetInCU: 0x3E59, offset: 0x6D1F4, size: 0x8, addend: 0x0, symName: __ZNSt3__1lsB7v160006INS_11char_traitsIcEEEERNS_13basic_ostreamIcT_EES6_RKNS_8__iom_t4IcEE, symObjAddr: 0x43C, symBinAddr: 0xFE30, symSize: 0xA0 }
  - { offsetInCU: 0x50D8, offset: 0x6E473, size: 0x8, addend: 0x0, symName: __ZN4absl12lts_2024011613time_internal4cctz6detaillsERNSt3__113basic_ostreamIcNS4_11char_traitsIcEEEERKNS3_10civil_timeINS3_8year_tagEEE, symObjAddr: 0x0, symBinAddr: 0xF9F4, symSize: 0x130 }
  - { offsetInCU: 0x55D4, offset: 0x6E96F, size: 0x8, addend: 0x0, symName: __ZN4absl12lts_2024011613time_internal4cctz6detaillsERNSt3__113basic_ostreamIcNS4_11char_traitsIcEEEERKNS3_10civil_timeINS3_9month_tagEEE, symObjAddr: 0x2AC, symBinAddr: 0xFCA0, symSize: 0x190 }
  - { offsetInCU: 0x5C30, offset: 0x6EFCB, size: 0x8, addend: 0x0, symName: __ZN4absl12lts_2024011613time_internal4cctz6detaillsERNSt3__113basic_ostreamIcNS4_11char_traitsIcEEEERKNS3_10civil_timeINS3_7day_tagEEE, symObjAddr: 0x4DC, symBinAddr: 0xFED0, symSize: 0x194 }
  - { offsetInCU: 0x6284, offset: 0x6F61F, size: 0x8, addend: 0x0, symName: __ZN4absl12lts_2024011613time_internal4cctz6detaillsERNSt3__113basic_ostreamIcNS4_11char_traitsIcEEEERKNS3_10civil_timeINS3_8hour_tagEEE, symObjAddr: 0x670, symBinAddr: 0x10064, symSize: 0x190 }
  - { offsetInCU: 0x68E0, offset: 0x6FC7B, size: 0x8, addend: 0x0, symName: __ZN4absl12lts_2024011613time_internal4cctz6detaillsERNSt3__113basic_ostreamIcNS4_11char_traitsIcEEEERKNS3_10civil_timeINS3_10minute_tagEEE, symObjAddr: 0x800, symBinAddr: 0x101F4, symSize: 0x190 }
  - { offsetInCU: 0x6F34, offset: 0x702CF, size: 0x8, addend: 0x0, symName: __ZN4absl12lts_2024011613time_internal4cctz6detaillsERNSt3__113basic_ostreamIcNS4_11char_traitsIcEEEERKNS3_10civil_timeINS3_10second_tagEEE, symObjAddr: 0x990, symBinAddr: 0x10384, symSize: 0x190 }
  - { offsetInCU: 0x756A, offset: 0x70905, size: 0x8, addend: 0x0, symName: __ZN4absl12lts_2024011613time_internal4cctz6detaillsERNSt3__113basic_ostreamIcNS4_11char_traitsIcEEEENS3_7weekdayE, symObjAddr: 0xB20, symBinAddr: 0x10514, symSize: 0x8C }
  - { offsetInCU: 0x9906, offset: 0x72CA1, size: 0x8, addend: 0x0, symName: __ZNSt3__118basic_stringstreamIcNS_11char_traitsIcEENS_9allocatorIcEEEC1B7v160006Ev, symObjAddr: 0x130, symBinAddr: 0xFB24, symSize: 0xE8 }
  - { offsetInCU: 0x9AA7, offset: 0x72E42, size: 0x8, addend: 0x0, symName: __ZNSt3__118basic_stringstreamIcNS_11char_traitsIcEENS_9allocatorIcEEED1Ev, symObjAddr: 0x218, symBinAddr: 0xFC0C, symSize: 0x94 }
  - { offsetInCU: 0xA137, offset: 0x734D2, size: 0x8, addend: 0x0, symName: __ZThn16_NSt3__118basic_stringstreamIcNS_11char_traitsIcEENS_9allocatorIcEEED1Ev, symObjAddr: 0xBAC, symBinAddr: 0x105A0, symSize: 0x8C }
  - { offsetInCU: 0xA2DD, offset: 0x73678, size: 0x8, addend: 0x0, symName: __ZTv0_n24_NSt3__118basic_stringstreamIcNS_11char_traitsIcEENS_9allocatorIcEEED1Ev, symObjAddr: 0xC38, symBinAddr: 0x1062C, symSize: 0x94 }
  - { offsetInCU: 0xA481, offset: 0x7381C, size: 0x8, addend: 0x0, symName: __ZNSt3__118basic_stringstreamIcNS_11char_traitsIcEENS_9allocatorIcEEED0Ev, symObjAddr: 0xCCC, symBinAddr: 0x106C0, symSize: 0x94 }
  - { offsetInCU: 0xA64A, offset: 0x739E5, size: 0x8, addend: 0x0, symName: __ZThn16_NSt3__118basic_stringstreamIcNS_11char_traitsIcEENS_9allocatorIcEEED0Ev, symObjAddr: 0xD60, symBinAddr: 0x10754, symSize: 0x94 }
  - { offsetInCU: 0xA80E, offset: 0x73BA9, size: 0x8, addend: 0x0, symName: __ZTv0_n24_NSt3__118basic_stringstreamIcNS_11char_traitsIcEENS_9allocatorIcEEED0Ev, symObjAddr: 0xDF4, symBinAddr: 0x107E8, symSize: 0x9C }
  - { offsetInCU: 0x26, offset: 0x7454A, size: 0x8, addend: 0x0, symName: __ZN4absl12lts_202401163NowEv, symObjAddr: 0x0, symBinAddr: 0x10884, symSize: 0x84 }
  - { offsetInCU: 0x1C8, offset: 0x746EC, size: 0x8, addend: 0x0, symName: __ZN4absl12lts_202401163NowEv, symObjAddr: 0x0, symBinAddr: 0x10884, symSize: 0x84 }
  - { offsetInCU: 0x2D7, offset: 0x747FB, size: 0x8, addend: 0x0, symName: __ZN4absl12lts_2024011619GetCurrentTimeNanosEv, symObjAddr: 0x84, symBinAddr: 0x10908, symSize: 0x34 }
  - { offsetInCU: 0x308A, offset: 0x775AE, size: 0x8, addend: 0x0, symName: _AbslInternalSleepFor_lts_20240116, symObjAddr: 0xB8, symBinAddr: 0x1093C, symSize: 0xB4 }
  - { offsetInCU: 0x26, offset: 0x7772A, size: 0x8, addend: 0x0, symName: __ZNK4absl12lts_2024011615CommandLineFlag9IsRetiredEv, symObjAddr: 0x0, symBinAddr: 0x109F0, symSize: 0x8 }
  - { offsetInCU: 0x4361, offset: 0x7BA65, size: 0x8, addend: 0x0, symName: __ZNK4absl12lts_2024011615CommandLineFlag9IsRetiredEv, symObjAddr: 0x0, symBinAddr: 0x109F0, symSize: 0x8 }
  - { offsetInCU: 0x4386, offset: 0x7BA8A, size: 0x8, addend: 0x0, symName: __ZN4absl12lts_2024011615CommandLineFlag9ParseFromENS0_11string_viewEPNSt3__112basic_stringIcNS3_11char_traitsIcEENS3_9allocatorIcEEEE, symObjAddr: 0x8, symBinAddr: 0x109F8, symSize: 0x18 }
  - { offsetInCU: 0x26, offset: 0x7BB2E, size: 0x8, addend: 0x0, symName: __ZN4absl12lts_2024011614flags_internal18FlagStateInterfaceD2Ev, symObjAddr: 0x0, symBinAddr: 0x10A10, symSize: 0x4 }
  - { offsetInCU: 0xF9, offset: 0x7BC01, size: 0x8, addend: 0x0, symName: __ZN4absl12lts_2024011614flags_internal18FlagStateInterfaceD2Ev, symObjAddr: 0x0, symBinAddr: 0x10A10, symSize: 0x4 }
  - { offsetInCU: 0x124, offset: 0x7BC2C, size: 0x8, addend: 0x0, symName: __ZN4absl12lts_2024011614flags_internal18FlagStateInterfaceD1Ev, symObjAddr: 0x4, symBinAddr: 0x10A14, symSize: 0x4 }
  - { offsetInCU: 0x14D, offset: 0x7BC55, size: 0x8, addend: 0x0, symName: __ZN4absl12lts_2024011614flags_internal18FlagStateInterfaceD0Ev, symObjAddr: 0x8, symBinAddr: 0x10A18, symSize: 0x4 }
  - { offsetInCU: 0x57, offset: 0x7BCDA, size: 0x8, addend: 0x0, symName: __ZN4absl12lts_202401164Cord9InlineRep10kMaxInlineE, symObjAddr: 0xDCC8, symBinAddr: 0x6A4E9, symSize: 0x0 }
  - { offsetInCU: 0x2F57, offset: 0x7EBDA, size: 0x8, addend: 0x0, symName: __ZN4absl12lts_2024011613cord_internal25InitializeCordRepExternalENS0_11string_viewEPNS1_15CordRepExternalE, symObjAddr: 0x340, symBinAddr: 0x10D5C, symSize: 0x2C }
  - { offsetInCU: 0x2FA0, offset: 0x7EC23, size: 0x8, addend: 0x0, symName: __ZN4absl12lts_20240116L10VerifyTreeEPNS0_13cord_internal7CordRepE, symObjAddr: 0x36C, symBinAddr: 0x10D88, symSize: 0x824 }
  - { offsetInCU: 0x3252, offset: 0x7EED5, size: 0x8, addend: 0x0, symName: __ZN4absl12lts_2024011613cord_internal8EdgeDataEPKNS1_7CordRepE, symObjAddr: 0x88AC, symBinAddr: 0x1851C, symSize: 0x90 }
  - { offsetInCU: 0x336C, offset: 0x7EFEF, size: 0x8, addend: 0x0, symName: __ZN4absl12lts_2024011613cord_internal21CordRepBtreeNavigator4InitILNS1_12CordRepBtree8EdgeTypeE0EEEPNS1_7CordRepEPS4_, symObjAddr: 0x893C, symBinAddr: 0x185AC, symSize: 0xE0 }
  - { offsetInCU: 0x7665, offset: 0x832E8, size: 0x8, addend: 0x0, symName: __ZN4absl12lts_20240116L17CordRepFromStringEONSt3__112basic_stringIcNS1_11char_traitsIcEENS1_9allocatorIcEEEE, symObjAddr: 0x6C, symBinAddr: 0x10A88, symSize: 0x168 }
  - { offsetInCU: 0x7D7B, offset: 0x839FE, size: 0x8, addend: 0x0, symName: __ZN4absl12lts_20240116L7NewTreeEPKcmm, symObjAddr: 0x1420, symBinAddr: 0x11E3C, symSize: 0x100 }
  - { offsetInCU: 0x814A, offset: 0x83DCD, size: 0x8, addend: 0x0, symName: __ZN4absl12lts_202401164CordC1ENS0_11string_viewENS0_13cord_internal18CordzUpdateTracker16MethodIdentifierE, symObjAddr: 0x1520, symBinAddr: 0x11F3C, symSize: 0x4 }
  - { offsetInCU: 0x8155, offset: 0x83DD8, size: 0x8, addend: 0x0, symName: __ZN4absl12lts_20240116L10VerifyTreeEPNS0_13cord_internal7CordRepE, symObjAddr: 0x36C, symBinAddr: 0x10D88, symSize: 0x824 }
  - { offsetInCU: 0xAB03, offset: 0x86786, size: 0x8, addend: 0x0, symName: __ZN4absl12lts_20240116L11ReportErrorEPNS0_13cord_internal7CordRepES3_, symObjAddr: 0x6A34, symBinAddr: 0x17400, symSize: 0x770 }
  - { offsetInCU: 0xC9F9, offset: 0x8867C, size: 0x8, addend: 0x0, symName: __ZN4absl12lts_20240116L10ForceBtreeEPNS0_13cord_internal7CordRepE, symObjAddr: 0xE3C, symBinAddr: 0x11858, symSize: 0x118 }
  - { offsetInCU: 0xCE32, offset: 0x88AB5, size: 0x8, addend: 0x0, symName: __ZN4absl12lts_202401164Cord9InlineRep20PrependTreeToInlinedEPNS0_13cord_internal7CordRepENS3_18CordzUpdateTracker16MethodIdentifierE, symObjAddr: 0xF54, symBinAddr: 0x11970, symSize: 0x11C }
  - { offsetInCU: 0xD0A1, offset: 0x88D24, size: 0x8, addend: 0x0, symName: __ZN4absl12lts_2024011614GenericCompareIbNS0_11string_viewEEET_RKNS0_4CordERKT0_m, symObjAddr: 0x4784, symBinAddr: 0x151A0, symSize: 0xB8 }
  - { offsetInCU: 0xD2D9, offset: 0x88F5C, size: 0x8, addend: 0x0, symName: __ZNK4absl12lts_202401164Cord10EqualsImplERKS1_m, symObjAddr: 0x483C, symBinAddr: 0x15258, symSize: 0x4 }
  - { offsetInCU: 0xD2F6, offset: 0x88F79, size: 0x8, addend: 0x0, symName: __ZN4absl12lts_2024011614GenericCompareIbNS0_4CordEEET_RKS2_RKT0_m, symObjAddr: 0x4840, symBinAddr: 0x1525C, symSize: 0xEC }
  - { offsetInCU: 0xD6A3, offset: 0x89326, size: 0x8, addend: 0x0, symName: __ZNK4absl12lts_202401164Cord7CompareENS0_11string_viewE, symObjAddr: 0x492C, symBinAddr: 0x15348, symSize: 0x6C }
  - { offsetInCU: 0xD725, offset: 0x893A8, size: 0x8, addend: 0x0, symName: __ZN4absl12lts_2024011614GenericCompareIiNS0_11string_viewEEET_RKNS0_4CordERKT0_m, symObjAddr: 0xABB8, symBinAddr: 0x1A78C, symSize: 0xBC }
  - { offsetInCU: 0xD95D, offset: 0x895E0, size: 0x8, addend: 0x0, symName: __ZN4absl12lts_2024011614GenericCompareIiNS0_4CordEEET_RKS2_RKT0_m, symObjAddr: 0xAC74, symBinAddr: 0x1A848, symSize: 0xF0 }
  - { offsetInCU: 0xD9DF, offset: 0x89662, size: 0x8, addend: 0x0, symName: __ZN4absl12lts_2024011614GenericCompareIiNS0_4CordEEET_RKS2_RKT0_m, symObjAddr: 0xAC74, symBinAddr: 0x1A848, symSize: 0xF0 }
  - { offsetInCU: 0xDD8C, offset: 0x89A0F, size: 0x8, addend: 0x0, symName: '__ZN4absl12lts_2024011613cord_internal19CordRepExternalImplIZNS0_4Cord15FlattenSlowPathEvE3$_2E7ReleaseEPNS1_15CordRepExternalE', symObjAddr: 0xAD64, symBinAddr: 0x1A938, symSize: 0x68 }
  - { offsetInCU: 0xDDA9, offset: 0x89A2C, size: 0x8, addend: 0x0, symName: __ZN4absl12lts_2024011616CopyCordToStringERKNS0_4CordEPNSt3__112basic_stringIcNS4_11char_traitsIcEENS4_9allocatorIcEEEE, symObjAddr: 0x4CC4, symBinAddr: 0x156E0, symSize: 0x60 }
  - { offsetInCU: 0xE103, offset: 0x89D86, size: 0x8, addend: 0x0, symName: __ZN4absl12lts_2024011612_GLOBAL__N_117IsSubcordInCordAtENS0_4Cord12CharIteratorES3_S3_, symObjAddr: 0x60EC, symBinAddr: 0x16AC4, symSize: 0x1B0 }
  - { offsetInCU: 0xE506, offset: 0x8A189, size: 0x8, addend: 0x0, symName: __ZNK4absl12lts_202401164Cord8ContainsENS0_11string_viewE, symObjAddr: 0x629C, symBinAddr: 0x16C74, symSize: 0x64 }
  - { offsetInCU: 0xE511, offset: 0x8A194, size: 0x8, addend: 0x0, symName: __ZN4absl12lts_2024011612_GLOBAL__N_113CompareChunksEPNS0_11string_viewES3_Pm, symObjAddr: 0xA8F4, symBinAddr: 0x1A4C8, symSize: 0x98 }
  - { offsetInCU: 0xE668, offset: 0x8A2EB, size: 0x8, addend: 0x0, symName: __ZNK4absl12lts_202401164Cord15CompareSlowPathERKS1_mm, symObjAddr: 0xA98C, symBinAddr: 0x1A560, symSize: 0x22C }
  - { offsetInCU: 0xE78E, offset: 0x8A411, size: 0x8, addend: 0x0, symName: __ZN4absl12lts_20240116lsERNSt3__113basic_ostreamIcNS1_11char_traitsIcEEEERKNS0_4CordE, symObjAddr: 0x66D0, symBinAddr: 0x170A8, symSize: 0xE8 }
  - { offsetInCU: 0x1A2D2, offset: 0x95F55, size: 0x8, addend: 0x0, symName: __ZNSt3__119__allocate_at_leastB7v160006INS_9allocatorIPN4absl12lts_2024011612crc_internal12CrcCordState9PrefixCrcEEEEENS_19__allocation_resultINS_16allocator_traitsIT_E7pointerEEERSB_m, symObjAddr: 0x9DC0, symBinAddr: 0x19A30, symSize: 0x34 }
  - { offsetInCU: 0x1A37C, offset: 0x95FFF, size: 0x8, addend: 0x0, symName: __ZNSt3__15dequeIN4absl12lts_2024011612crc_internal12CrcCordState9PrefixCrcENS_9allocatorIS5_EEE25__maybe_remove_back_spareB7v160006Eb, symObjAddr: 0x9DF4, symBinAddr: 0x19A64, symSize: 0x74 }
  - { offsetInCU: 0x1B83B, offset: 0x974BE, size: 0x8, addend: 0x0, symName: __ZN4absl12lts_202401164Cord15FlattenSlowPathEv, symObjAddr: 0x637C, symBinAddr: 0x16D54, symSize: 0x1FC }
  - { offsetInCU: 0x1E04B, offset: 0x99CCE, size: 0x8, addend: 0x0, symName: __ZN4absl12lts_202401164CordC2INSt3__112basic_stringIcNS3_11char_traitsIcEENS3_9allocatorIcEEEELi0EEEOT_, symObjAddr: 0x0, symBinAddr: 0x10A1C, symSize: 0x6C }
  - { offsetInCU: 0x1E200, offset: 0x99E83, size: 0x8, addend: 0x0, symName: __ZN4absl12lts_20240116L17CordRepFromStringEONSt3__112basic_stringIcNS1_11char_traitsIcEENS1_9allocatorIcEEEE, symObjAddr: 0x6C, symBinAddr: 0x10A88, symSize: 0x168 }
  - { offsetInCU: 0x1E21A, offset: 0x99E9D, size: 0x8, addend: 0x0, symName: __ZN4absl12lts_2024011613cord_internal10InlineData15set_inline_dataEPKcm, symObjAddr: 0x81D0, symBinAddr: 0x17E40, symSize: 0xA8 }
  - { offsetInCU: 0x1E320, offset: 0x99FA3, size: 0x8, addend: 0x0, symName: __ZN4absl12lts_2024011613cord_internal16CordzUpdateScopeD2Ev, symObjAddr: 0x8278, symBinAddr: 0x17EE8, symSize: 0x34 }
  - { offsetInCU: 0x1E32B, offset: 0x99FAE, size: 0x8, addend: 0x0, symName: __ZN4absl12lts_202401164CordC2INSt3__112basic_stringIcNS3_11char_traitsIcEENS3_9allocatorIcEEEELi0EEEOT_.cold.1, symObjAddr: 0xADCC, symBinAddr: 0x5C32C, symSize: 0x24 }
  - { offsetInCU: 0x1E80B, offset: 0x9A48E, size: 0x8, addend: 0x0, symName: __ZN4absl12lts_20240116L17CordRepFromStringEONSt3__112basic_stringIcNS1_11char_traitsIcEENS1_9allocatorIcEEEE.cold.1, symObjAddr: 0xADF0, symBinAddr: 0x5C350, symSize: 0x28 }
  - { offsetInCU: 0x1E834, offset: 0x9A4B7, size: 0x8, addend: 0x0, symName: __ZN4absl12lts_202401164CordC1INSt3__112basic_stringIcNS3_11char_traitsIcEENS3_9allocatorIcEEEELi0EEEOT_, symObjAddr: 0x1D4, symBinAddr: 0x10BF0, symSize: 0x4 }
  - { offsetInCU: 0x1E870, offset: 0x9A4F3, size: 0x8, addend: 0x0, symName: __ZN4absl12lts_202401164CordC1INSt3__112basic_stringIcNS3_11char_traitsIcEENS3_9allocatorIcEEEELi0EEEOT_, symObjAddr: 0x1D4, symBinAddr: 0x10BF0, symSize: 0x4 }
  - { offsetInCU: 0x1E8C1, offset: 0x9A544, size: 0x8, addend: 0x0, symName: __ZN4absl12lts_202401164Cord6AppendINSt3__112basic_stringIcNS3_11char_traitsIcEENS3_9allocatorIcEEEELi0EEEvOT_, symObjAddr: 0x1D8, symBinAddr: 0x10BF4, symSize: 0x70 }
  - { offsetInCU: 0x1EA1C, offset: 0x9A69F, size: 0x8, addend: 0x0, symName: __ZN4absl12lts_202401164Cord9InlineRep10AppendTreeEPNS0_13cord_internal7CordRepENS3_18CordzUpdateTracker16MethodIdentifierE, symObjAddr: 0x248, symBinAddr: 0x10C64, symSize: 0x44 }
  - { offsetInCU: 0x1EAEE, offset: 0x9A771, size: 0x8, addend: 0x0, symName: __ZN4absl12lts_202401164Cord7PrependINSt3__112basic_stringIcNS3_11char_traitsIcEENS3_9allocatorIcEEEELi0EEEvOT_, symObjAddr: 0x28C, symBinAddr: 0x10CA8, symSize: 0x70 }
  - { offsetInCU: 0x1EAF9, offset: 0x9A77C, size: 0x8, addend: 0x0, symName: __ZN4absl12lts_202401164Cord9InlineRep11AppendArrayENS0_11string_viewENS0_13cord_internal18CordzUpdateTracker16MethodIdentifierE, symObjAddr: 0x1A60, symBinAddr: 0x1247C, symSize: 0x598 }
  - { offsetInCU: 0x1F8CC, offset: 0x9B54F, size: 0x8, addend: 0x0, symName: __ZN4absl12lts_202401164Cord9InlineRep19AppendTreeToInlinedEPNS0_13cord_internal7CordRepENS3_18CordzUpdateTracker16MethodIdentifierE, symObjAddr: 0xB90, symBinAddr: 0x115AC, symSize: 0x11C }
  - { offsetInCU: 0x1FD63, offset: 0x9B9E6, size: 0x8, addend: 0x0, symName: __ZN4absl12lts_202401164Cord9InlineRep16AppendTreeToTreeEPNS0_13cord_internal7CordRepENS3_18CordzUpdateTracker16MethodIdentifierE, symObjAddr: 0xCAC, symBinAddr: 0x116C8, symSize: 0x164 }
  - { offsetInCU: 0x1FD6E, offset: 0x9B9F1, size: 0x8, addend: 0x0, symName: __ZN4absl12lts_202401164Cord9InlineRep16AppendTreeToTreeEPNS0_13cord_internal7CordRepENS3_18CordzUpdateTracker16MethodIdentifierE, symObjAddr: 0xCAC, symBinAddr: 0x116C8, symSize: 0x164 }
  - { offsetInCU: 0x200B6, offset: 0x9BD39, size: 0x8, addend: 0x0, symName: __ZN4absl12lts_202401164Cord9InlineRep10AppendTreeEPNS0_13cord_internal7CordRepENS3_18CordzUpdateTracker16MethodIdentifierE.cold.1, symObjAddr: 0xAE18, symBinAddr: 0x5C378, symSize: 0x28 }
  - { offsetInCU: 0x200CE, offset: 0x9BD51, size: 0x8, addend: 0x0, symName: __ZN4absl12lts_202401164Cord9InlineRep10AppendTreeEPNS0_13cord_internal7CordRepENS3_18CordzUpdateTracker16MethodIdentifierE.cold.2, symObjAddr: 0xAE40, symBinAddr: 0x5C3A0, symSize: 0x28 }
  - { offsetInCU: 0x200E6, offset: 0x9BD69, size: 0x8, addend: 0x0, symName: __ZN4absl12lts_202401164Cord9InlineRep10AppendTreeEPNS0_13cord_internal7CordRepENS3_18CordzUpdateTracker16MethodIdentifierE.cold.3, symObjAddr: 0xAE68, symBinAddr: 0x5C3C8, symSize: 0x28 }
  - { offsetInCU: 0x20122, offset: 0x9BDA5, size: 0x8, addend: 0x0, symName: __ZN4absl12lts_202401164Cord7PrependINSt3__112basic_stringIcNS3_11char_traitsIcEENS3_9allocatorIcEEEELi0EEEvOT_, symObjAddr: 0x28C, symBinAddr: 0x10CA8, symSize: 0x70 }
  - { offsetInCU: 0x2027D, offset: 0x9BF00, size: 0x8, addend: 0x0, symName: __ZN4absl12lts_202401164Cord9InlineRep11PrependTreeEPNS0_13cord_internal7CordRepENS3_18CordzUpdateTracker16MethodIdentifierE, symObjAddr: 0x2FC, symBinAddr: 0x10D18, symSize: 0x44 }
  - { offsetInCU: 0x20351, offset: 0x9BFD4, size: 0x8, addend: 0x0, symName: __ZN4absl12lts_2024011613cord_internal25InitializeCordRepExternalENS0_11string_viewEPNS1_15CordRepExternalE, symObjAddr: 0x340, symBinAddr: 0x10D5C, symSize: 0x2C }
  - { offsetInCU: 0x2035C, offset: 0x9BFDF, size: 0x8, addend: 0x0, symName: __ZN4absl12lts_202401164Cord12PrependArrayENS0_11string_viewENS0_13cord_internal18CordzUpdateTracker16MethodIdentifierE, symObjAddr: 0x2E28, symBinAddr: 0x13844, symSize: 0x128 }
  - { offsetInCU: 0x20776, offset: 0x9C3F9, size: 0x8, addend: 0x0, symName: __ZN4absl12lts_202401164Cord9InlineRep20PrependTreeToInlinedEPNS0_13cord_internal7CordRepENS3_18CordzUpdateTracker16MethodIdentifierE, symObjAddr: 0xF54, symBinAddr: 0x11970, symSize: 0x11C }
  - { offsetInCU: 0x20C0D, offset: 0x9C890, size: 0x8, addend: 0x0, symName: __ZN4absl12lts_202401164Cord9InlineRep17PrependTreeToTreeEPNS0_13cord_internal7CordRepENS3_18CordzUpdateTracker16MethodIdentifierE, symObjAddr: 0x1070, symBinAddr: 0x11A8C, symSize: 0x164 }
  - { offsetInCU: 0x20C18, offset: 0x9C89B, size: 0x8, addend: 0x0, symName: __ZN4absl12lts_202401164Cord9InlineRep17PrependTreeToTreeEPNS0_13cord_internal7CordRepENS3_18CordzUpdateTracker16MethodIdentifierE, symObjAddr: 0x1070, symBinAddr: 0x11A8C, symSize: 0x164 }
  - { offsetInCU: 0x20F60, offset: 0x9CBE3, size: 0x8, addend: 0x0, symName: __ZN4absl12lts_202401164Cord9InlineRep11PrependTreeEPNS0_13cord_internal7CordRepENS3_18CordzUpdateTracker16MethodIdentifierE.cold.1, symObjAddr: 0xAE90, symBinAddr: 0x5C3F0, symSize: 0x28 }
  - { offsetInCU: 0x20F78, offset: 0x9CBFB, size: 0x8, addend: 0x0, symName: __ZN4absl12lts_202401164Cord9InlineRep11PrependTreeEPNS0_13cord_internal7CordRepENS3_18CordzUpdateTracker16MethodIdentifierE.cold.2, symObjAddr: 0xAEB8, symBinAddr: 0x5C418, symSize: 0x28 }
  - { offsetInCU: 0x20F90, offset: 0x9CC13, size: 0x8, addend: 0x0, symName: __ZN4absl12lts_202401164Cord9InlineRep11PrependTreeEPNS0_13cord_internal7CordRepENS3_18CordzUpdateTracker16MethodIdentifierE.cold.3, symObjAddr: 0xAEE0, symBinAddr: 0x5C440, symSize: 0x28 }
  - { offsetInCU: 0x20FA8, offset: 0x9CC2B, size: 0x8, addend: 0x0, symName: __ZN4absl12lts_2024011613cord_internal25InitializeCordRepExternalENS0_11string_viewEPNS1_15CordRepExternalE.cold.1, symObjAddr: 0xAF08, symBinAddr: 0x5C468, symSize: 0x28 }
  - { offsetInCU: 0x21557, offset: 0x9D1DA, size: 0x8, addend: 0x0, symName: __ZN4absl12lts_2024011623inlined_vector_internal7StorageIPNS0_13cord_internal7CordRepELm2ENSt3__19allocatorIS5_EEE11EmplaceBackIJRKS5_EEERS5_DpOT_, symObjAddr: 0x71A4, symBinAddr: 0x17B70, symSize: 0x44 }
  - { offsetInCU: 0x215B1, offset: 0x9D234, size: 0x8, addend: 0x0, symName: __ZN4absl12lts_2024011623inlined_vector_internal7StorageIPNS0_13cord_internal7CordRepELm2ENSt3__19allocatorIS5_EEE11EmplaceBackIJRKS5_EEERS5_DpOT_, symObjAddr: 0x71A4, symBinAddr: 0x17B70, symSize: 0x44 }
  - { offsetInCU: 0x215CD, offset: 0x9D250, size: 0x8, addend: 0x0, symName: __ZN4absl12lts_2024011623inlined_vector_internal7StorageIPNS0_13cord_internal7CordRepELm2ENSt3__19allocatorIS5_EEE11EmplaceBackIJRKS5_EEERS5_DpOT_, symObjAddr: 0x71A4, symBinAddr: 0x17B70, symSize: 0x44 }
  - { offsetInCU: 0x216B4, offset: 0x9D337, size: 0x8, addend: 0x0, symName: __ZN4absl12lts_2024011613InlinedVectorIPNS0_13cord_internal7CordRepELm2ENSt3__19allocatorIS4_EEE4backEv, symObjAddr: 0x69AC, symBinAddr: 0x17378, symSize: 0x3C }
  - { offsetInCU: 0x21792, offset: 0x9D415, size: 0x8, addend: 0x0, symName: __ZN4absl12lts_2024011613InlinedVectorIPNS0_13cord_internal7CordRepELm2ENSt3__19allocatorIS4_EEE8pop_backEv, symObjAddr: 0x69E8, symBinAddr: 0x173B4, symSize: 0x4C }
  - { offsetInCU: 0x2179D, offset: 0x9D420, size: 0x8, addend: 0x0, symName: __ZN4absl12lts_2024011613InlinedVectorIPNS0_13cord_internal7CordRepELm2ENSt3__19allocatorIS4_EEE8pop_backEv, symObjAddr: 0x69E8, symBinAddr: 0x173B4, symSize: 0x4C }
  - { offsetInCU: 0x21A59, offset: 0x9D6DC, size: 0x8, addend: 0x0, symName: __ZNSt3__15dequeIN4absl12lts_2024011612crc_internal12CrcCordState9PrefixCrcENS_9allocatorIS5_EEE19__add_back_capacityEv, symObjAddr: 0xA298, symBinAddr: 0x19E6C, symSize: 0x368 }
  - { offsetInCU: 0x21C00, offset: 0x9D883, size: 0x8, addend: 0x0, symName: __ZN4absl12lts_2024011613cord_internal11CordRepFlat7NewImplILm4096EJEEEPS2_mDpT0_, symObjAddr: 0x84D8, symBinAddr: 0x18148, symSize: 0xA4 }
  - { offsetInCU: 0x21E79, offset: 0x9DAFC, size: 0x8, addend: 0x0, symName: __ZN4absl12lts_2024011613cord_internal11CordRepFlat7NewImplILm262144EJEEEPS2_mDpT0_, symObjAddr: 0x857C, symBinAddr: 0x181EC, symSize: 0xC0 }
  - { offsetInCU: 0x21E95, offset: 0x9DB18, size: 0x8, addend: 0x0, symName: __ZN4absl12lts_202401164Cord9InlineRep19AppendTreeToInlinedEPNS0_13cord_internal7CordRepENS3_18CordzUpdateTracker16MethodIdentifierE.cold.2, symObjAddr: 0xAF54, symBinAddr: 0x5C4B4, symSize: 0x24 }
  - { offsetInCU: 0x21ED8, offset: 0x9DB5B, size: 0x8, addend: 0x0, symName: __ZN4absl12lts_202401164Cord9InlineRep19AppendTreeToInlinedEPNS0_13cord_internal7CordRepENS3_18CordzUpdateTracker16MethodIdentifierE.cold.4, symObjAddr: 0xAF9C, symBinAddr: 0x5C4FC, symSize: 0x28 }
  - { offsetInCU: 0x21EF0, offset: 0x9DB73, size: 0x8, addend: 0x0, symName: __ZN4absl12lts_202401164Cord9InlineRep19AppendTreeToInlinedEPNS0_13cord_internal7CordRepENS3_18CordzUpdateTracker16MethodIdentifierE.cold.1, symObjAddr: 0xAF30, symBinAddr: 0x5C490, symSize: 0x24 }
  - { offsetInCU: 0x21F1D, offset: 0x9DBA0, size: 0x8, addend: 0x0, symName: __ZN4absl12lts_202401164Cord9InlineRep19AppendTreeToInlinedEPNS0_13cord_internal7CordRepENS3_18CordzUpdateTracker16MethodIdentifierE.cold.3, symObjAddr: 0xAF78, symBinAddr: 0x5C4D8, symSize: 0x24 }
  - { offsetInCU: 0x220E1, offset: 0x9DD64, size: 0x8, addend: 0x0, symName: __ZNK4absl12lts_2024011613cord_internal10InlineData10cordz_infoEv, symObjAddr: 0xE10, symBinAddr: 0x1182C, symSize: 0x2C }
  - { offsetInCU: 0x2217E, offset: 0x9DE01, size: 0x8, addend: 0x0, symName: __ZN4absl12lts_20240116L10ForceBtreeEPNS0_13cord_internal7CordRepE, symObjAddr: 0xE3C, symBinAddr: 0x11858, symSize: 0x118 }
  - { offsetInCU: 0x22189, offset: 0x9DE0C, size: 0x8, addend: 0x0, symName: __ZN4absl12lts_2024011613cord_internal16CordzUpdateScopeD2Ev, symObjAddr: 0x8278, symBinAddr: 0x17EE8, symSize: 0x34 }
  - { offsetInCU: 0x221B4, offset: 0x9DE37, size: 0x8, addend: 0x0, symName: __ZN4absl12lts_202401164Cord9InlineRep16AppendTreeToTreeEPNS0_13cord_internal7CordRepENS3_18CordzUpdateTracker16MethodIdentifierE.cold.1, symObjAddr: 0xAFC4, symBinAddr: 0x5C524, symSize: 0x28 }
  - { offsetInCU: 0x221E2, offset: 0x9DE65, size: 0x8, addend: 0x0, symName: __ZNK4absl12lts_2024011613cord_internal10InlineData10cordz_infoEv.cold.1, symObjAddr: 0xAFEC, symBinAddr: 0x5C54C, symSize: 0x28 }
  - { offsetInCU: 0x221FA, offset: 0x9DE7D, size: 0x8, addend: 0x0, symName: __ZNK4absl12lts_2024011613cord_internal10InlineData10cordz_infoEv.cold.2, symObjAddr: 0xB014, symBinAddr: 0x5C574, symSize: 0x28 }
  - { offsetInCU: 0x22383, offset: 0x9E006, size: 0x8, addend: 0x0, symName: __ZN4absl12lts_20240116L10ForceBtreeEPNS0_13cord_internal7CordRepE.cold.1, symObjAddr: 0xB03C, symBinAddr: 0x5C59C, symSize: 0x24 }
  - { offsetInCU: 0x223C6, offset: 0x9E049, size: 0x8, addend: 0x0, symName: __ZN4absl12lts_20240116L10ForceBtreeEPNS0_13cord_internal7CordRepE.cold.2, symObjAddr: 0xB060, symBinAddr: 0x5C5C0, symSize: 0x24 }
  - { offsetInCU: 0x22408, offset: 0x9E08B, size: 0x8, addend: 0x0, symName: __ZN4absl12lts_20240116L10ForceBtreeEPNS0_13cord_internal7CordRepE.cold.3, symObjAddr: 0xB084, symBinAddr: 0x5C5E4, symSize: 0x24 }
  - { offsetInCU: 0x2244A, offset: 0x9E0CD, size: 0x8, addend: 0x0, symName: __ZN4absl12lts_20240116L10ForceBtreeEPNS0_13cord_internal7CordRepE.cold.4, symObjAddr: 0xB0A8, symBinAddr: 0x5C608, symSize: 0x24 }
  - { offsetInCU: 0x224C4, offset: 0x9E147, size: 0x8, addend: 0x0, symName: __ZN4absl12lts_202401164Cord9InlineRep20PrependTreeToInlinedEPNS0_13cord_internal7CordRepENS3_18CordzUpdateTracker16MethodIdentifierE.cold.2, symObjAddr: 0xB0F0, symBinAddr: 0x5C650, symSize: 0x24 }
  - { offsetInCU: 0x22507, offset: 0x9E18A, size: 0x8, addend: 0x0, symName: __ZN4absl12lts_202401164Cord9InlineRep20PrependTreeToInlinedEPNS0_13cord_internal7CordRepENS3_18CordzUpdateTracker16MethodIdentifierE.cold.4, symObjAddr: 0xB138, symBinAddr: 0x5C698, symSize: 0x28 }
  - { offsetInCU: 0x2251F, offset: 0x9E1A2, size: 0x8, addend: 0x0, symName: __ZN4absl12lts_202401164Cord9InlineRep20PrependTreeToInlinedEPNS0_13cord_internal7CordRepENS3_18CordzUpdateTracker16MethodIdentifierE.cold.1, symObjAddr: 0xB0CC, symBinAddr: 0x5C62C, symSize: 0x24 }
  - { offsetInCU: 0x2254C, offset: 0x9E1CF, size: 0x8, addend: 0x0, symName: __ZN4absl12lts_202401164Cord9InlineRep20PrependTreeToInlinedEPNS0_13cord_internal7CordRepENS3_18CordzUpdateTracker16MethodIdentifierE.cold.3, symObjAddr: 0xB114, symBinAddr: 0x5C674, symSize: 0x24 }
  - { offsetInCU: 0x2258F, offset: 0x9E212, size: 0x8, addend: 0x0, symName: __ZN4absl12lts_202401164Cord9InlineRep17PrependTreeToTreeEPNS0_13cord_internal7CordRepENS3_18CordzUpdateTracker16MethodIdentifierE.cold.1, symObjAddr: 0xB160, symBinAddr: 0x5C6C0, symSize: 0x28 }
  - { offsetInCU: 0x22678, offset: 0x9E2FB, size: 0x8, addend: 0x0, symName: __ZN4absl12lts_202401164Cord9InlineRep10AssignSlowERKS2_, symObjAddr: 0x11D4, symBinAddr: 0x11BF0, symSize: 0x128 }
  - { offsetInCU: 0x22C2A, offset: 0x9E8AD, size: 0x8, addend: 0x0, symName: __ZN4absl12lts_2024011613cord_internal7CordRep5UnrefEPS2_, symObjAddr: 0x12FC, symBinAddr: 0x11D18, symSize: 0x50 }
  - { offsetInCU: 0x22C35, offset: 0x9E8B8, size: 0x8, addend: 0x0, symName: __ZN4absl12lts_2024011613cord_internal10InlineData18is_either_profiledERKS2_S4_, symObjAddr: 0x82AC, symBinAddr: 0x17F1C, symSize: 0x38 }
  - { offsetInCU: 0x22D1A, offset: 0x9E99D, size: 0x8, addend: 0x0, symName: __ZN4absl12lts_2024011613cord_internal12CordRepBtree15GetAppendBufferEm, symObjAddr: 0x82E4, symBinAddr: 0x17F54, symSize: 0x1F4 }
  - { offsetInCU: 0x22D24, offset: 0x9E9A7, size: 0x8, addend: 0x0, symName: __ZN4absl12lts_2024011613cord_internal7CordRep5UnrefEPS2_, symObjAddr: 0x12FC, symBinAddr: 0x11D18, symSize: 0x50 }
  - { offsetInCU: 0x22DCB, offset: 0x9EA4E, size: 0x8, addend: 0x0, symName: __ZN4absl12lts_202401164Cord9InlineRep10AssignSlowERKS2_.cold.1, symObjAddr: 0xB188, symBinAddr: 0x5C6E8, symSize: 0x28 }
  - { offsetInCU: 0x22DE3, offset: 0x9EA66, size: 0x8, addend: 0x0, symName: __ZN4absl12lts_202401164Cord9InlineRep10AssignSlowERKS2_.cold.2, symObjAddr: 0xB1B0, symBinAddr: 0x5C710, symSize: 0x28 }
  - { offsetInCU: 0x22DFB, offset: 0x9EA7E, size: 0x8, addend: 0x0, symName: __ZN4absl12lts_202401164Cord9InlineRep10AssignSlowERKS2_.cold.3, symObjAddr: 0xB1D8, symBinAddr: 0x5C738, symSize: 0x24 }
  - { offsetInCU: 0x22E29, offset: 0x9EAAC, size: 0x8, addend: 0x0, symName: __ZN4absl12lts_202401164Cord9InlineRep10AssignSlowERKS2_.cold.4, symObjAddr: 0xB1FC, symBinAddr: 0x5C75C, symSize: 0x28 }
  - { offsetInCU: 0x22E57, offset: 0x9EADA, size: 0x8, addend: 0x0, symName: __ZN4absl12lts_2024011613cord_internal7CordRep5UnrefEPS2_.cold.1, symObjAddr: 0xB224, symBinAddr: 0x5C784, symSize: 0x24 }
  - { offsetInCU: 0x22E6F, offset: 0x9EAF2, size: 0x8, addend: 0x0, symName: __ZN4absl12lts_2024011613cord_internal7CordRep5UnrefEPS2_.cold.2, symObjAddr: 0xB248, symBinAddr: 0x5C7A8, symSize: 0x24 }
  - { offsetInCU: 0x22E9D, offset: 0x9EB20, size: 0x8, addend: 0x0, symName: __ZN4absl12lts_202401164Cord9InlineRep9UnrefTreeEv, symObjAddr: 0x134C, symBinAddr: 0x11D68, symSize: 0x84 }
  - { offsetInCU: 0x230AF, offset: 0x9ED32, size: 0x8, addend: 0x0, symName: __ZN4absl12lts_202401164Cord9InlineRep9UnrefTreeEv.cold.1, symObjAddr: 0xB26C, symBinAddr: 0x5C7CC, symSize: 0x24 }
  - { offsetInCU: 0x230DD, offset: 0x9ED60, size: 0x8, addend: 0x0, symName: __ZN4absl12lts_202401164Cord9InlineRep9UnrefTreeEv.cold.2, symObjAddr: 0xB290, symBinAddr: 0x5C7F0, symSize: 0x24 }
  - { offsetInCU: 0x23121, offset: 0x9EDA4, size: 0x8, addend: 0x0, symName: __ZN4absl12lts_202401164CordC2ENS0_11string_viewENS0_13cord_internal18CordzUpdateTracker16MethodIdentifierE, symObjAddr: 0x13D0, symBinAddr: 0x11DEC, symSize: 0x50 }
  - { offsetInCU: 0x23251, offset: 0x9EED4, size: 0x8, addend: 0x0, symName: __ZN4absl12lts_20240116L7NewTreeEPKcmm, symObjAddr: 0x1420, symBinAddr: 0x11E3C, symSize: 0x100 }
  - { offsetInCU: 0x2325C, offset: 0x9EEDF, size: 0x8, addend: 0x0, symName: __ZN4absl12lts_202401164CordC2ENS0_11string_viewENS0_13cord_internal18CordzUpdateTracker16MethodIdentifierE.cold.1, symObjAddr: 0xB2B4, symBinAddr: 0x5C814, symSize: 0x24 }
  - { offsetInCU: 0x23341, offset: 0x9EFC4, size: 0x8, addend: 0x0, symName: __ZN4absl12lts_20240116L7NewTreeEPKcmm.cold.1, symObjAddr: 0xB2D8, symBinAddr: 0x5C838, symSize: 0x24 }
  - { offsetInCU: 0x233C3, offset: 0x9F046, size: 0x8, addend: 0x0, symName: __ZN4absl12lts_202401164CordC1ENS0_11string_viewENS0_13cord_internal18CordzUpdateTracker16MethodIdentifierE, symObjAddr: 0x1520, symBinAddr: 0x11F3C, symSize: 0x4 }
  - { offsetInCU: 0x233F2, offset: 0x9F075, size: 0x8, addend: 0x0, symName: __ZN4absl12lts_202401164CordC1ENS0_11string_viewENS0_13cord_internal18CordzUpdateTracker16MethodIdentifierE, symObjAddr: 0x1520, symBinAddr: 0x11F3C, symSize: 0x4 }
  - { offsetInCU: 0x23428, offset: 0x9F0AB, size: 0x8, addend: 0x0, symName: __ZN4absl12lts_202401164Cord15DestroyCordSlowEv, symObjAddr: 0x1524, symBinAddr: 0x11F40, symSize: 0x90 }
  - { offsetInCU: 0x2363E, offset: 0x9F2C1, size: 0x8, addend: 0x0, symName: __ZN4absl12lts_202401164Cord15DestroyCordSlowEv.cold.1, symObjAddr: 0xB2FC, symBinAddr: 0x5C85C, symSize: 0x28 }
  - { offsetInCU: 0x23656, offset: 0x9F2D9, size: 0x8, addend: 0x0, symName: __ZN4absl12lts_202401164Cord15DestroyCordSlowEv.cold.2, symObjAddr: 0xB324, symBinAddr: 0x5C884, symSize: 0x28 }
  - { offsetInCU: 0x23684, offset: 0x9F307, size: 0x8, addend: 0x0, symName: __ZN4absl12lts_202401164Cord15DestroyCordSlowEv.cold.3, symObjAddr: 0xB34C, symBinAddr: 0x5C8AC, symSize: 0x24 }
  - { offsetInCU: 0x236B2, offset: 0x9F335, size: 0x8, addend: 0x0, symName: __ZN4absl12lts_202401164Cord15DestroyCordSlowEv.cold.4, symObjAddr: 0xB370, symBinAddr: 0x5C8D0, symSize: 0x24 }
  - { offsetInCU: 0x23730, offset: 0x9F3B3, size: 0x8, addend: 0x0, symName: __ZN4absl12lts_202401164Cord5ClearEv, symObjAddr: 0x15B4, symBinAddr: 0x11FD0, symSize: 0x90 }
  - { offsetInCU: 0x239B7, offset: 0x9F63A, size: 0x8, addend: 0x0, symName: __ZN4absl12lts_202401164Cord5ClearEv.cold.1, symObjAddr: 0xB394, symBinAddr: 0x5C8F4, symSize: 0x24 }
  - { offsetInCU: 0x239FB, offset: 0x9F67E, size: 0x8, addend: 0x0, symName: __ZN4absl12lts_202401164Cord17AssignLargeStringEONSt3__112basic_stringIcNS2_11char_traitsIcEENS2_9allocatorIcEEEE, symObjAddr: 0x1644, symBinAddr: 0x12060, symSize: 0x168 }
  - { offsetInCU: 0x23E9E, offset: 0x9FB21, size: 0x8, addend: 0x0, symName: __ZN4absl12lts_202401164Cord17AssignLargeStringEONSt3__112basic_stringIcNS2_11char_traitsIcEENS2_9allocatorIcEEEE.cold.1, symObjAddr: 0xB3B8, symBinAddr: 0x5C918, symSize: 0x28 }
  - { offsetInCU: 0x23EB6, offset: 0x9FB39, size: 0x8, addend: 0x0, symName: __ZN4absl12lts_202401164Cord17AssignLargeStringEONSt3__112basic_stringIcNS2_11char_traitsIcEENS2_9allocatorIcEEEE.cold.2, symObjAddr: 0xB3E0, symBinAddr: 0x5C940, symSize: 0x24 }
  - { offsetInCU: 0x23EFA, offset: 0x9FB7D, size: 0x8, addend: 0x0, symName: __ZN4absl12lts_202401164CordaSENS0_11string_viewE, symObjAddr: 0x17AC, symBinAddr: 0x121C8, symSize: 0x2B4 }
  - { offsetInCU: 0x24601, offset: 0xA0284, size: 0x8, addend: 0x0, symName: __ZN4absl12lts_202401164CordaSENS0_11string_viewE.cold.1, symObjAddr: 0xB404, symBinAddr: 0x5C964, symSize: 0x24 }
  - { offsetInCU: 0x2462F, offset: 0xA02B2, size: 0x8, addend: 0x0, symName: __ZN4absl12lts_202401164CordaSENS0_11string_viewE.cold.2, symObjAddr: 0xB428, symBinAddr: 0x5C988, symSize: 0x24 }
  - { offsetInCU: 0x247EE, offset: 0xA0471, size: 0x8, addend: 0x0, symName: __ZN4absl12lts_2024011613cord_internal12CordRepBtree15GetAppendBufferEm, symObjAddr: 0x82E4, symBinAddr: 0x17F54, symSize: 0x1F4 }
  - { offsetInCU: 0x24CF3, offset: 0xA0976, size: 0x8, addend: 0x0, symName: __ZN4absl12lts_2024011613cord_internal11CordRepFlat7NewImplILm4096EJEEEPS2_mDpT0_, symObjAddr: 0x84D8, symBinAddr: 0x18148, symSize: 0xA4 }
  - { offsetInCU: 0x24CFE, offset: 0xA0981, size: 0x8, addend: 0x0, symName: __ZN4absl12lts_202401164Cord9InlineRep11AppendArrayENS0_11string_viewENS0_13cord_internal18CordzUpdateTracker16MethodIdentifierE.cold.2, symObjAddr: 0xB470, symBinAddr: 0x5C9D0, symSize: 0x24 }
  - { offsetInCU: 0x24D2C, offset: 0xA09AF, size: 0x8, addend: 0x0, symName: __ZN4absl12lts_202401164Cord9InlineRep11AppendArrayENS0_11string_viewENS0_13cord_internal18CordzUpdateTracker16MethodIdentifierE.cold.1, symObjAddr: 0xB44C, symBinAddr: 0x5C9AC, symSize: 0x24 }
  - { offsetInCU: 0x25108, offset: 0xA0D8B, size: 0x8, addend: 0x0, symName: __ZN4absl12lts_202401164Cord23GetAppendBufferSlowPathEmmm, symObjAddr: 0x1FF8, symBinAddr: 0x12A14, symSize: 0x4C4 }
  - { offsetInCU: 0x25DEC, offset: 0xA1A6F, size: 0x8, addend: 0x0, symName: __ZN4absl12lts_2024011613cord_internal11CordRepFlat7NewImplILm262144EJEEEPS2_mDpT0_, symObjAddr: 0x857C, symBinAddr: 0x181EC, symSize: 0xC0 }
  - { offsetInCU: 0x26067, offset: 0xA1CEA, size: 0x8, addend: 0x0, symName: __ZN4absl12lts_2024011610CordBufferD1Ev, symObjAddr: 0x863C, symBinAddr: 0x182AC, symSize: 0x34 }
  - { offsetInCU: 0x26084, offset: 0xA1D07, size: 0x8, addend: 0x0, symName: __ZN4absl12lts_202401164Cord23GetAppendBufferSlowPathEmmm.cold.1, symObjAddr: 0xB494, symBinAddr: 0x5C9F4, symSize: 0x28 }
  - { offsetInCU: 0x260DE, offset: 0xA1D61, size: 0x8, addend: 0x0, symName: __ZN4absl12lts_202401164Cord23GetAppendBufferSlowPathEmmm.cold.2, symObjAddr: 0xB4BC, symBinAddr: 0x5CA1C, symSize: 0x24 }
  - { offsetInCU: 0x2614E, offset: 0xA1DD1, size: 0x8, addend: 0x0, symName: __ZN4absl12lts_2024011610CordBufferD1Ev, symObjAddr: 0x863C, symBinAddr: 0x182AC, symSize: 0x34 }
  - { offsetInCU: 0x261DF, offset: 0xA1E62, size: 0x8, addend: 0x0, symName: __ZN4absl12lts_202401164Cord6AppendERKS1_, symObjAddr: 0x24BC, symBinAddr: 0x12ED8, symSize: 0x4 }
  - { offsetInCU: 0x26218, offset: 0xA1E9B, size: 0x8, addend: 0x0, symName: __ZN4absl12lts_202401164Cord6AppendERKS1_, symObjAddr: 0x24BC, symBinAddr: 0x12ED8, symSize: 0x4 }
  - { offsetInCU: 0x26231, offset: 0xA1EB4, size: 0x8, addend: 0x0, symName: __ZN4absl12lts_202401164Cord10AppendImplIRKS1_EEvOT_, symObjAddr: 0x24C0, symBinAddr: 0x12EDC, symSize: 0x3D0 }
  - { offsetInCU: 0x27264, offset: 0xA2EE7, size: 0x8, addend: 0x0, symName: __ZN4absl12lts_202401164Cord13ChunkIteratorC2EPKS1_, symObjAddr: 0x86DC, symBinAddr: 0x1834C, symSize: 0x11C }
  - { offsetInCU: 0x2762E, offset: 0xA32B1, size: 0x8, addend: 0x0, symName: __ZN4absl12lts_2024011613cord_internal18CordRepBtreeReader4InitEPNS1_12CordRepBtreeE, symObjAddr: 0x87F8, symBinAddr: 0x18468, symSize: 0xB4 }
  - { offsetInCU: 0x27639, offset: 0xA32BC, size: 0x8, addend: 0x0, symName: __ZN4absl12lts_2024011613cord_internal18CordRepBtreeReader4NextEv, symObjAddr: 0x5500, symBinAddr: 0x15ED8, symSize: 0x114 }
  - { offsetInCU: 0x27847, offset: 0xA34CA, size: 0x8, addend: 0x0, symName: __ZNK4absl12lts_202401164CordixEm, symObjAddr: 0x5614, symBinAddr: 0x15FEC, symSize: 0xD4 }
  - { offsetInCU: 0x27852, offset: 0xA34D5, size: 0x8, addend: 0x0, symName: __ZN4absl12lts_202401164CordC1ERKS1_, symObjAddr: 0x4AFC, symBinAddr: 0x15518, symSize: 0x7C }
  - { offsetInCU: 0x27B31, offset: 0xA37B4, size: 0x8, addend: 0x0, symName: __ZN4absl12lts_202401164Cord10AppendImplIS1_EEvOT_, symObjAddr: 0x2894, symBinAddr: 0x132B0, symSize: 0x3D8 }
  - { offsetInCU: 0x289A4, offset: 0xA4627, size: 0x8, addend: 0x0, symName: __ZN4absl12lts_202401164CordD2Ev, symObjAddr: 0x8CFC, symBinAddr: 0x1896C, symSize: 0x34 }
  - { offsetInCU: 0x28A39, offset: 0xA46BC, size: 0x8, addend: 0x0, symName: __ZN4absl12lts_202401164Cord10AppendImplIRKS1_EEvOT_.cold.7, symObjAddr: 0xB5B8, symBinAddr: 0x5CB18, symSize: 0x24 }
  - { offsetInCU: 0x28A7D, offset: 0xA4700, size: 0x8, addend: 0x0, symName: __ZN4absl12lts_202401164Cord10AppendImplIRKS1_EEvOT_.cold.8, symObjAddr: 0xB5DC, symBinAddr: 0x5CB3C, symSize: 0x24 }
  - { offsetInCU: 0x28AAB, offset: 0xA472E, size: 0x8, addend: 0x0, symName: __ZN4absl12lts_202401164Cord10AppendImplIRKS1_EEvOT_.cold.9, symObjAddr: 0xB600, symBinAddr: 0x5CB60, symSize: 0x24 }
  - { offsetInCU: 0x28AD9, offset: 0xA475C, size: 0x8, addend: 0x0, symName: __ZN4absl12lts_202401164Cord10AppendImplIRKS1_EEvOT_.cold.1, symObjAddr: 0xB4E0, symBinAddr: 0x5CA40, symSize: 0x24 }
  - { offsetInCU: 0x28B1D, offset: 0xA47A0, size: 0x8, addend: 0x0, symName: __ZN4absl12lts_202401164Cord10AppendImplIRKS1_EEvOT_.cold.2, symObjAddr: 0xB504, symBinAddr: 0x5CA64, symSize: 0x24 }
  - { offsetInCU: 0x28B4B, offset: 0xA47CE, size: 0x8, addend: 0x0, symName: __ZN4absl12lts_202401164Cord10AppendImplIRKS1_EEvOT_.cold.6, symObjAddr: 0xB594, symBinAddr: 0x5CAF4, symSize: 0x24 }
  - { offsetInCU: 0x28B79, offset: 0xA47FC, size: 0x8, addend: 0x0, symName: __ZN4absl12lts_202401164Cord10AppendImplIRKS1_EEvOT_.cold.5, symObjAddr: 0xB570, symBinAddr: 0x5CAD0, symSize: 0x24 }
  - { offsetInCU: 0x28BBD, offset: 0xA4840, size: 0x8, addend: 0x0, symName: __ZN4absl12lts_202401164Cord10AppendImplIRKS1_EEvOT_.cold.13, symObjAddr: 0xB690, symBinAddr: 0x5CBF0, symSize: 0x24 }
  - { offsetInCU: 0x28BEB, offset: 0xA486E, size: 0x8, addend: 0x0, symName: __ZN4absl12lts_202401164Cord10AppendImplIRKS1_EEvOT_.cold.12, symObjAddr: 0xB66C, symBinAddr: 0x5CBCC, symSize: 0x24 }
  - { offsetInCU: 0x28C19, offset: 0xA489C, size: 0x8, addend: 0x0, symName: __ZN4absl12lts_202401164Cord10AppendImplIRKS1_EEvOT_.cold.3, symObjAddr: 0xB528, symBinAddr: 0x5CA88, symSize: 0x24 }
  - { offsetInCU: 0x28C5C, offset: 0xA48DF, size: 0x8, addend: 0x0, symName: __ZN4absl12lts_202401164Cord10AppendImplIRKS1_EEvOT_.cold.4, symObjAddr: 0xB54C, symBinAddr: 0x5CAAC, symSize: 0x24 }
  - { offsetInCU: 0x28C9F, offset: 0xA4922, size: 0x8, addend: 0x0, symName: __ZN4absl12lts_202401164Cord10AppendImplIRKS1_EEvOT_.cold.11, symObjAddr: 0xB648, symBinAddr: 0x5CBA8, symSize: 0x24 }
  - { offsetInCU: 0x28CE2, offset: 0xA4965, size: 0x8, addend: 0x0, symName: __ZN4absl12lts_202401164Cord10AppendImplIRKS1_EEvOT_.cold.10, symObjAddr: 0xB624, symBinAddr: 0x5CB84, symSize: 0x24 }
  - { offsetInCU: 0x28D25, offset: 0xA49A8, size: 0x8, addend: 0x0, symName: __ZN4absl12lts_202401164Cord6AppendEOS1_, symObjAddr: 0x2890, symBinAddr: 0x132AC, symSize: 0x4 }
  - { offsetInCU: 0x28D4F, offset: 0xA49D2, size: 0x8, addend: 0x0, symName: __ZN4absl12lts_202401164Cord6AppendEOS1_, symObjAddr: 0x2890, symBinAddr: 0x132AC, symSize: 0x4 }
  - { offsetInCU: 0x28D91, offset: 0xA4A14, size: 0x8, addend: 0x0, symName: __ZN4absl12lts_202401164Cord10AppendImplIS1_EEvOT_.cold.7, symObjAddr: 0xB798, symBinAddr: 0x5CCF8, symSize: 0x24 }
  - { offsetInCU: 0x28DD5, offset: 0xA4A58, size: 0x8, addend: 0x0, symName: __ZN4absl12lts_202401164Cord10AppendImplIS1_EEvOT_.cold.8, symObjAddr: 0xB7BC, symBinAddr: 0x5CD1C, symSize: 0x24 }
  - { offsetInCU: 0x28E03, offset: 0xA4A86, size: 0x8, addend: 0x0, symName: __ZN4absl12lts_202401164Cord10AppendImplIS1_EEvOT_.cold.9, symObjAddr: 0xB7E0, symBinAddr: 0x5CD40, symSize: 0x24 }
  - { offsetInCU: 0x28E31, offset: 0xA4AB4, size: 0x8, addend: 0x0, symName: __ZN4absl12lts_202401164Cord10AppendImplIS1_EEvOT_.cold.1, symObjAddr: 0xB6B4, symBinAddr: 0x5CC14, symSize: 0x28 }
  - { offsetInCU: 0x28E5F, offset: 0xA4AE2, size: 0x8, addend: 0x0, symName: __ZN4absl12lts_202401164Cord10AppendImplIS1_EEvOT_.cold.2, symObjAddr: 0xB6DC, symBinAddr: 0x5CC3C, symSize: 0x24 }
  - { offsetInCU: 0x28E8D, offset: 0xA4B10, size: 0x8, addend: 0x0, symName: __ZN4absl12lts_202401164Cord10AppendImplIS1_EEvOT_.cold.6, symObjAddr: 0xB774, symBinAddr: 0x5CCD4, symSize: 0x24 }
  - { offsetInCU: 0x28EBB, offset: 0xA4B3E, size: 0x8, addend: 0x0, symName: __ZN4absl12lts_202401164Cord10AppendImplIS1_EEvOT_.cold.5, symObjAddr: 0xB748, symBinAddr: 0x5CCA8, symSize: 0x2C }
  - { offsetInCU: 0x28F40, offset: 0xA4BC3, size: 0x8, addend: 0x0, symName: __ZN4absl12lts_202401164Cord10AppendImplIS1_EEvOT_.cold.13, symObjAddr: 0xB870, symBinAddr: 0x5CDD0, symSize: 0x24 }
  - { offsetInCU: 0x28F6E, offset: 0xA4BF1, size: 0x8, addend: 0x0, symName: __ZN4absl12lts_202401164Cord10AppendImplIS1_EEvOT_.cold.12, symObjAddr: 0xB84C, symBinAddr: 0x5CDAC, symSize: 0x24 }
  - { offsetInCU: 0x28F9C, offset: 0xA4C1F, size: 0x8, addend: 0x0, symName: __ZN4absl12lts_202401164Cord10AppendImplIS1_EEvOT_.cold.3, symObjAddr: 0xB700, symBinAddr: 0x5CC60, symSize: 0x24 }
  - { offsetInCU: 0x28FDF, offset: 0xA4C62, size: 0x8, addend: 0x0, symName: __ZN4absl12lts_202401164Cord10AppendImplIS1_EEvOT_.cold.4, symObjAddr: 0xB724, symBinAddr: 0x5CC84, symSize: 0x24 }
  - { offsetInCU: 0x29022, offset: 0xA4CA5, size: 0x8, addend: 0x0, symName: __ZN4absl12lts_202401164Cord10AppendImplIS1_EEvOT_.cold.11, symObjAddr: 0xB828, symBinAddr: 0x5CD88, symSize: 0x24 }
  - { offsetInCU: 0x29065, offset: 0xA4CE8, size: 0x8, addend: 0x0, symName: __ZN4absl12lts_202401164Cord10AppendImplIS1_EEvOT_.cold.10, symObjAddr: 0xB804, symBinAddr: 0x5CD64, symSize: 0x24 }
  - { offsetInCU: 0x290A8, offset: 0xA4D2B, size: 0x8, addend: 0x0, symName: __ZN4absl12lts_202401164Cord7PrependERKS1_, symObjAddr: 0x2C6C, symBinAddr: 0x13688, symSize: 0x1BC }
  - { offsetInCU: 0x29795, offset: 0xA5418, size: 0x8, addend: 0x0, symName: __ZN4absl12lts_202401164Cord12PrependArrayENS0_11string_viewENS0_13cord_internal18CordzUpdateTracker16MethodIdentifierE, symObjAddr: 0x2E28, symBinAddr: 0x13844, symSize: 0x128 }
  - { offsetInCU: 0x297A0, offset: 0xA5423, size: 0x8, addend: 0x0, symName: __ZN4absl12lts_202401164Cord7PrependERKS1_.cold.6, symObjAddr: 0xB948, symBinAddr: 0x5CEA8, symSize: 0x24 }
  - { offsetInCU: 0x297CE, offset: 0xA5451, size: 0x8, addend: 0x0, symName: __ZN4absl12lts_202401164Cord7PrependERKS1_.cold.5, symObjAddr: 0xB924, symBinAddr: 0x5CE84, symSize: 0x24 }
  - { offsetInCU: 0x297FC, offset: 0xA547F, size: 0x8, addend: 0x0, symName: __ZN4absl12lts_202401164Cord7PrependERKS1_.cold.4, symObjAddr: 0xB900, symBinAddr: 0x5CE60, symSize: 0x24 }
  - { offsetInCU: 0x29856, offset: 0xA54D9, size: 0x8, addend: 0x0, symName: __ZN4absl12lts_202401164Cord7PrependERKS1_.cold.1, symObjAddr: 0xB894, symBinAddr: 0x5CDF4, symSize: 0x24 }
  - { offsetInCU: 0x29899, offset: 0xA551C, size: 0x8, addend: 0x0, symName: __ZN4absl12lts_202401164Cord7PrependERKS1_.cold.2, symObjAddr: 0xB8B8, symBinAddr: 0x5CE18, symSize: 0x24 }
  - { offsetInCU: 0x298DC, offset: 0xA555F, size: 0x8, addend: 0x0, symName: __ZN4absl12lts_202401164Cord7PrependERKS1_.cold.3, symObjAddr: 0xB8DC, symBinAddr: 0x5CE3C, symSize: 0x24 }
  - { offsetInCU: 0x29935, offset: 0xA55B8, size: 0x8, addend: 0x0, symName: __ZN4absl12lts_202401164Cord12PrependArrayENS0_11string_viewENS0_13cord_internal18CordzUpdateTracker16MethodIdentifierE.cold.2, symObjAddr: 0xB990, symBinAddr: 0x5CEF0, symSize: 0x24 }
  - { offsetInCU: 0x29963, offset: 0xA55E6, size: 0x8, addend: 0x0, symName: __ZN4absl12lts_202401164Cord12PrependArrayENS0_11string_viewENS0_13cord_internal18CordzUpdateTracker16MethodIdentifierE.cold.1, symObjAddr: 0xB96C, symBinAddr: 0x5CECC, symSize: 0x24 }
  - { offsetInCU: 0x29A2D, offset: 0xA56B0, size: 0x8, addend: 0x0, symName: __ZN4absl12lts_202401164Cord13AppendPreciseENS0_11string_viewENS0_13cord_internal18CordzUpdateTracker16MethodIdentifierE, symObjAddr: 0x2F50, symBinAddr: 0x1396C, symSize: 0xA8 }
  - { offsetInCU: 0x29C67, offset: 0xA58EA, size: 0x8, addend: 0x0, symName: __ZN4absl12lts_2024011613cord_internal11CordRepFlat6CreateENS0_11string_viewEm, symObjAddr: 0x2FF8, symBinAddr: 0x13A14, symSize: 0x64 }
  - { offsetInCU: 0x29C72, offset: 0xA58F5, size: 0x8, addend: 0x0, symName: __ZN4absl12lts_2024011613cord_internal11CordRepFlat6CreateENS0_11string_viewEm, symObjAddr: 0x2FF8, symBinAddr: 0x13A14, symSize: 0x64 }
  - { offsetInCU: 0x29CFD, offset: 0xA5980, size: 0x8, addend: 0x0, symName: __ZN4absl12lts_202401164Cord14PrependPreciseENS0_11string_viewENS0_13cord_internal18CordzUpdateTracker16MethodIdentifierE, symObjAddr: 0x305C, symBinAddr: 0x13A78, symSize: 0xEC }
  - { offsetInCU: 0x29D08, offset: 0xA598B, size: 0x8, addend: 0x0, symName: __ZN4absl12lts_202401164Cord13AppendPreciseENS0_11string_viewENS0_13cord_internal18CordzUpdateTracker16MethodIdentifierE.cold.1, symObjAddr: 0xB9B4, symBinAddr: 0x5CF14, symSize: 0x28 }
  - { offsetInCU: 0x29D20, offset: 0xA59A3, size: 0x8, addend: 0x0, symName: __ZN4absl12lts_202401164Cord13AppendPreciseENS0_11string_viewENS0_13cord_internal18CordzUpdateTracker16MethodIdentifierE.cold.2, symObjAddr: 0xB9DC, symBinAddr: 0x5CF3C, symSize: 0x24 }
  - { offsetInCU: 0x29D38, offset: 0xA59BB, size: 0x8, addend: 0x0, symName: __ZN4absl12lts_202401164Cord13AppendPreciseENS0_11string_viewENS0_13cord_internal18CordzUpdateTracker16MethodIdentifierE.cold.4, symObjAddr: 0xBA24, symBinAddr: 0x5CF84, symSize: 0x24 }
  - { offsetInCU: 0x29DA8, offset: 0xA5A2B, size: 0x8, addend: 0x0, symName: __ZN4absl12lts_202401164Cord13AppendPreciseENS0_11string_viewENS0_13cord_internal18CordzUpdateTracker16MethodIdentifierE.cold.3, symObjAddr: 0xBA00, symBinAddr: 0x5CF60, symSize: 0x24 }
  - { offsetInCU: 0x29E18, offset: 0xA5A9B, size: 0x8, addend: 0x0, symName: __ZN4absl12lts_2024011613cord_internal11CordRepFlat6CreateENS0_11string_viewEm.cold.1, symObjAddr: 0xBA48, symBinAddr: 0x5CFA8, symSize: 0x28 }
  - { offsetInCU: 0x29E30, offset: 0xA5AB3, size: 0x8, addend: 0x0, symName: __ZN4absl12lts_202401164Cord14PrependPreciseENS0_11string_viewENS0_13cord_internal18CordzUpdateTracker16MethodIdentifierE, symObjAddr: 0x305C, symBinAddr: 0x13A78, symSize: 0xEC }
  - { offsetInCU: 0x2A0F7, offset: 0xA5D7A, size: 0x8, addend: 0x0, symName: __ZN4absl12lts_202401164Cord12RemovePrefixEm, symObjAddr: 0x3148, symBinAddr: 0x13B64, symSize: 0x5F4 }
  - { offsetInCU: 0x2A102, offset: 0xA5D85, size: 0x8, addend: 0x0, symName: __ZN4absl12lts_202401164Cord14PrependPreciseENS0_11string_viewENS0_13cord_internal18CordzUpdateTracker16MethodIdentifierE.cold.1, symObjAddr: 0xBA70, symBinAddr: 0x5CFD0, symSize: 0x28 }
  - { offsetInCU: 0x2A11A, offset: 0xA5D9D, size: 0x8, addend: 0x0, symName: __ZN4absl12lts_202401164Cord14PrependPreciseENS0_11string_viewENS0_13cord_internal18CordzUpdateTracker16MethodIdentifierE.cold.2, symObjAddr: 0xBA98, symBinAddr: 0x5CFF8, symSize: 0x28 }
  - { offsetInCU: 0x2A132, offset: 0xA5DB5, size: 0x8, addend: 0x0, symName: __ZN4absl12lts_202401164Cord14PrependPreciseENS0_11string_viewENS0_13cord_internal18CordzUpdateTracker16MethodIdentifierE.cold.4, symObjAddr: 0xBAE4, symBinAddr: 0x5D044, symSize: 0x24 }
  - { offsetInCU: 0x2A1A2, offset: 0xA5E25, size: 0x8, addend: 0x0, symName: __ZN4absl12lts_202401164Cord14PrependPreciseENS0_11string_viewENS0_13cord_internal18CordzUpdateTracker16MethodIdentifierE.cold.3, symObjAddr: 0xBAC0, symBinAddr: 0x5D020, symSize: 0x24 }
  - { offsetInCU: 0x2A325, offset: 0xA5FA8, size: 0x8, addend: 0x0, symName: __ZN4absl12lts_202401164Cord12RemovePrefixEm, symObjAddr: 0x3148, symBinAddr: 0x13B64, symSize: 0x5F4 }
  - { offsetInCU: 0x2B72E, offset: 0xA73B1, size: 0x8, addend: 0x0, symName: __ZN4absl12lts_202401168AlphaNumC2Em, symObjAddr: 0x8698, symBinAddr: 0x18308, symSize: 0x44 }
  - { offsetInCU: 0x2B819, offset: 0xA749C, size: 0x8, addend: 0x0, symName: __ZN4absl12lts_202401164Cord13ChunkIteratorC2EPKS1_, symObjAddr: 0x86DC, symBinAddr: 0x1834C, symSize: 0x11C }
  - { offsetInCU: 0x2B824, offset: 0xA74A7, size: 0x8, addend: 0x0, symName: __ZN4absl12lts_202401164Cord9InlineRep13remove_prefixEm, symObjAddr: 0x373C, symBinAddr: 0x14158, symSize: 0xF8 }
  - { offsetInCU: 0x2BAE5, offset: 0xA7768, size: 0x8, addend: 0x0, symName: __ZN4absl12lts_2024011613cord_internal16CordRepSubstring9SubstringEPNS1_7CordRepEmm, symObjAddr: 0x3834, symBinAddr: 0x14250, symSize: 0xD0 }
  - { offsetInCU: 0x2BAF0, offset: 0xA7773, size: 0x8, addend: 0x0, symName: __ZN4absl12lts_202401164Cord12RemovePrefixEm.cold.2, symObjAddr: 0xBB2C, symBinAddr: 0x5D08C, symSize: 0x24 }
  - { offsetInCU: 0x2BB1E, offset: 0xA77A1, size: 0x8, addend: 0x0, symName: __ZN4absl12lts_202401164Cord12RemovePrefixEm.cold.1, symObjAddr: 0xBB08, symBinAddr: 0x5D068, symSize: 0x24 }
  - { offsetInCU: 0x2BB90, offset: 0xA7813, size: 0x8, addend: 0x0, symName: __ZN4absl12lts_202401164Cord9InlineRep13remove_prefixEm.cold.6, symObjAddr: 0xBC10, symBinAddr: 0x5D170, symSize: 0x24 }
  - { offsetInCU: 0x2BBFF, offset: 0xA7882, size: 0x8, addend: 0x0, symName: __ZN4absl12lts_202401164Cord9InlineRep13remove_prefixEm.cold.5, symObjAddr: 0xBBEC, symBinAddr: 0x5D14C, symSize: 0x24 }
  - { offsetInCU: 0x2BC83, offset: 0xA7906, size: 0x8, addend: 0x0, symName: __ZN4absl12lts_202401164Cord9InlineRep13remove_prefixEm.cold.2, symObjAddr: 0xBB78, symBinAddr: 0x5D0D8, symSize: 0x28 }
  - { offsetInCU: 0x2BCB0, offset: 0xA7933, size: 0x8, addend: 0x0, symName: __ZN4absl12lts_202401164Cord9InlineRep13remove_prefixEm.cold.3, symObjAddr: 0xBBA0, symBinAddr: 0x5D100, symSize: 0x28 }
  - { offsetInCU: 0x2BCDD, offset: 0xA7960, size: 0x8, addend: 0x0, symName: __ZN4absl12lts_202401164Cord9InlineRep13remove_prefixEm.cold.4, symObjAddr: 0xBBC8, symBinAddr: 0x5D128, symSize: 0x24 }
  - { offsetInCU: 0x2BD61, offset: 0xA79E4, size: 0x8, addend: 0x0, symName: __ZN4absl12lts_202401164Cord9InlineRep13remove_prefixEm.cold.1, symObjAddr: 0xBB50, symBinAddr: 0x5D0B0, symSize: 0x28 }
  - { offsetInCU: 0x2BD8D, offset: 0xA7A10, size: 0x8, addend: 0x0, symName: __ZN4absl12lts_2024011613cord_internal16CordRepSubstring9SubstringEPNS1_7CordRepEmm, symObjAddr: 0x3834, symBinAddr: 0x14250, symSize: 0xD0 }
  - { offsetInCU: 0x2C0D2, offset: 0xA7D55, size: 0x8, addend: 0x0, symName: __ZN4absl12lts_202401164Cord12RemoveSuffixEm, symObjAddr: 0x3904, symBinAddr: 0x14320, symSize: 0x5C0 }
  - { offsetInCU: 0x2C0DD, offset: 0xA7D60, size: 0x8, addend: 0x0, symName: __ZN4absl12lts_2024011613cord_internal16CordRepSubstring9SubstringEPNS1_7CordRepEmm.cold.1, symObjAddr: 0xBC34, symBinAddr: 0x5D194, symSize: 0x28 }
  - { offsetInCU: 0x2C0F5, offset: 0xA7D78, size: 0x8, addend: 0x0, symName: __ZN4absl12lts_2024011613cord_internal16CordRepSubstring9SubstringEPNS1_7CordRepEmm.cold.2, symObjAddr: 0xBC5C, symBinAddr: 0x5D1BC, symSize: 0x28 }
  - { offsetInCU: 0x2C10D, offset: 0xA7D90, size: 0x8, addend: 0x0, symName: __ZN4absl12lts_2024011613cord_internal16CordRepSubstring9SubstringEPNS1_7CordRepEmm.cold.5, symObjAddr: 0xBCCC, symBinAddr: 0x5D22C, symSize: 0x28 }
  - { offsetInCU: 0x2C125, offset: 0xA7DA8, size: 0x8, addend: 0x0, symName: __ZN4absl12lts_2024011613cord_internal16CordRepSubstring9SubstringEPNS1_7CordRepEmm.cold.3, symObjAddr: 0xBC84, symBinAddr: 0x5D1E4, symSize: 0x24 }
  - { offsetInCU: 0x2C13D, offset: 0xA7DC0, size: 0x8, addend: 0x0, symName: __ZN4absl12lts_2024011613cord_internal16CordRepSubstring9SubstringEPNS1_7CordRepEmm.cold.4, symObjAddr: 0xBCA8, symBinAddr: 0x5D208, symSize: 0x24 }
  - { offsetInCU: 0x2C16B, offset: 0xA7DEE, size: 0x8, addend: 0x0, symName: __ZN4absl12lts_202401164Cord12RemoveSuffixEm, symObjAddr: 0x3904, symBinAddr: 0x14320, symSize: 0x5C0 }
  - { offsetInCU: 0x2D5D3, offset: 0xA9256, size: 0x8, addend: 0x0, symName: __ZN4absl12lts_202401164Cord12RemoveSuffixEm.cold.1, symObjAddr: 0xBCF4, symBinAddr: 0x5D254, symSize: 0x28 }
  - { offsetInCU: 0x2D601, offset: 0xA9284, size: 0x8, addend: 0x0, symName: __ZN4absl12lts_202401164Cord12RemoveSuffixEm.cold.2, symObjAddr: 0xBD1C, symBinAddr: 0x5D27C, symSize: 0x28 }
  - { offsetInCU: 0x2D62F, offset: 0xA92B2, size: 0x8, addend: 0x0, symName: __ZN4absl12lts_202401164Cord12RemoveSuffixEm.cold.3, symObjAddr: 0xBD44, symBinAddr: 0x5D2A4, symSize: 0x24 }
  - { offsetInCU: 0x2D6B4, offset: 0xA9337, size: 0x8, addend: 0x0, symName: __ZN4absl12lts_202401164Cord12RemoveSuffixEm.cold.4, symObjAddr: 0xBD68, symBinAddr: 0x5D2C8, symSize: 0x24 }
  - { offsetInCU: 0x2D739, offset: 0xA93BC, size: 0x8, addend: 0x0, symName: __ZN4absl12lts_202401164Cord12RemoveSuffixEm.cold.6, symObjAddr: 0xBDB0, symBinAddr: 0x5D310, symSize: 0x24 }
  - { offsetInCU: 0x2D767, offset: 0xA93EA, size: 0x8, addend: 0x0, symName: __ZN4absl12lts_202401164Cord12RemoveSuffixEm.cold.5, symObjAddr: 0xBD8C, symBinAddr: 0x5D2EC, symSize: 0x24 }
  - { offsetInCU: 0x2D861, offset: 0xA94E4, size: 0x8, addend: 0x0, symName: __ZNK4absl12lts_202401164Cord7SubcordEmm, symObjAddr: 0x3EC4, symBinAddr: 0x148E0, symSize: 0x440 }
  - { offsetInCU: 0x2DFE2, offset: 0xA9C65, size: 0x8, addend: 0x0, symName: __ZN4absl12lts_202401164Cord13ChunkIterator17AdvanceBytesBtreeEm, symObjAddr: 0x8A1C, symBinAddr: 0x1868C, symSize: 0x80 }
  - { offsetInCU: 0x2E0B3, offset: 0xA9D36, size: 0x8, addend: 0x0, symName: __ZN4absl12lts_2024011613cord_internal18CordRepBtreeReader4SeekEm, symObjAddr: 0x8A9C, symBinAddr: 0x1870C, symSize: 0xFC }
  - { offsetInCU: 0x2E0BE, offset: 0xA9D41, size: 0x8, addend: 0x0, symName: __ZN4absl12lts_202401164Cord15SetCrcCordStateENS0_12crc_internal12CrcCordStateE, symObjAddr: 0x4304, symBinAddr: 0x14D20, symSize: 0x230 }
  - { offsetInCU: 0x2E6E9, offset: 0xAA36C, size: 0x8, addend: 0x0, symName: __ZN4absl12lts_202401164Cord15SetCrcCordStateENS0_12crc_internal12CrcCordStateE.cold.2, symObjAddr: 0xBDF8, symBinAddr: 0x5D358, symSize: 0x24 }
  - { offsetInCU: 0x2E717, offset: 0xAA39A, size: 0x8, addend: 0x0, symName: __ZN4absl12lts_202401164Cord15SetCrcCordStateENS0_12crc_internal12CrcCordStateE.cold.1, symObjAddr: 0xBDD4, symBinAddr: 0x5D334, symSize: 0x24 }
  - { offsetInCU: 0x2E745, offset: 0xAA3C8, size: 0x8, addend: 0x0, symName: __ZN4absl12lts_202401164Cord15SetCrcCordStateENS0_12crc_internal12CrcCordStateE.cold.3, symObjAddr: 0xBE1C, symBinAddr: 0x5D37C, symSize: 0x24 }
  - { offsetInCU: 0x2E789, offset: 0xAA40C, size: 0x8, addend: 0x0, symName: __ZN4absl12lts_202401164Cord15SetCrcCordStateENS0_12crc_internal12CrcCordStateE.cold.5, symObjAddr: 0xBE64, symBinAddr: 0x5D3C4, symSize: 0x24 }
  - { offsetInCU: 0x2E7B7, offset: 0xAA43A, size: 0x8, addend: 0x0, symName: __ZN4absl12lts_202401164Cord15SetCrcCordStateENS0_12crc_internal12CrcCordStateE.cold.4, symObjAddr: 0xBE40, symBinAddr: 0x5D3A0, symSize: 0x24 }
  - { offsetInCU: 0x2E845, offset: 0xAA4C8, size: 0x8, addend: 0x0, symName: __ZN4absl12lts_202401164Cord19SetExpectedChecksumEj, symObjAddr: 0x4534, symBinAddr: 0x14F50, symSize: 0xB4 }
  - { offsetInCU: 0x2EA71, offset: 0xAA6F4, size: 0x8, addend: 0x0, symName: __ZN4absl12lts_2024011612crc_internal12CrcCordState11mutable_repEv, symObjAddr: 0x45E8, symBinAddr: 0x15004, symSize: 0x84 }
  - { offsetInCU: 0x2ECE1, offset: 0xAA964, size: 0x8, addend: 0x0, symName: __ZNSt3__15dequeIN4absl12lts_2024011612crc_internal12CrcCordState9PrefixCrcENS_9allocatorIS5_EEE9push_backEOS5_, symObjAddr: 0x466C, symBinAddr: 0x15088, symSize: 0x80 }
  - { offsetInCU: 0x2EEEC, offset: 0xAAB6F, size: 0x8, addend: 0x0, symName: __ZNSt3__15dequeIN4absl12lts_2024011612crc_internal12CrcCordState9PrefixCrcENS_9allocatorIS5_EEEaSERKS8_, symObjAddr: 0x8D80, symBinAddr: 0x189F0, symSize: 0x98 }
  - { offsetInCU: 0x2EFC9, offset: 0xAAC4C, size: 0x8, addend: 0x0, symName: __ZN4absl12lts_2024011612crc_internal12CrcCordState5UnrefEPNS2_13RefcountedRepE, symObjAddr: 0x8D30, symBinAddr: 0x189A0, symSize: 0x50 }
  - { offsetInCU: 0x2F0D1, offset: 0xAAD54, size: 0x8, addend: 0x0, symName: __ZNSt3__15dequeIN4absl12lts_2024011612crc_internal12CrcCordState9PrefixCrcENS_9allocatorIS5_EEEaSERKS8_, symObjAddr: 0x8D80, symBinAddr: 0x189F0, symSize: 0x98 }
  - { offsetInCU: 0x2F1FE, offset: 0xAAE81, size: 0x8, addend: 0x0, symName: __ZNSt3__15dequeIN4absl12lts_2024011612crc_internal12CrcCordState9PrefixCrcENS_9allocatorIS5_EEE19__add_back_capacityEv, symObjAddr: 0xA298, symBinAddr: 0x19E6C, symSize: 0x368 }
  - { offsetInCU: 0x3034C, offset: 0xABFCF, size: 0x8, addend: 0x0, symName: __ZNK4absl12lts_202401164Cord20MaybeGetCrcCordStateEv, symObjAddr: 0x46EC, symBinAddr: 0x15108, symSize: 0x28 }
  - { offsetInCU: 0x30379, offset: 0xABFFC, size: 0x8, addend: 0x0, symName: __ZNK4absl12lts_202401164Cord20MaybeGetCrcCordStateEv, symObjAddr: 0x46EC, symBinAddr: 0x15108, symSize: 0x28 }
  - { offsetInCU: 0x30395, offset: 0xAC018, size: 0x8, addend: 0x0, symName: __ZNK4absl12lts_202401164Cord20MaybeGetCrcCordStateEv, symObjAddr: 0x46EC, symBinAddr: 0x15108, symSize: 0x28 }
  - { offsetInCU: 0x303B1, offset: 0xAC034, size: 0x8, addend: 0x0, symName: __ZNK4absl12lts_202401164Cord20MaybeGetCrcCordStateEv, symObjAddr: 0x46EC, symBinAddr: 0x15108, symSize: 0x28 }
  - { offsetInCU: 0x3045E, offset: 0xAC0E1, size: 0x8, addend: 0x0, symName: __ZNK4absl12lts_202401164Cord16ExpectedChecksumEv, symObjAddr: 0x4714, symBinAddr: 0x15130, symSize: 0x48 }
  - { offsetInCU: 0x30570, offset: 0xAC1F3, size: 0x8, addend: 0x0, symName: __ZNK4absl12lts_202401164Cord10EqualsImplENS0_11string_viewEm, symObjAddr: 0x475C, symBinAddr: 0x15178, symSize: 0x28 }
  - { offsetInCU: 0x305DC, offset: 0xAC25F, size: 0x8, addend: 0x0, symName: __ZNK4absl12lts_202401164Cord9InlineRep18FindFlatStartPieceEv, symObjAddr: 0xA794, symBinAddr: 0x1A368, symSize: 0x160 }
  - { offsetInCU: 0x30B46, offset: 0xAC7C9, size: 0x8, addend: 0x0, symName: __ZN4absl12lts_2024011612_GLOBAL__N_113CompareChunksEPNS0_11string_viewES3_Pm, symObjAddr: 0xA8F4, symBinAddr: 0x1A4C8, symSize: 0x98 }
  - { offsetInCU: 0x30B51, offset: 0xAC7D4, size: 0x8, addend: 0x0, symName: __ZNK4absl12lts_202401164Cord15CompareSlowPathENS0_11string_viewEmm, symObjAddr: 0xA600, symBinAddr: 0x1A1D4, symSize: 0x194 }
  - { offsetInCU: 0x30E8F, offset: 0xACB12, size: 0x8, addend: 0x0, symName: __ZN4absl12lts_2024011614GenericCompareIbNS0_11string_viewEEET_RKNS0_4CordERKT0_m.cold.1, symObjAddr: 0xBE88, symBinAddr: 0x5D3E8, symSize: 0x24 }
  - { offsetInCU: 0x30EA7, offset: 0xACB2A, size: 0x8, addend: 0x0, symName: __ZNK4absl12lts_202401164Cord10EqualsImplERKS1_m, symObjAddr: 0x483C, symBinAddr: 0x15258, symSize: 0x4 }
  - { offsetInCU: 0x30ED8, offset: 0xACB5B, size: 0x8, addend: 0x0, symName: __ZNK4absl12lts_202401164Cord10EqualsImplERKS1_m, symObjAddr: 0x483C, symBinAddr: 0x15258, symSize: 0x4 }
  - { offsetInCU: 0x30EF8, offset: 0xACB7B, size: 0x8, addend: 0x0, symName: __ZNK4absl12lts_202401164Cord15CompareSlowPathERKS1_mm, symObjAddr: 0xA98C, symBinAddr: 0x1A560, symSize: 0x22C }
  - { offsetInCU: 0x313D6, offset: 0xAD059, size: 0x8, addend: 0x0, symName: __ZN4absl12lts_2024011614GenericCompareIbNS0_4CordEEET_RKS2_RKT0_m.cold.1, symObjAddr: 0xBEAC, symBinAddr: 0x5D40C, symSize: 0x24 }
  - { offsetInCU: 0x313EE, offset: 0xAD071, size: 0x8, addend: 0x0, symName: __ZNK4absl12lts_202401164Cord7CompareENS0_11string_viewE, symObjAddr: 0x492C, symBinAddr: 0x15348, symSize: 0x6C }
  - { offsetInCU: 0x315E5, offset: 0xAD268, size: 0x8, addend: 0x0, symName: __ZNK4absl12lts_202401164Cord11CompareImplERKS1_, symObjAddr: 0x4998, symBinAddr: 0x153B4, symSize: 0x74 }
  - { offsetInCU: 0x319FD, offset: 0xAD680, size: 0x8, addend: 0x0, symName: __ZNK4absl12lts_202401164Cord8EndsWithENS0_11string_viewE, symObjAddr: 0x4A0C, symBinAddr: 0x15428, symSize: 0xF0 }
  - { offsetInCU: 0x31E87, offset: 0xADB0A, size: 0x8, addend: 0x0, symName: __ZNK4absl12lts_202401164Cord8EndsWithERKS1_, symObjAddr: 0x4B78, symBinAddr: 0x15594, symSize: 0x104 }
  - { offsetInCU: 0x324EA, offset: 0xAE16D, size: 0x8, addend: 0x0, symName: __ZNK4absl12lts_202401164CordcvNSt3__112basic_stringIcNS2_11char_traitsIcEENS2_9allocatorIcEEEEEv, symObjAddr: 0x4C7C, symBinAddr: 0x15698, symSize: 0x48 }
  - { offsetInCU: 0x326E6, offset: 0xAE369, size: 0x8, addend: 0x0, symName: __ZNK4absl12lts_202401164Cord9InlineRep6CopyToEPNSt3__112basic_stringIcNS3_11char_traitsIcEENS3_9allocatorIcEEEE, symObjAddr: 0x4D24, symBinAddr: 0x15740, symSize: 0x70 }
  - { offsetInCU: 0x328D1, offset: 0xAE554, size: 0x8, addend: 0x0, symName: __ZNK4absl12lts_202401164Cord19CopyToArraySlowPathEPc, symObjAddr: 0x4D94, symBinAddr: 0x157B0, symSize: 0x12C }
  - { offsetInCU: 0x328DC, offset: 0xAE55F, size: 0x8, addend: 0x0, symName: __ZN4absl12lts_2024011616strings_internal25ResizeUninitializedTraitsINSt3__112basic_stringIcNS3_11char_traitsIcEENS3_9allocatorIcEEEEvE6ResizeEPS9_m, symObjAddr: 0xA124, symBinAddr: 0x19D94, symSize: 0xD8 }
  - { offsetInCU: 0x32BD3, offset: 0xAE856, size: 0x8, addend: 0x0, symName: __ZNK4absl12lts_202401164Cord19CopyToArraySlowPathEPc, symObjAddr: 0x4D94, symBinAddr: 0x157B0, symSize: 0x12C }
  - { offsetInCU: 0x32EFE, offset: 0xAEB81, size: 0x8, addend: 0x0, symName: __ZNK4absl12lts_202401164Cord9InlineRep6CopyToEPNSt3__112basic_stringIcNS3_11char_traitsIcEENS3_9allocatorIcEEEE.cold.2, symObjAddr: 0xBEF4, symBinAddr: 0x5D454, symSize: 0x24 }
  - { offsetInCU: 0x32F2C, offset: 0xAEBAF, size: 0x8, addend: 0x0, symName: __ZNK4absl12lts_202401164Cord9InlineRep6CopyToEPNSt3__112basic_stringIcNS3_11char_traitsIcEENS3_9allocatorIcEEEE.cold.1, symObjAddr: 0xBED0, symBinAddr: 0x5D430, symSize: 0x24 }
  - { offsetInCU: 0x32FE6, offset: 0xAEC69, size: 0x8, addend: 0x0, symName: __ZN4absl12lts_202401164Cord10GetFlatAuxEPNS0_13cord_internal7CordRepEPNS0_11string_viewE, symObjAddr: 0x4EC0, symBinAddr: 0x158DC, symSize: 0x13C }
  - { offsetInCU: 0x332D7, offset: 0xAEF5A, size: 0x8, addend: 0x0, symName: __ZN4absl12lts_202401164Cord13ChunkIterator19AdvanceAndReadBytesEm, symObjAddr: 0x4FFC, symBinAddr: 0x15A18, symSize: 0x4C0 }
  - { offsetInCU: 0x332E2, offset: 0xAEF65, size: 0x8, addend: 0x0, symName: __ZNK4absl12lts_202401164Cord19CopyToArraySlowPathEPc.cold.2, symObjAddr: 0xBF40, symBinAddr: 0x5D4A0, symSize: 0x24 }
  - { offsetInCU: 0x33310, offset: 0xAEF93, size: 0x8, addend: 0x0, symName: __ZNK4absl12lts_202401164Cord19CopyToArraySlowPathEPc.cold.3, symObjAddr: 0xBF64, symBinAddr: 0x5D4C4, symSize: 0x24 }
  - { offsetInCU: 0x3333E, offset: 0xAEFC1, size: 0x8, addend: 0x0, symName: __ZNK4absl12lts_202401164Cord19CopyToArraySlowPathEPc.cold.1, symObjAddr: 0xBF18, symBinAddr: 0x5D478, symSize: 0x28 }
  - { offsetInCU: 0x33356, offset: 0xAEFD9, size: 0x8, addend: 0x0, symName: __ZN4absl12lts_202401164Cord10GetFlatAuxEPNS0_13cord_internal7CordRepEPNS0_11string_viewE.cold.1, symObjAddr: 0xBF88, symBinAddr: 0x5D4E8, symSize: 0x28 }
  - { offsetInCU: 0x3336E, offset: 0xAEFF1, size: 0x8, addend: 0x0, symName: __ZN4absl12lts_202401164Cord10GetFlatAuxEPNS0_13cord_internal7CordRepEPNS0_11string_viewE.cold.2, symObjAddr: 0xBFB0, symBinAddr: 0x5D510, symSize: 0x24 }
  - { offsetInCU: 0x3339C, offset: 0xAF01F, size: 0x8, addend: 0x0, symName: __ZN4absl12lts_202401164Cord10GetFlatAuxEPNS0_13cord_internal7CordRepEPNS0_11string_viewE.cold.3, symObjAddr: 0xBFD4, symBinAddr: 0x5D534, symSize: 0x24 }
  - { offsetInCU: 0x3340A, offset: 0xAF08D, size: 0x8, addend: 0x0, symName: __ZN4absl12lts_202401164Cord10GetFlatAuxEPNS0_13cord_internal7CordRepEPNS0_11string_viewE.cold.4, symObjAddr: 0xBFF8, symBinAddr: 0x5D558, symSize: 0x24 }
  - { offsetInCU: 0x33478, offset: 0xAF0FB, size: 0x8, addend: 0x0, symName: __ZN4absl12lts_202401164Cord10GetFlatAuxEPNS0_13cord_internal7CordRepEPNS0_11string_viewE.cold.5, symObjAddr: 0xC01C, symBinAddr: 0x5D57C, symSize: 0x24 }
  - { offsetInCU: 0x334A6, offset: 0xAF129, size: 0x8, addend: 0x0, symName: __ZN4absl12lts_202401164Cord10GetFlatAuxEPNS0_13cord_internal7CordRepEPNS0_11string_viewE.cold.6, symObjAddr: 0xC040, symBinAddr: 0x5D5A0, symSize: 0x24 }
  - { offsetInCU: 0x33514, offset: 0xAF197, size: 0x8, addend: 0x0, symName: __ZN4absl12lts_202401164Cord10GetFlatAuxEPNS0_13cord_internal7CordRepEPNS0_11string_viewE.cold.7, symObjAddr: 0xC064, symBinAddr: 0x5D5C4, symSize: 0x24 }
  - { offsetInCU: 0x33638, offset: 0xAF2BB, size: 0x8, addend: 0x0, symName: __ZN4absl12lts_202401164Cord13ChunkIterator19AdvanceAndReadBytesEm, symObjAddr: 0x4FFC, symBinAddr: 0x15A18, symSize: 0x4C0 }
  - { offsetInCU: 0x3403D, offset: 0xAFCC0, size: 0x8, addend: 0x0, symName: __ZN4absl12lts_2024011613cord_internal18CordRepBtreeReader4NextEv, symObjAddr: 0x5500, symBinAddr: 0x15ED8, symSize: 0x114 }
  - { offsetInCU: 0x34048, offset: 0xAFCCB, size: 0x8, addend: 0x0, symName: __ZN4absl12lts_202401164Cord13ChunkIterator19AdvanceAndReadBytesEm.cold.1, symObjAddr: 0xC088, symBinAddr: 0x5D5E8, symSize: 0x28 }
  - { offsetInCU: 0x3416F, offset: 0xAFDF2, size: 0x8, addend: 0x0, symName: __ZN4absl12lts_2024011613cord_internal21CordRepBtreeNavigator6NextUpEv, symObjAddr: 0x9F48, symBinAddr: 0x19BB8, symSize: 0xFC }
  - { offsetInCU: 0x34342, offset: 0xAFFC5, size: 0x8, addend: 0x0, symName: __ZN4absl12lts_202401164Cord13ChunkIteratorC2EPNS0_13cord_internal7CordRepE, symObjAddr: 0xA044, symBinAddr: 0x19CB4, symSize: 0xE0 }
  - { offsetInCU: 0x3434D, offset: 0xAFFD0, size: 0x8, addend: 0x0, symName: __ZN4absl12lts_2024011613cord_internal18CordRepBtreeReader4NextEv.cold.1, symObjAddr: 0xC0D4, symBinAddr: 0x5D610, symSize: 0x28 }
  - { offsetInCU: 0x34365, offset: 0xAFFE8, size: 0x8, addend: 0x0, symName: __ZN4absl12lts_2024011613cord_internal18CordRepBtreeReader4NextEv.cold.6, symObjAddr: 0xC18C, symBinAddr: 0x5D6C8, symSize: 0x24 }
  - { offsetInCU: 0x343A7, offset: 0xB002A, size: 0x8, addend: 0x0, symName: __ZN4absl12lts_2024011613cord_internal18CordRepBtreeReader4NextEv.cold.7, symObjAddr: 0xC1B0, symBinAddr: 0x5D6EC, symSize: 0x24 }
  - { offsetInCU: 0x343E9, offset: 0xB006C, size: 0x8, addend: 0x0, symName: __ZN4absl12lts_2024011613cord_internal18CordRepBtreeReader4NextEv.cold.5, symObjAddr: 0xC168, symBinAddr: 0x5D6A4, symSize: 0x24 }
  - { offsetInCU: 0x34416, offset: 0xB0099, size: 0x8, addend: 0x0, symName: __ZN4absl12lts_2024011613cord_internal18CordRepBtreeReader4NextEv.cold.2, symObjAddr: 0xC0FC, symBinAddr: 0x5D638, symSize: 0x24 }
  - { offsetInCU: 0x34458, offset: 0xB00DB, size: 0x8, addend: 0x0, symName: __ZN4absl12lts_2024011613cord_internal18CordRepBtreeReader4NextEv.cold.3, symObjAddr: 0xC120, symBinAddr: 0x5D65C, symSize: 0x24 }
  - { offsetInCU: 0x344DA, offset: 0xB015D, size: 0x8, addend: 0x0, symName: __ZN4absl12lts_2024011613cord_internal18CordRepBtreeReader4NextEv.cold.4, symObjAddr: 0xC144, symBinAddr: 0x5D680, symSize: 0x24 }
  - { offsetInCU: 0x3458A, offset: 0xB020D, size: 0x8, addend: 0x0, symName: __ZNK4absl12lts_202401164CordixEm, symObjAddr: 0x5614, symBinAddr: 0x15FEC, symSize: 0xD4 }
  - { offsetInCU: 0x347C4, offset: 0xB0447, size: 0x8, addend: 0x0, symName: __ZNK4absl12lts_202401164Cord8FindImplENS1_12CharIteratorENS0_11string_viewE, symObjAddr: 0x56E8, symBinAddr: 0x160C0, symSize: 0x3B0 }
  - { offsetInCU: 0x347F8, offset: 0xB047B, size: 0x8, addend: 0x0, symName: __ZNK4absl12lts_202401164CordixEm.cold.2, symObjAddr: 0xC1FC, symBinAddr: 0x5D738, symSize: 0x28 }
  - { offsetInCU: 0x34810, offset: 0xB0493, size: 0x8, addend: 0x0, symName: __ZNK4absl12lts_202401164CordixEm.cold.1, symObjAddr: 0xC1D4, symBinAddr: 0x5D710, symSize: 0x28 }
  - { offsetInCU: 0x3483E, offset: 0xB04C1, size: 0x8, addend: 0x0, symName: __ZNK4absl12lts_202401164CordixEm.cold.5, symObjAddr: 0xC270, symBinAddr: 0x5D7AC, symSize: 0x28 }
  - { offsetInCU: 0x34856, offset: 0xB04D9, size: 0x8, addend: 0x0, symName: __ZNK4absl12lts_202401164CordixEm.cold.4, symObjAddr: 0xC248, symBinAddr: 0x5D784, symSize: 0x28 }
  - { offsetInCU: 0x3486E, offset: 0xB04F1, size: 0x8, addend: 0x0, symName: __ZNK4absl12lts_202401164CordixEm.cold.3, symObjAddr: 0xC224, symBinAddr: 0x5D760, symSize: 0x24 }
  - { offsetInCU: 0x34A55, offset: 0xB06D8, size: 0x8, addend: 0x0, symName: __ZNK4absl12lts_202401164Cord8FindImplENS1_12CharIteratorENS0_11string_viewE, symObjAddr: 0x56E8, symBinAddr: 0x160C0, symSize: 0x3B0 }
  - { offsetInCU: 0x3521D, offset: 0xB0EA0, size: 0x8, addend: 0x0, symName: __ZNK4absl12lts_202401164Cord4FindENS0_11string_viewE, symObjAddr: 0x5A98, symBinAddr: 0x16470, symSize: 0x13C }
  - { offsetInCU: 0x35228, offset: 0xB0EAB, size: 0x8, addend: 0x0, symName: __ZN4absl12lts_2024011613cord_internal18CordRepBtreeReader4SeekEm, symObjAddr: 0x8A9C, symBinAddr: 0x1870C, symSize: 0xFC }
  - { offsetInCU: 0x3540F, offset: 0xB1092, size: 0x8, addend: 0x0, symName: __ZN4absl12lts_2024011613cord_internal21CordRepBtreeNavigator4SeekEm, symObjAddr: 0x8B98, symBinAddr: 0x18808, symSize: 0x164 }
  - { offsetInCU: 0x3541A, offset: 0xB109D, size: 0x8, addend: 0x0, symName: __ZNK4absl12lts_202401164Cord8FindImplENS1_12CharIteratorENS0_11string_viewE.cold.8, symObjAddr: 0xC3A0, symBinAddr: 0x5D8DC, symSize: 0x28 }
  - { offsetInCU: 0x35448, offset: 0xB10CB, size: 0x8, addend: 0x0, symName: __ZNK4absl12lts_202401164Cord8FindImplENS1_12CharIteratorENS0_11string_viewE.cold.9, symObjAddr: 0xC3C8, symBinAddr: 0x5D904, symSize: 0x24 }
  - { offsetInCU: 0x354B7, offset: 0xB113A, size: 0x8, addend: 0x0, symName: __ZNK4absl12lts_202401164Cord8FindImplENS1_12CharIteratorENS0_11string_viewE.cold.10, symObjAddr: 0xC3EC, symBinAddr: 0x5D928, symSize: 0x24 }
  - { offsetInCU: 0x35511, offset: 0xB1194, size: 0x8, addend: 0x0, symName: __ZNK4absl12lts_202401164Cord8FindImplENS1_12CharIteratorENS0_11string_viewE.cold.3, symObjAddr: 0xC2E8, symBinAddr: 0x5D824, symSize: 0x24 }
  - { offsetInCU: 0x3556B, offset: 0xB11EE, size: 0x8, addend: 0x0, symName: __ZNK4absl12lts_202401164Cord8FindImplENS1_12CharIteratorENS0_11string_viewE.cold.4, symObjAddr: 0xC30C, symBinAddr: 0x5D848, symSize: 0x28 }
  - { offsetInCU: 0x35583, offset: 0xB1206, size: 0x8, addend: 0x0, symName: __ZNK4absl12lts_202401164Cord8FindImplENS1_12CharIteratorENS0_11string_viewE.cold.6, symObjAddr: 0xC358, symBinAddr: 0x5D894, symSize: 0x24 }
  - { offsetInCU: 0x355C7, offset: 0xB124A, size: 0x8, addend: 0x0, symName: __ZNK4absl12lts_202401164Cord8FindImplENS1_12CharIteratorENS0_11string_viewE.cold.7, symObjAddr: 0xC37C, symBinAddr: 0x5D8B8, symSize: 0x24 }
  - { offsetInCU: 0x35637, offset: 0xB12BA, size: 0x8, addend: 0x0, symName: __ZNK4absl12lts_202401164Cord8FindImplENS1_12CharIteratorENS0_11string_viewE.cold.5, symObjAddr: 0xC334, symBinAddr: 0x5D870, symSize: 0x24 }
  - { offsetInCU: 0x3567B, offset: 0xB12FE, size: 0x8, addend: 0x0, symName: __ZNK4absl12lts_202401164Cord8FindImplENS1_12CharIteratorENS0_11string_viewE.cold.12, symObjAddr: 0xC434, symBinAddr: 0x5D970, symSize: 0x24 }
  - { offsetInCU: 0x356BF, offset: 0xB1342, size: 0x8, addend: 0x0, symName: __ZNK4absl12lts_202401164Cord8FindImplENS1_12CharIteratorENS0_11string_viewE.cold.1, symObjAddr: 0xC298, symBinAddr: 0x5D7D4, symSize: 0x28 }
  - { offsetInCU: 0x356D7, offset: 0xB135A, size: 0x8, addend: 0x0, symName: __ZNK4absl12lts_202401164Cord8FindImplENS1_12CharIteratorENS0_11string_viewE.cold.2, symObjAddr: 0xC2C0, symBinAddr: 0x5D7FC, symSize: 0x28 }
  - { offsetInCU: 0x356EF, offset: 0xB1372, size: 0x8, addend: 0x0, symName: __ZNK4absl12lts_202401164Cord8FindImplENS1_12CharIteratorENS0_11string_viewE.cold.11, symObjAddr: 0xC410, symBinAddr: 0x5D94C, symSize: 0x24 }
  - { offsetInCU: 0x357C3, offset: 0xB1446, size: 0x8, addend: 0x0, symName: __ZNK4absl12lts_202401164Cord4FindENS0_11string_viewE, symObjAddr: 0x5A98, symBinAddr: 0x16470, symSize: 0x13C }
  - { offsetInCU: 0x35BB7, offset: 0xB183A, size: 0x8, addend: 0x0, symName: __ZNK4absl12lts_202401164Cord4FindERKS1_, symObjAddr: 0x5BD4, symBinAddr: 0x165AC, symSize: 0x518 }
  - { offsetInCU: 0x36A19, offset: 0xB269C, size: 0x8, addend: 0x0, symName: __ZNK4absl12lts_202401164Cord4FindERKS1_.cold.2, symObjAddr: 0xC47C, symBinAddr: 0x5D9B8, symSize: 0x24 }
  - { offsetInCU: 0x36A5D, offset: 0xB26E0, size: 0x8, addend: 0x0, symName: __ZNK4absl12lts_202401164Cord4FindERKS1_.cold.3, symObjAddr: 0xC4A0, symBinAddr: 0x5D9DC, symSize: 0x24 }
  - { offsetInCU: 0x36AA1, offset: 0xB2724, size: 0x8, addend: 0x0, symName: __ZNK4absl12lts_202401164Cord4FindERKS1_.cold.4, symObjAddr: 0xC4C4, symBinAddr: 0x5DA00, symSize: 0x24 }
  - { offsetInCU: 0x36AE5, offset: 0xB2768, size: 0x8, addend: 0x0, symName: __ZNK4absl12lts_202401164Cord4FindERKS1_.cold.1, symObjAddr: 0xC458, symBinAddr: 0x5D994, symSize: 0x24 }
  - { offsetInCU: 0x36B63, offset: 0xB27E6, size: 0x8, addend: 0x0, symName: __ZN4absl12lts_2024011612_GLOBAL__N_117IsSubcordInCordAtENS0_4Cord12CharIteratorES3_S3_.cold.1, symObjAddr: 0xC4E8, symBinAddr: 0x5DA24, symSize: 0x24 }
  - { offsetInCU: 0x36BBD, offset: 0xB2840, size: 0x8, addend: 0x0, symName: __ZN4absl12lts_2024011612_GLOBAL__N_117IsSubcordInCordAtENS0_4Cord12CharIteratorES3_S3_.cold.2, symObjAddr: 0xC50C, symBinAddr: 0x5DA48, symSize: 0x28 }
  - { offsetInCU: 0x36BD5, offset: 0xB2858, size: 0x8, addend: 0x0, symName: __ZN4absl12lts_2024011612_GLOBAL__N_117IsSubcordInCordAtENS0_4Cord12CharIteratorES3_S3_.cold.3, symObjAddr: 0xC534, symBinAddr: 0x5DA70, symSize: 0x24 }
  - { offsetInCU: 0x36C2F, offset: 0xB28B2, size: 0x8, addend: 0x0, symName: __ZN4absl12lts_2024011612_GLOBAL__N_117IsSubcordInCordAtENS0_4Cord12CharIteratorES3_S3_.cold.4, symObjAddr: 0xC558, symBinAddr: 0x5DA94, symSize: 0x24 }
  - { offsetInCU: 0x36C73, offset: 0xB28F6, size: 0x8, addend: 0x0, symName: __ZN4absl12lts_2024011612_GLOBAL__N_117IsSubcordInCordAtENS0_4Cord12CharIteratorES3_S3_.cold.5, symObjAddr: 0xC57C, symBinAddr: 0x5DAB8, symSize: 0x24 }
  - { offsetInCU: 0x36CB7, offset: 0xB293A, size: 0x8, addend: 0x0, symName: __ZNK4absl12lts_202401164Cord8ContainsENS0_11string_viewE, symObjAddr: 0x629C, symBinAddr: 0x16C74, symSize: 0x64 }
  - { offsetInCU: 0x36D5C, offset: 0xB29DF, size: 0x8, addend: 0x0, symName: __ZNK4absl12lts_202401164Cord8ContainsERKS1_, symObjAddr: 0x6300, symBinAddr: 0x16CD8, symSize: 0x7C }
  - { offsetInCU: 0x36FDC, offset: 0xB2C5F, size: 0x8, addend: 0x0, symName: __ZN4absl12lts_202401164Cord15FlattenSlowPathEv.cold.1, symObjAddr: 0xC5A0, symBinAddr: 0x5DADC, symSize: 0x28 }
  - { offsetInCU: 0x36FF4, offset: 0xB2C77, size: 0x8, addend: 0x0, symName: __ZN4absl12lts_202401164Cord15FlattenSlowPathEv.cold.2, symObjAddr: 0xC5C8, symBinAddr: 0x5DB04, symSize: 0x24 }
  - { offsetInCU: 0x37022, offset: 0xB2CA5, size: 0x8, addend: 0x0, symName: __ZN4absl12lts_202401164Cord15FlattenSlowPathEv.cold.3, symObjAddr: 0xC5EC, symBinAddr: 0x5DB28, symSize: 0x24 }
  - { offsetInCU: 0x370DE, offset: 0xB2D61, size: 0x8, addend: 0x0, symName: __ZN4absl12lts_202401164Cord15ForEachChunkAuxEPNS0_13cord_internal7CordRepENS0_11FunctionRefIFvNS0_11string_viewEEEE, symObjAddr: 0x6578, symBinAddr: 0x16F50, symSize: 0x158 }
  - { offsetInCU: 0x373DF, offset: 0xB3062, size: 0x8, addend: 0x0, symName: __ZN4absl12lts_202401164Cord13ChunkIteratorC2EPNS0_13cord_internal7CordRepE, symObjAddr: 0xA044, symBinAddr: 0x19CB4, symSize: 0xE0 }
  - { offsetInCU: 0x375FA, offset: 0xB327D, size: 0x8, addend: 0x0, symName: __ZN4absl12lts_2024011616strings_internal25ResizeUninitializedTraitsINSt3__112basic_stringIcNS3_11char_traitsIcEENS3_9allocatorIcEEEEvE6ResizeEPS9_m, symObjAddr: 0xA124, symBinAddr: 0x19D94, symSize: 0xD8 }
  - { offsetInCU: 0x37605, offset: 0xB3288, size: 0x8, addend: 0x0, symName: __ZN4absl12lts_202401164Cord15ForEachChunkAuxEPNS0_13cord_internal7CordRepENS0_11FunctionRefIFvNS0_11string_viewEEEE.cold.3, symObjAddr: 0xC660, symBinAddr: 0x5DB9C, symSize: 0x24 }
  - { offsetInCU: 0x37649, offset: 0xB32CC, size: 0x8, addend: 0x0, symName: __ZN4absl12lts_202401164Cord15ForEachChunkAuxEPNS0_13cord_internal7CordRepENS0_11FunctionRefIFvNS0_11string_viewEEEE.cold.4, symObjAddr: 0xC684, symBinAddr: 0x5DBC0, symSize: 0x24 }
  - { offsetInCU: 0x37677, offset: 0xB32FA, size: 0x8, addend: 0x0, symName: __ZN4absl12lts_202401164Cord15ForEachChunkAuxEPNS0_13cord_internal7CordRepENS0_11FunctionRefIFvNS0_11string_viewEEEE.cold.5, symObjAddr: 0xC6A8, symBinAddr: 0x5DBE4, symSize: 0x24 }
  - { offsetInCU: 0x376A5, offset: 0xB3328, size: 0x8, addend: 0x0, symName: __ZN4absl12lts_202401164Cord15ForEachChunkAuxEPNS0_13cord_internal7CordRepENS0_11FunctionRefIFvNS0_11string_viewEEEE.cold.1, symObjAddr: 0xC610, symBinAddr: 0x5DB4C, symSize: 0x28 }
  - { offsetInCU: 0x376BD, offset: 0xB3340, size: 0x8, addend: 0x0, symName: __ZN4absl12lts_202401164Cord15ForEachChunkAuxEPNS0_13cord_internal7CordRepENS0_11FunctionRefIFvNS0_11string_viewEEEE.cold.2, symObjAddr: 0xC638, symBinAddr: 0x5DB74, symSize: 0x28 }
  - { offsetInCU: 0x376D5, offset: 0xB3358, size: 0x8, addend: 0x0, symName: __ZN4absl12lts_20240116lsERNSt3__113basic_ostreamIcNS1_11char_traitsIcEEEERKNS0_4CordE.cold.1, symObjAddr: 0xC6CC, symBinAddr: 0x5DC08, symSize: 0x24 }
  - { offsetInCU: 0x37719, offset: 0xB339C, size: 0x8, addend: 0x0, symName: __ZN4absl12lts_20240116lsERNSt3__113basic_ostreamIcNS1_11char_traitsIcEEEERKNS0_4CordE.cold.2, symObjAddr: 0xC6F0, symBinAddr: 0x5DC2C, symSize: 0x24 }
  - { offsetInCU: 0x37747, offset: 0xB33CA, size: 0x8, addend: 0x0, symName: __ZN4absl12lts_20240116lsERNSt3__113basic_ostreamIcNS1_11char_traitsIcEEEERKNS0_4CordE.cold.3, symObjAddr: 0xC714, symBinAddr: 0x5DC50, symSize: 0x24 }
  - { offsetInCU: 0x37775, offset: 0xB33F8, size: 0x8, addend: 0x0, symName: __ZN4absl12lts_2024011616strings_internal14CordTestAccess12FlatOverheadEv, symObjAddr: 0x67B8, symBinAddr: 0x17190, symSize: 0x8 }
  - { offsetInCU: 0x3778C, offset: 0xB340F, size: 0x8, addend: 0x0, symName: __ZN4absl12lts_2024011616strings_internal14CordTestAccess13MaxFlatLengthEv, symObjAddr: 0x67C0, symBinAddr: 0x17198, symSize: 0x8 }
  - { offsetInCU: 0x377A3, offset: 0xB3426, size: 0x8, addend: 0x0, symName: __ZN4absl12lts_2024011616strings_internal14CordTestAccess15FlatTagToLengthEh, symObjAddr: 0x67C8, symBinAddr: 0x171A0, symSize: 0x44 }
  - { offsetInCU: 0x377CE, offset: 0xB3451, size: 0x8, addend: 0x0, symName: __ZN4absl12lts_2024011616strings_internal14CordTestAccess15FlatTagToLengthEh, symObjAddr: 0x67C8, symBinAddr: 0x171A0, symSize: 0x44 }
  - { offsetInCU: 0x377EA, offset: 0xB346D, size: 0x8, addend: 0x0, symName: __ZN4absl12lts_2024011616strings_internal14CordTestAccess15FlatTagToLengthEh, symObjAddr: 0x67C8, symBinAddr: 0x171A0, symSize: 0x44 }
  - { offsetInCU: 0x37804, offset: 0xB3487, size: 0x8, addend: 0x0, symName: __ZN4absl12lts_2024011616strings_internal14CordTestAccess11LengthToTagEm, symObjAddr: 0x680C, symBinAddr: 0x171E4, symSize: 0x184 }
  - { offsetInCU: 0x37E91, offset: 0xB3B14, size: 0x8, addend: 0x0, symName: __ZN4absl12lts_2024011616strings_internal14CordTestAccess11LengthToTagEm.cold.1, symObjAddr: 0xC738, symBinAddr: 0x5DC74, symSize: 0x24 }
  - { offsetInCU: 0x37EBF, offset: 0xB3B42, size: 0x8, addend: 0x0, symName: __ZN4absl12lts_2024011616strings_internal14CordTestAccess21SizeofCordRepExternalEv, symObjAddr: 0x6990, symBinAddr: 0x17368, symSize: 0x8 }
  - { offsetInCU: 0x37ED6, offset: 0xB3B59, size: 0x8, addend: 0x0, symName: __ZN4absl12lts_2024011616strings_internal14CordTestAccess22SizeofCordRepSubstringEv, symObjAddr: 0x6998, symBinAddr: 0x17370, symSize: 0x8 }
  - { offsetInCU: 0x37F2C, offset: 0xB3BAF, size: 0x8, addend: 0x0, symName: __ZN4absl12lts_2024011613InlinedVectorIPNS0_13cord_internal7CordRepELm2ENSt3__19allocatorIS4_EEE4backEv.cold.1, symObjAddr: 0xC75C, symBinAddr: 0x5DC98, symSize: 0x24 }
  - { offsetInCU: 0x38ED0, offset: 0xB4B53, size: 0x8, addend: 0x0, symName: __ZN4absl12lts_2024011613InlinedVectorIPNS0_13cord_internal7CordRepELm47ENSt3__19allocatorIS4_EEE4backEv, symObjAddr: 0x7DA0, symBinAddr: 0x17CC0, symSize: 0x3C }
  - { offsetInCU: 0x38FAE, offset: 0xB4C31, size: 0x8, addend: 0x0, symName: __ZN4absl12lts_2024011613InlinedVectorIPNS0_13cord_internal7CordRepELm47ENSt3__19allocatorIS4_EEE8pop_backEv, symObjAddr: 0x7DDC, symBinAddr: 0x17CFC, symSize: 0x4C }
  - { offsetInCU: 0x38FB9, offset: 0xB4C3C, size: 0x8, addend: 0x0, symName: __ZN4absl12lts_2024011613InlinedVectorIPNS0_13cord_internal7CordRepELm47ENSt3__19allocatorIS4_EEE8pop_backEv, symObjAddr: 0x7DDC, symBinAddr: 0x17CFC, symSize: 0x4C }
  - { offsetInCU: 0x39086, offset: 0xB4D09, size: 0x8, addend: 0x0, symName: __ZN4absl12lts_2024011613InlinedVectorIiLm47ENSt3__19allocatorIiEEE4backEv, symObjAddr: 0x7E28, symBinAddr: 0x17D48, symSize: 0x3C }
  - { offsetInCU: 0x39164, offset: 0xB4DE7, size: 0x8, addend: 0x0, symName: __ZN4absl12lts_2024011613InlinedVectorIiLm47ENSt3__19allocatorIiEEE8pop_backEv, symObjAddr: 0x7E64, symBinAddr: 0x17D84, symSize: 0x4C }
  - { offsetInCU: 0x3916F, offset: 0xB4DF2, size: 0x8, addend: 0x0, symName: __ZN4absl12lts_2024011613InlinedVectorIiLm47ENSt3__19allocatorIiEEE8pop_backEv, symObjAddr: 0x7E64, symBinAddr: 0x17D84, symSize: 0x4C }
  - { offsetInCU: 0x394C6, offset: 0xB5149, size: 0x8, addend: 0x0, symName: __ZN4absl12lts_2024011623inlined_vector_internal7StorageIPNS0_13cord_internal7CordRepELm2ENSt3__19allocatorIS5_EEE15EmplaceBackSlowIJRKS5_EEERS5_DpOT_, symObjAddr: 0x71E8, symBinAddr: 0x17BB4, symSize: 0xD8 }
  - { offsetInCU: 0x39C73, offset: 0xB58F6, size: 0x8, addend: 0x0, symName: __ZN4absl12lts_2024011623inlined_vector_internal13MallocAdapterINSt3__19allocatorIPNS0_13cord_internal7CordRepEEELb0EE8AllocateERS8_m, symObjAddr: 0x72C0, symBinAddr: 0x17C8C, symSize: 0x34 }
  - { offsetInCU: 0x3A39C, offset: 0xB601F, size: 0x8, addend: 0x0, symName: __ZN4absl12lts_2024011613InlinedVectorIPNS0_13cord_internal7CordRepELm47ENSt3__19allocatorIS4_EEE4backEv.cold.1, symObjAddr: 0xC780, symBinAddr: 0x5DCBC, symSize: 0x24 }
  - { offsetInCU: 0x3A454, offset: 0xB60D7, size: 0x8, addend: 0x0, symName: __ZN4absl12lts_2024011613InlinedVectorIiLm47ENSt3__19allocatorIiEEE4backEv.cold.1, symObjAddr: 0xC7A4, symBinAddr: 0x5DCE0, symSize: 0x24 }
  - { offsetInCU: 0x3ACEE, offset: 0xB6971, size: 0x8, addend: 0x0, symName: __ZN4absl12lts_2024011613cord_internal19CordRepExternalImplIZNS0_L17CordRepFromStringEONSt3__112basic_stringIcNS3_11char_traitsIcEENS3_9allocatorIcEEEEE14StringReleaserE7ReleaseEPNS1_15CordRepExternalE, symObjAddr: 0x8160, symBinAddr: 0x17DD0, symSize: 0x70 }
  - { offsetInCU: 0x3ADF0, offset: 0xB6A73, size: 0x8, addend: 0x0, symName: __ZN4absl12lts_2024011613cord_internal19CordRepExternalImplIZNS0_L17CordRepFromStringEONSt3__112basic_stringIcNS3_11char_traitsIcEENS3_9allocatorIcEEEEE14StringReleaserE7ReleaseEPNS1_15CordRepExternalE, symObjAddr: 0x8160, symBinAddr: 0x17DD0, symSize: 0x70 }
  - { offsetInCU: 0x3B09F, offset: 0xB6D22, size: 0x8, addend: 0x0, symName: __ZN4absl12lts_2024011613cord_internal10InlineData15set_inline_dataEPKcm.cold.1, symObjAddr: 0xC818, symBinAddr: 0x5DD04, symSize: 0x28 }
  - { offsetInCU: 0x3B0CD, offset: 0xB6D50, size: 0x8, addend: 0x0, symName: __ZN4absl12lts_2024011613cord_internal10InlineData18is_either_profiledERKS2_S4_.cold.1, symObjAddr: 0xC840, symBinAddr: 0x5DD2C, symSize: 0x28 }
  - { offsetInCU: 0x3B11F, offset: 0xB6DA2, size: 0x8, addend: 0x0, symName: __ZN4absl12lts_2024011613cord_internal12CordRepBtree15GetAppendBufferEm.cold.5, symObjAddr: 0xC8F8, symBinAddr: 0x5DDE4, symSize: 0x28 }
  - { offsetInCU: 0x3B137, offset: 0xB6DBA, size: 0x8, addend: 0x0, symName: __ZN4absl12lts_2024011613cord_internal12CordRepBtree15GetAppendBufferEm.cold.2, symObjAddr: 0xC88C, symBinAddr: 0x5DD78, symSize: 0x24 }
  - { offsetInCU: 0x3B165, offset: 0xB6DE8, size: 0x8, addend: 0x0, symName: __ZN4absl12lts_2024011613cord_internal12CordRepBtree15GetAppendBufferEm.cold.3, symObjAddr: 0xC8B0, symBinAddr: 0x5DD9C, symSize: 0x24 }
  - { offsetInCU: 0x3B193, offset: 0xB6E16, size: 0x8, addend: 0x0, symName: __ZN4absl12lts_2024011613cord_internal12CordRepBtree15GetAppendBufferEm.cold.4, symObjAddr: 0xC8D4, symBinAddr: 0x5DDC0, symSize: 0x24 }
  - { offsetInCU: 0x3B1C1, offset: 0xB6E44, size: 0x8, addend: 0x0, symName: __ZN4absl12lts_2024011613cord_internal12CordRepBtree15GetAppendBufferEm.cold.1, symObjAddr: 0xC868, symBinAddr: 0x5DD54, symSize: 0x24 }
  - { offsetInCU: 0x3B227, offset: 0xB6EAA, size: 0x8, addend: 0x0, symName: __ZN4absl12lts_2024011613cord_internal11CordRepFlat7NewImplILm4096EJEEEPS2_mDpT0_.cold.1, symObjAddr: 0xC920, symBinAddr: 0x5DE0C, symSize: 0x24 }
  - { offsetInCU: 0x3B254, offset: 0xB6ED7, size: 0x8, addend: 0x0, symName: __ZN4absl12lts_2024011613cord_internal11CordRepFlat7NewImplILm262144EJEEEPS2_mDpT0_.cold.1, symObjAddr: 0xC944, symBinAddr: 0x5DE30, symSize: 0x24 }
  - { offsetInCU: 0x3B29D, offset: 0xB6F20, size: 0x8, addend: 0x0, symName: __ZN4absl12lts_2024011613cord_internal11CordRepFlat6DeleteEPNS1_7CordRepE, symObjAddr: 0x8670, symBinAddr: 0x182E0, symSize: 0x28 }
  - { offsetInCU: 0x3B2D0, offset: 0xB6F53, size: 0x8, addend: 0x0, symName: __ZN4absl12lts_202401168AlphaNumC2Em, symObjAddr: 0x8698, symBinAddr: 0x18308, symSize: 0x44 }
  - { offsetInCU: 0x3B2DB, offset: 0xB6F5E, size: 0x8, addend: 0x0, symName: __ZN4absl12lts_2024011613cord_internal11CordRepFlat6DeleteEPNS1_7CordRepE.cold.1, symObjAddr: 0xC968, symBinAddr: 0x5DE54, symSize: 0x28 }
  - { offsetInCU: 0x3B2F3, offset: 0xB6F76, size: 0x8, addend: 0x0, symName: __ZN4absl12lts_202401168AlphaNumC2Em.cold.1, symObjAddr: 0xC990, symBinAddr: 0x5DE7C, symSize: 0x24 }
  - { offsetInCU: 0x3B385, offset: 0xB7008, size: 0x8, addend: 0x0, symName: __ZN4absl12lts_2024011613cord_internal18CordRepBtreeReader4InitEPNS1_12CordRepBtreeE, symObjAddr: 0x87F8, symBinAddr: 0x18468, symSize: 0xB4 }
  - { offsetInCU: 0x3B510, offset: 0xB7193, size: 0x8, addend: 0x0, symName: __ZN4absl12lts_2024011613cord_internal8EdgeDataEPKNS1_7CordRepE, symObjAddr: 0x88AC, symBinAddr: 0x1851C, symSize: 0x90 }
  - { offsetInCU: 0x3B51B, offset: 0xB719E, size: 0x8, addend: 0x0, symName: __ZN4absl12lts_202401164Cord13ChunkIteratorC2EPKS1_.cold.5, symObjAddr: 0xCA44, symBinAddr: 0x5DF30, symSize: 0x24 }
  - { offsetInCU: 0x3B55F, offset: 0xB71E2, size: 0x8, addend: 0x0, symName: __ZN4absl12lts_202401164Cord13ChunkIteratorC2EPKS1_.cold.2, symObjAddr: 0xC9D8, symBinAddr: 0x5DEC4, symSize: 0x24 }
  - { offsetInCU: 0x3B5B8, offset: 0xB723B, size: 0x8, addend: 0x0, symName: __ZN4absl12lts_202401164Cord13ChunkIteratorC2EPKS1_.cold.4, symObjAddr: 0xCA20, symBinAddr: 0x5DF0C, symSize: 0x24 }
  - { offsetInCU: 0x3B651, offset: 0xB72D4, size: 0x8, addend: 0x0, symName: __ZN4absl12lts_202401164Cord13ChunkIteratorC2EPKS1_.cold.3, symObjAddr: 0xC9FC, symBinAddr: 0x5DEE8, symSize: 0x24 }
  - { offsetInCU: 0x3B6EA, offset: 0xB736D, size: 0x8, addend: 0x0, symName: __ZN4absl12lts_202401164Cord13ChunkIteratorC2EPKS1_.cold.1, symObjAddr: 0xC9B4, symBinAddr: 0x5DEA0, symSize: 0x24 }
  - { offsetInCU: 0x3B77C, offset: 0xB73FF, size: 0x8, addend: 0x0, symName: __ZN4absl12lts_2024011613cord_internal21CordRepBtreeNavigator4InitILNS1_12CordRepBtree8EdgeTypeE0EEEPNS1_7CordRepEPS4_, symObjAddr: 0x893C, symBinAddr: 0x185AC, symSize: 0xE0 }
  - { offsetInCU: 0x3B9F6, offset: 0xB7679, size: 0x8, addend: 0x0, symName: __ZN4absl12lts_202401164Cord13ChunkIterator17AdvanceBytesBtreeEm, symObjAddr: 0x8A1C, symBinAddr: 0x1868C, symSize: 0x80 }
  - { offsetInCU: 0x3BA0B, offset: 0xB768E, size: 0x8, addend: 0x0, symName: __ZN4absl12lts_2024011613cord_internal18CordRepBtreeReader4InitEPNS1_12CordRepBtreeE.cold.1, symObjAddr: 0xCA68, symBinAddr: 0x5DF54, symSize: 0x28 }
  - { offsetInCU: 0x3BA23, offset: 0xB76A6, size: 0x8, addend: 0x0, symName: __ZN4absl12lts_2024011613cord_internal18CordRepBtreeReader4InitEPNS1_12CordRepBtreeE.cold.5, symObjAddr: 0xCAFC, symBinAddr: 0x5DFE8, symSize: 0x24 }
  - { offsetInCU: 0x3BA50, offset: 0xB76D3, size: 0x8, addend: 0x0, symName: __ZN4absl12lts_2024011613cord_internal18CordRepBtreeReader4InitEPNS1_12CordRepBtreeE.cold.2, symObjAddr: 0xCA90, symBinAddr: 0x5DF7C, symSize: 0x24 }
  - { offsetInCU: 0x3BA92, offset: 0xB7715, size: 0x8, addend: 0x0, symName: __ZN4absl12lts_2024011613cord_internal18CordRepBtreeReader4InitEPNS1_12CordRepBtreeE.cold.3, symObjAddr: 0xCAB4, symBinAddr: 0x5DFA0, symSize: 0x24 }
  - { offsetInCU: 0x3BB14, offset: 0xB7797, size: 0x8, addend: 0x0, symName: __ZN4absl12lts_2024011613cord_internal18CordRepBtreeReader4InitEPNS1_12CordRepBtreeE.cold.4, symObjAddr: 0xCAD8, symBinAddr: 0x5DFC4, symSize: 0x24 }
  - { offsetInCU: 0x3BB96, offset: 0xB7819, size: 0x8, addend: 0x0, symName: __ZN4absl12lts_2024011613cord_internal8EdgeDataEPKNS1_7CordRepE.cold.1, symObjAddr: 0xCB20, symBinAddr: 0x5E00C, symSize: 0x24 }
  - { offsetInCU: 0x3BBC3, offset: 0xB7846, size: 0x8, addend: 0x0, symName: __ZN4absl12lts_2024011613cord_internal8EdgeDataEPKNS1_7CordRepE.cold.5, symObjAddr: 0xCBB0, symBinAddr: 0x5E09C, symSize: 0x24 }
  - { offsetInCU: 0x3BBDB, offset: 0xB785E, size: 0x8, addend: 0x0, symName: __ZN4absl12lts_2024011613cord_internal8EdgeDataEPKNS1_7CordRepE.cold.2, symObjAddr: 0xCB44, symBinAddr: 0x5E030, symSize: 0x24 }
  - { offsetInCU: 0x3BC08, offset: 0xB788B, size: 0x8, addend: 0x0, symName: __ZN4absl12lts_2024011613cord_internal8EdgeDataEPKNS1_7CordRepE.cold.3, symObjAddr: 0xCB68, symBinAddr: 0x5E054, symSize: 0x24 }
  - { offsetInCU: 0x3BC75, offset: 0xB78F8, size: 0x8, addend: 0x0, symName: __ZN4absl12lts_2024011613cord_internal8EdgeDataEPKNS1_7CordRepE.cold.4, symObjAddr: 0xCB8C, symBinAddr: 0x5E078, symSize: 0x24 }
  - { offsetInCU: 0x3BD1A, offset: 0xB799D, size: 0x8, addend: 0x0, symName: __ZN4absl12lts_2024011613cord_internal21CordRepBtreeNavigator4InitILNS1_12CordRepBtree8EdgeTypeE0EEEPNS1_7CordRepEPS4_.cold.6, symObjAddr: 0xCC94, symBinAddr: 0x5E180, symSize: 0x24 }
  - { offsetInCU: 0x3BD47, offset: 0xB79CA, size: 0x8, addend: 0x0, symName: __ZN4absl12lts_2024011613cord_internal21CordRepBtreeNavigator4InitILNS1_12CordRepBtree8EdgeTypeE0EEEPNS1_7CordRepEPS4_.cold.8, symObjAddr: 0xCCDC, symBinAddr: 0x5E1C8, symSize: 0x24 }
  - { offsetInCU: 0x3BD74, offset: 0xB79F7, size: 0x8, addend: 0x0, symName: __ZN4absl12lts_2024011613cord_internal21CordRepBtreeNavigator4InitILNS1_12CordRepBtree8EdgeTypeE0EEEPNS1_7CordRepEPS4_.cold.7, symObjAddr: 0xCCB8, symBinAddr: 0x5E1A4, symSize: 0x24 }
  - { offsetInCU: 0x3BDA1, offset: 0xB7A24, size: 0x8, addend: 0x0, symName: __ZN4absl12lts_2024011613cord_internal21CordRepBtreeNavigator4InitILNS1_12CordRepBtree8EdgeTypeE0EEEPNS1_7CordRepEPS4_.cold.1, symObjAddr: 0xCBD4, symBinAddr: 0x5E0C0, symSize: 0x28 }
  - { offsetInCU: 0x3BDB9, offset: 0xB7A3C, size: 0x8, addend: 0x0, symName: __ZN4absl12lts_2024011613cord_internal21CordRepBtreeNavigator4InitILNS1_12CordRepBtree8EdgeTypeE0EEEPNS1_7CordRepEPS4_.cold.2, symObjAddr: 0xCBFC, symBinAddr: 0x5E0E8, symSize: 0x28 }
  - { offsetInCU: 0x3BDD1, offset: 0xB7A54, size: 0x8, addend: 0x0, symName: __ZN4absl12lts_2024011613cord_internal21CordRepBtreeNavigator4InitILNS1_12CordRepBtree8EdgeTypeE0EEEPNS1_7CordRepEPS4_.cold.3, symObjAddr: 0xCC24, symBinAddr: 0x5E110, symSize: 0x28 }
  - { offsetInCU: 0x3BDE9, offset: 0xB7A6C, size: 0x8, addend: 0x0, symName: __ZN4absl12lts_2024011613cord_internal21CordRepBtreeNavigator4InitILNS1_12CordRepBtree8EdgeTypeE0EEEPNS1_7CordRepEPS4_.cold.4, symObjAddr: 0xCC4C, symBinAddr: 0x5E138, symSize: 0x24 }
  - { offsetInCU: 0x3BE16, offset: 0xB7A99, size: 0x8, addend: 0x0, symName: __ZN4absl12lts_2024011613cord_internal21CordRepBtreeNavigator4InitILNS1_12CordRepBtree8EdgeTypeE0EEEPNS1_7CordRepEPS4_.cold.5, symObjAddr: 0xCC70, symBinAddr: 0x5E15C, symSize: 0x24 }
  - { offsetInCU: 0x3BE59, offset: 0xB7ADC, size: 0x8, addend: 0x0, symName: __ZN4absl12lts_202401164Cord13ChunkIterator17AdvanceBytesBtreeEm.cold.1, symObjAddr: 0xCD00, symBinAddr: 0x5E1EC, symSize: 0x28 }
  - { offsetInCU: 0x3BE71, offset: 0xB7AF4, size: 0x8, addend: 0x0, symName: __ZN4absl12lts_202401164Cord13ChunkIterator17AdvanceBytesBtreeEm.cold.2, symObjAddr: 0xCD28, symBinAddr: 0x5E214, symSize: 0x28 }
  - { offsetInCU: 0x3BE9F, offset: 0xB7B22, size: 0x8, addend: 0x0, symName: __ZN4absl12lts_2024011613cord_internal21CordRepBtreeNavigator4SeekEm, symObjAddr: 0x8B98, symBinAddr: 0x18808, symSize: 0x164 }
  - { offsetInCU: 0x3C0E2, offset: 0xB7D65, size: 0x8, addend: 0x0, symName: __ZN4absl12lts_202401164CordD2Ev, symObjAddr: 0x8CFC, symBinAddr: 0x1896C, symSize: 0x34 }
  - { offsetInCU: 0x3C0ED, offset: 0xB7D70, size: 0x8, addend: 0x0, symName: __ZN4absl12lts_2024011613cord_internal18CordRepBtreeReader4SeekEm.cold.2, symObjAddr: 0xCD74, symBinAddr: 0x5E260, symSize: 0x28 }
  - { offsetInCU: 0x3C11A, offset: 0xB7D9D, size: 0x8, addend: 0x0, symName: __ZN4absl12lts_2024011613cord_internal18CordRepBtreeReader4SeekEm.cold.5, symObjAddr: 0xCDE4, symBinAddr: 0x5E2D0, symSize: 0x24 }
  - { offsetInCU: 0x3C147, offset: 0xB7DCA, size: 0x8, addend: 0x0, symName: __ZN4absl12lts_2024011613cord_internal18CordRepBtreeReader4SeekEm.cold.1, symObjAddr: 0xCD50, symBinAddr: 0x5E23C, symSize: 0x24 }
  - { offsetInCU: 0x3C189, offset: 0xB7E0C, size: 0x8, addend: 0x0, symName: __ZN4absl12lts_2024011613cord_internal18CordRepBtreeReader4SeekEm.cold.3, symObjAddr: 0xCD9C, symBinAddr: 0x5E288, symSize: 0x24 }
  - { offsetInCU: 0x3C20B, offset: 0xB7E8E, size: 0x8, addend: 0x0, symName: __ZN4absl12lts_2024011613cord_internal18CordRepBtreeReader4SeekEm.cold.4, symObjAddr: 0xCDC0, symBinAddr: 0x5E2AC, symSize: 0x24 }
  - { offsetInCU: 0x3C2BD, offset: 0xB7F40, size: 0x8, addend: 0x0, symName: __ZN4absl12lts_2024011613cord_internal21CordRepBtreeNavigator4SeekEm.cold.2, symObjAddr: 0xCE30, symBinAddr: 0x5E31C, symSize: 0x24 }
  - { offsetInCU: 0x3C2EA, offset: 0xB7F6D, size: 0x8, addend: 0x0, symName: __ZN4absl12lts_2024011613cord_internal21CordRepBtreeNavigator4SeekEm.cold.7, symObjAddr: 0xCEE8, symBinAddr: 0x5E3D4, symSize: 0x24 }
  - { offsetInCU: 0x3C317, offset: 0xB7F9A, size: 0x8, addend: 0x0, symName: __ZN4absl12lts_2024011613cord_internal21CordRepBtreeNavigator4SeekEm.cold.6, symObjAddr: 0xCEC4, symBinAddr: 0x5E3B0, symSize: 0x24 }
  - { offsetInCU: 0x3C344, offset: 0xB7FC7, size: 0x8, addend: 0x0, symName: __ZN4absl12lts_2024011613cord_internal21CordRepBtreeNavigator4SeekEm.cold.5, symObjAddr: 0xCE9C, symBinAddr: 0x5E388, symSize: 0x28 }
  - { offsetInCU: 0x3C371, offset: 0xB7FF4, size: 0x8, addend: 0x0, symName: __ZN4absl12lts_2024011613cord_internal21CordRepBtreeNavigator4SeekEm.cold.1, symObjAddr: 0xCE08, symBinAddr: 0x5E2F4, symSize: 0x28 }
  - { offsetInCU: 0x3C389, offset: 0xB800C, size: 0x8, addend: 0x0, symName: __ZN4absl12lts_2024011613cord_internal21CordRepBtreeNavigator4SeekEm.cold.3, symObjAddr: 0xCE54, symBinAddr: 0x5E340, symSize: 0x24 }
  - { offsetInCU: 0x3C3B6, offset: 0xB8039, size: 0x8, addend: 0x0, symName: __ZN4absl12lts_2024011613cord_internal21CordRepBtreeNavigator4SeekEm.cold.4, symObjAddr: 0xCE78, symBinAddr: 0x5E364, symSize: 0x24 }
  - { offsetInCU: 0x3C46D, offset: 0xB80F0, size: 0x8, addend: 0x0, symName: __ZNSt3__15dequeIN4absl12lts_2024011612crc_internal12CrcCordState9PrefixCrcENS_9allocatorIS5_EEED2B7v160006Ev, symObjAddr: 0x9E68, symBinAddr: 0x19AD8, symSize: 0x94 }
  - { offsetInCU: 0x3C783, offset: 0xB8406, size: 0x8, addend: 0x0, symName: __ZN4absl12lts_2024011612crc_internal12CrcCordState5UnrefEPNS2_13RefcountedRepE.cold.1, symObjAddr: 0xCF0C, symBinAddr: 0x5E3F8, symSize: 0x28 }
  - { offsetInCU: 0x3C81C, offset: 0xB849F, size: 0x8, addend: 0x0, symName: __ZNSt3__15dequeIN4absl12lts_2024011612crc_internal12CrcCordState9PrefixCrcENS_9allocatorIS5_EEE6assignINS_16__deque_iteratorIS5_PKS5_RSB_PKSC_lLl256EEEEEvT_SH_PNS_9enable_ifIXsr33__is_cpp17_random_access_iteratorISH_EE5valueEvE4typeE, symObjAddr: 0x8E18, symBinAddr: 0x18A88, symSize: 0x138 }
  - { offsetInCU: 0x3CB0C, offset: 0xB878F, size: 0x8, addend: 0x0, symName: __ZNKSt3__116__deque_iteratorIN4absl12lts_2024011612crc_internal12CrcCordState9PrefixCrcEPKS5_RS6_PKS7_lLl256EEplB7v160006El, symObjAddr: 0x8F50, symBinAddr: 0x18BC0, symSize: 0x64 }
  - { offsetInCU: 0x3CB8B, offset: 0xB880E, size: 0x8, addend: 0x0, symName: __ZNKSt3__111__copy_loopINS_17_ClassicAlgPolicyEEclB7v160006INS_16__deque_iteratorIN4absl12lts_2024011612crc_internal12CrcCordState9PrefixCrcEPKS9_RSA_PKSB_lLl256EEENS4_IS9_PS9_RS9_PSG_lLl256EEELi0EEENS_4pairIT_T0_EESL_SL_SM_, symObjAddr: 0x9210, symBinAddr: 0x18E80, symSize: 0xC0 }
  - { offsetInCU: 0x3CE98, offset: 0xB8B1B, size: 0x8, addend: 0x0, symName: __ZNSt3__15dequeIN4absl12lts_2024011612crc_internal12CrcCordState9PrefixCrcENS_9allocatorIS5_EEE14__erase_to_endENS_16__deque_iteratorIS5_PKS5_RSA_PKSB_lLl256EEE, symObjAddr: 0x9110, symBinAddr: 0x18D80, symSize: 0x100 }
  - { offsetInCU: 0x3D02E, offset: 0xB8CB1, size: 0x8, addend: 0x0, symName: __ZNSt3__15dequeIN4absl12lts_2024011612crc_internal12CrcCordState9PrefixCrcENS_9allocatorIS5_EEE8__appendINS_16__deque_iteratorIS5_PKS5_RSB_PKSC_lLl256EEEEEvT_SH_PNS_9enable_ifIXsr27__is_cpp17_forward_iteratorISH_EE5valueEvE4typeE, symObjAddr: 0x8FB4, symBinAddr: 0x18C24, symSize: 0x15C }
  - { offsetInCU: 0x3D489, offset: 0xB910C, size: 0x8, addend: 0x0, symName: __ZNSt3__15dequeIN4absl12lts_2024011612crc_internal12CrcCordState9PrefixCrcENS_9allocatorIS5_EEE19__add_back_capacityEm, symObjAddr: 0x93B0, symBinAddr: 0x19020, symSize: 0x570 }
  - { offsetInCU: 0x3EC1E, offset: 0xBA8A1, size: 0x8, addend: 0x0, symName: __ZNKSt3__116__deque_iteratorIN4absl12lts_2024011612crc_internal12CrcCordState9PrefixCrcEPS5_RS5_PS6_lLl256EEplB7v160006El, symObjAddr: 0x9920, symBinAddr: 0x19590, symSize: 0x64 }
  - { offsetInCU: 0x3EC93, offset: 0xBA916, size: 0x8, addend: 0x0, symName: __ZNSt3__15dequeIN4absl12lts_2024011612crc_internal12CrcCordState9PrefixCrcENS_9allocatorIS5_EEE25__maybe_remove_back_spareB7v160006Eb, symObjAddr: 0x9DF4, symBinAddr: 0x19A64, symSize: 0x74 }
  - { offsetInCU: 0x3EEDD, offset: 0xBAB60, size: 0x8, addend: 0x0, symName: __ZNSt3__111__copy_loopINS_17_ClassicAlgPolicyEEclB7v160006IPKN4absl12lts_2024011612crc_internal12CrcCordState9PrefixCrcENS_16__deque_iteratorIS8_PS8_RS8_PSC_lLl256EEELi0EEENS_4pairIT_T0_EESH_SH_SI_, symObjAddr: 0x92D0, symBinAddr: 0x18F40, symSize: 0xE0 }
  - { offsetInCU: 0x3F84C, offset: 0xBB4CF, size: 0x8, addend: 0x0, symName: __ZNSt3__114__split_bufferIPN4absl12lts_2024011612crc_internal12CrcCordState9PrefixCrcENS_9allocatorIS6_EEE9push_backEOS6_, symObjAddr: 0x9984, symBinAddr: 0x195F4, symSize: 0x104 }
  - { offsetInCU: 0x3FC76, offset: 0xBB8F9, size: 0x8, addend: 0x0, symName: __ZNSt3__114__split_bufferIPN4absl12lts_2024011612crc_internal12CrcCordState9PrefixCrcERNS_9allocatorIS6_EEE9push_backEOS6_, symObjAddr: 0x9BA4, symBinAddr: 0x19814, symSize: 0x104 }
  - { offsetInCU: 0x400E7, offset: 0xBBD6A, size: 0x8, addend: 0x0, symName: __ZNSt3__114__split_bufferIPN4absl12lts_2024011612crc_internal12CrcCordState9PrefixCrcERNS_9allocatorIS6_EEE10push_frontERKS6_, symObjAddr: 0x9CA8, symBinAddr: 0x19918, symSize: 0x118 }
  - { offsetInCU: 0x40582, offset: 0xBC205, size: 0x8, addend: 0x0, symName: __ZNSt3__114__split_bufferIPN4absl12lts_2024011612crc_internal12CrcCordState9PrefixCrcENS_9allocatorIS6_EEE10push_frontEOS6_, symObjAddr: 0x9A88, symBinAddr: 0x196F8, symSize: 0x11C }
  - { offsetInCU: 0x40B5C, offset: 0xBC7DF, size: 0x8, addend: 0x0, symName: __ZNSt3__114__split_bufferIPN4absl12lts_2024011612crc_internal12CrcCordState9PrefixCrcENS_9allocatorIS6_EEED2Ev, symObjAddr: 0x9EFC, symBinAddr: 0x19B6C, symSize: 0x4C }
  - { offsetInCU: 0x40CCF, offset: 0xBC952, size: 0x8, addend: 0x0, symName: __ZN4absl12lts_2024011613cord_internal21CordRepBtreeNavigator6NextUpEv.cold.1, symObjAddr: 0xCF34, symBinAddr: 0x5E420, symSize: 0x24 }
  - { offsetInCU: 0x40CFC, offset: 0xBC97F, size: 0x8, addend: 0x0, symName: __ZN4absl12lts_2024011613cord_internal21CordRepBtreeNavigator6NextUpEv.cold.5, symObjAddr: 0xCFC4, symBinAddr: 0x5E4B0, symSize: 0x24 }
  - { offsetInCU: 0x40D29, offset: 0xBC9AC, size: 0x8, addend: 0x0, symName: __ZN4absl12lts_2024011613cord_internal21CordRepBtreeNavigator6NextUpEv.cold.4, symObjAddr: 0xCFA0, symBinAddr: 0x5E48C, symSize: 0x24 }
  - { offsetInCU: 0x40D56, offset: 0xBC9D9, size: 0x8, addend: 0x0, symName: __ZN4absl12lts_2024011613cord_internal21CordRepBtreeNavigator6NextUpEv.cold.6, symObjAddr: 0xCFE8, symBinAddr: 0x5E4D4, symSize: 0x28 }
  - { offsetInCU: 0x40D6E, offset: 0xBC9F1, size: 0x8, addend: 0x0, symName: __ZN4absl12lts_2024011613cord_internal21CordRepBtreeNavigator6NextUpEv.cold.2, symObjAddr: 0xCF58, symBinAddr: 0x5E444, symSize: 0x24 }
  - { offsetInCU: 0x40D9B, offset: 0xBCA1E, size: 0x8, addend: 0x0, symName: __ZN4absl12lts_2024011613cord_internal21CordRepBtreeNavigator6NextUpEv.cold.3, symObjAddr: 0xCF7C, symBinAddr: 0x5E468, symSize: 0x24 }
  - { offsetInCU: 0x40DC8, offset: 0xBCA4B, size: 0x8, addend: 0x0, symName: __ZN4absl12lts_202401164Cord13ChunkIteratorC2EPNS0_13cord_internal7CordRepE.cold.4, symObjAddr: 0xD07C, symBinAddr: 0x5E568, symSize: 0x24 }
  - { offsetInCU: 0x40E0C, offset: 0xBCA8F, size: 0x8, addend: 0x0, symName: __ZN4absl12lts_202401164Cord13ChunkIteratorC2EPNS0_13cord_internal7CordRepE.cold.1, symObjAddr: 0xD010, symBinAddr: 0x5E4FC, symSize: 0x24 }
  - { offsetInCU: 0x40E65, offset: 0xBCAE8, size: 0x8, addend: 0x0, symName: __ZN4absl12lts_202401164Cord13ChunkIteratorC2EPNS0_13cord_internal7CordRepE.cold.2, symObjAddr: 0xD034, symBinAddr: 0x5E520, symSize: 0x24 }
  - { offsetInCU: 0x40EFE, offset: 0xBCB81, size: 0x8, addend: 0x0, symName: __ZN4absl12lts_202401164Cord13ChunkIteratorC2EPNS0_13cord_internal7CordRepE.cold.3, symObjAddr: 0xD058, symBinAddr: 0x5E544, symSize: 0x24 }
  - { offsetInCU: 0x41236, offset: 0xBCEB9, size: 0x8, addend: 0x0, symName: __ZNK4absl12lts_202401164Cord15CompareSlowPathENS0_11string_viewEmm.cold.3, symObjAddr: 0xD0F0, symBinAddr: 0x5E5DC, symSize: 0x24 }
  - { offsetInCU: 0x41290, offset: 0xBCF13, size: 0x8, addend: 0x0, symName: __ZNK4absl12lts_202401164Cord15CompareSlowPathENS0_11string_viewEmm.cold.4, symObjAddr: 0xD114, symBinAddr: 0x5E600, symSize: 0x24 }
  - { offsetInCU: 0x412D4, offset: 0xBCF57, size: 0x8, addend: 0x0, symName: __ZNK4absl12lts_202401164Cord15CompareSlowPathENS0_11string_viewEmm.cold.5, symObjAddr: 0xD138, symBinAddr: 0x5E624, symSize: 0x24 }
  - { offsetInCU: 0x41318, offset: 0xBCF9B, size: 0x8, addend: 0x0, symName: __ZNK4absl12lts_202401164Cord15CompareSlowPathENS0_11string_viewEmm.cold.1, symObjAddr: 0xD0A0, symBinAddr: 0x5E58C, symSize: 0x28 }
  - { offsetInCU: 0x41330, offset: 0xBCFB3, size: 0x8, addend: 0x0, symName: __ZNK4absl12lts_202401164Cord15CompareSlowPathENS0_11string_viewEmm.cold.2, symObjAddr: 0xD0C8, symBinAddr: 0x5E5B4, symSize: 0x28 }
  - { offsetInCU: 0x41398, offset: 0xBD01B, size: 0x8, addend: 0x0, symName: __ZNK4absl12lts_202401164Cord9InlineRep18FindFlatStartPieceEv.cold.3, symObjAddr: 0xD1A8, symBinAddr: 0x5E694, symSize: 0x24 }
  - { offsetInCU: 0x41406, offset: 0xBD089, size: 0x8, addend: 0x0, symName: __ZNK4absl12lts_202401164Cord9InlineRep18FindFlatStartPieceEv.cold.10, symObjAddr: 0xD2AC, symBinAddr: 0x5E798, symSize: 0x24 }
  - { offsetInCU: 0x41434, offset: 0xBD0B7, size: 0x8, addend: 0x0, symName: __ZNK4absl12lts_202401164Cord9InlineRep18FindFlatStartPieceEv.cold.1, symObjAddr: 0xD15C, symBinAddr: 0x5E648, symSize: 0x28 }
  - { offsetInCU: 0x41462, offset: 0xBD0E5, size: 0x8, addend: 0x0, symName: __ZNK4absl12lts_202401164Cord9InlineRep18FindFlatStartPieceEv.cold.2, symObjAddr: 0xD184, symBinAddr: 0x5E670, symSize: 0x24 }
  - { offsetInCU: 0x41490, offset: 0xBD113, size: 0x8, addend: 0x0, symName: __ZNK4absl12lts_202401164Cord9InlineRep18FindFlatStartPieceEv.cold.9, symObjAddr: 0xD288, symBinAddr: 0x5E774, symSize: 0x24 }
  - { offsetInCU: 0x414FE, offset: 0xBD181, size: 0x8, addend: 0x0, symName: __ZNK4absl12lts_202401164Cord9InlineRep18FindFlatStartPieceEv.cold.4, symObjAddr: 0xD1CC, symBinAddr: 0x5E6B8, symSize: 0x28 }
  - { offsetInCU: 0x41516, offset: 0xBD199, size: 0x8, addend: 0x0, symName: __ZNK4absl12lts_202401164Cord9InlineRep18FindFlatStartPieceEv.cold.12, symObjAddr: 0xD2F4, symBinAddr: 0x5E7E0, symSize: 0x24 }
  - { offsetInCU: 0x41544, offset: 0xBD1C7, size: 0x8, addend: 0x0, symName: __ZNK4absl12lts_202401164Cord9InlineRep18FindFlatStartPieceEv.cold.11, symObjAddr: 0xD2D0, symBinAddr: 0x5E7BC, symSize: 0x24 }
  - { offsetInCU: 0x41588, offset: 0xBD20B, size: 0x8, addend: 0x0, symName: __ZNK4absl12lts_202401164Cord9InlineRep18FindFlatStartPieceEv.cold.8, symObjAddr: 0xD260, symBinAddr: 0x5E74C, symSize: 0x28 }
  - { offsetInCU: 0x415A0, offset: 0xBD223, size: 0x8, addend: 0x0, symName: __ZNK4absl12lts_202401164Cord9InlineRep18FindFlatStartPieceEv.cold.7, symObjAddr: 0xD23C, symBinAddr: 0x5E728, symSize: 0x24 }
  - { offsetInCU: 0x4160E, offset: 0xBD291, size: 0x8, addend: 0x0, symName: __ZNK4absl12lts_202401164Cord9InlineRep18FindFlatStartPieceEv.cold.5, symObjAddr: 0xD1F4, symBinAddr: 0x5E6E0, symSize: 0x24 }
  - { offsetInCU: 0x4163C, offset: 0xBD2BF, size: 0x8, addend: 0x0, symName: __ZNK4absl12lts_202401164Cord9InlineRep18FindFlatStartPieceEv.cold.6, symObjAddr: 0xD218, symBinAddr: 0x5E704, symSize: 0x24 }
  - { offsetInCU: 0x416AA, offset: 0xBD32D, size: 0x8, addend: 0x0, symName: __ZN4absl12lts_2024011612_GLOBAL__N_113CompareChunksEPNS0_11string_viewES3_Pm.cold.1, symObjAddr: 0xD318, symBinAddr: 0x5E804, symSize: 0x28 }
  - { offsetInCU: 0x416C2, offset: 0xBD345, size: 0x8, addend: 0x0, symName: __ZN4absl12lts_2024011612_GLOBAL__N_113CompareChunksEPNS0_11string_viewES3_Pm.cold.2, symObjAddr: 0xD340, symBinAddr: 0x5E82C, symSize: 0x24 }
  - { offsetInCU: 0x41706, offset: 0xBD389, size: 0x8, addend: 0x0, symName: __ZN4absl12lts_2024011612_GLOBAL__N_113CompareChunksEPNS0_11string_viewES3_Pm.cold.3, symObjAddr: 0xD364, symBinAddr: 0x5E850, symSize: 0x24 }
  - { offsetInCU: 0x4178B, offset: 0xBD40E, size: 0x8, addend: 0x0, symName: __ZNK4absl12lts_202401164Cord15CompareSlowPathERKS1_mm.cold.3, symObjAddr: 0xD3D8, symBinAddr: 0x5E8C4, symSize: 0x24 }
  - { offsetInCU: 0x417E5, offset: 0xBD468, size: 0x8, addend: 0x0, symName: __ZNK4absl12lts_202401164Cord15CompareSlowPathERKS1_mm.cold.4, symObjAddr: 0xD3FC, symBinAddr: 0x5E8E8, symSize: 0x24 }
  - { offsetInCU: 0x41829, offset: 0xBD4AC, size: 0x8, addend: 0x0, symName: __ZNK4absl12lts_202401164Cord15CompareSlowPathERKS1_mm.cold.5, symObjAddr: 0xD420, symBinAddr: 0x5E90C, symSize: 0x24 }
  - { offsetInCU: 0x41883, offset: 0xBD506, size: 0x8, addend: 0x0, symName: __ZNK4absl12lts_202401164Cord15CompareSlowPathERKS1_mm.cold.6, symObjAddr: 0xD444, symBinAddr: 0x5E930, symSize: 0x24 }
  - { offsetInCU: 0x418C7, offset: 0xBD54A, size: 0x8, addend: 0x0, symName: __ZNK4absl12lts_202401164Cord15CompareSlowPathERKS1_mm.cold.8, symObjAddr: 0xD48C, symBinAddr: 0x5E978, symSize: 0x24 }
  - { offsetInCU: 0x4190B, offset: 0xBD58E, size: 0x8, addend: 0x0, symName: __ZNK4absl12lts_202401164Cord15CompareSlowPathERKS1_mm.cold.7, symObjAddr: 0xD468, symBinAddr: 0x5E954, symSize: 0x24 }
  - { offsetInCU: 0x4194F, offset: 0xBD5D2, size: 0x8, addend: 0x0, symName: __ZNK4absl12lts_202401164Cord15CompareSlowPathERKS1_mm.cold.1, symObjAddr: 0xD388, symBinAddr: 0x5E874, symSize: 0x28 }
  - { offsetInCU: 0x41967, offset: 0xBD5EA, size: 0x8, addend: 0x0, symName: __ZNK4absl12lts_202401164Cord15CompareSlowPathERKS1_mm.cold.2, symObjAddr: 0xD3B0, symBinAddr: 0x5E89C, symSize: 0x28 }
  - { offsetInCU: 0x4197F, offset: 0xBD602, size: 0x8, addend: 0x0, symName: __ZN4absl12lts_2024011614GenericCompareIiNS0_11string_viewEEET_RKNS0_4CordERKT0_m.cold.1, symObjAddr: 0xD4B0, symBinAddr: 0x5E99C, symSize: 0x24 }
  - { offsetInCU: 0x41997, offset: 0xBD61A, size: 0x8, addend: 0x0, symName: __ZN4absl12lts_2024011614GenericCompareIiNS0_4CordEEET_RKS2_RKT0_m.cold.1, symObjAddr: 0xD4D4, symBinAddr: 0x5E9C0, symSize: 0x24 }
  - { offsetInCU: 0x41A45, offset: 0xBD6C8, size: 0x8, addend: 0x0, symName: '__ZN4absl12lts_2024011613cord_internal19CordRepExternalImplIZNS0_4Cord15FlattenSlowPathEvE3$_2E7ReleaseEPNS1_15CordRepExternalE', symObjAddr: 0xAD64, symBinAddr: 0x1A938, symSize: 0x68 }
  - { offsetInCU: 0x41BDF, offset: 0xBD862, size: 0x8, addend: 0x0, symName: _OUTLINED_FUNCTION_0, symObjAddr: 0xD4F8, symBinAddr: 0x1A9A0, symSize: 0x8 }
  - { offsetInCU: 0x41BF7, offset: 0xBD87A, size: 0x8, addend: 0x0, symName: _OUTLINED_FUNCTION_1, symObjAddr: 0xD500, symBinAddr: 0x1A9A8, symSize: 0x8 }
  - { offsetInCU: 0x41C0F, offset: 0xBD892, size: 0x8, addend: 0x0, symName: _OUTLINED_FUNCTION_2, symObjAddr: 0xD508, symBinAddr: 0x1A9B0, symSize: 0x8 }
  - { offsetInCU: 0x41C27, offset: 0xBD8AA, size: 0x8, addend: 0x0, symName: _OUTLINED_FUNCTION_3, symObjAddr: 0xD510, symBinAddr: 0x1A9B8, symSize: 0x8 }
  - { offsetInCU: 0x41C3F, offset: 0xBD8C2, size: 0x8, addend: 0x0, symName: _OUTLINED_FUNCTION_4, symObjAddr: 0xD518, symBinAddr: 0x1A9C0, symSize: 0x8 }
  - { offsetInCU: 0x41C57, offset: 0xBD8DA, size: 0x8, addend: 0x0, symName: _OUTLINED_FUNCTION_5, symObjAddr: 0xD520, symBinAddr: 0x1A9C8, symSize: 0x8 }
  - { offsetInCU: 0x41C6F, offset: 0xBD8F2, size: 0x8, addend: 0x0, symName: _OUTLINED_FUNCTION_6, symObjAddr: 0xD528, symBinAddr: 0x1A9D0, symSize: 0x8 }
  - { offsetInCU: 0x41C87, offset: 0xBD90A, size: 0x8, addend: 0x0, symName: _OUTLINED_FUNCTION_7, symObjAddr: 0xD530, symBinAddr: 0x1A9D8, symSize: 0x8 }
  - { offsetInCU: 0x41C9F, offset: 0xBD922, size: 0x8, addend: 0x0, symName: _OUTLINED_FUNCTION_8, symObjAddr: 0xD538, symBinAddr: 0x1A9E0, symSize: 0x8 }
  - { offsetInCU: 0x41CB7, offset: 0xBD93A, size: 0x8, addend: 0x0, symName: _OUTLINED_FUNCTION_9, symObjAddr: 0xD540, symBinAddr: 0x1A9E8, symSize: 0x8 }
  - { offsetInCU: 0x41CCF, offset: 0xBD952, size: 0x8, addend: 0x0, symName: _OUTLINED_FUNCTION_10, symObjAddr: 0xD548, symBinAddr: 0x1A9F0, symSize: 0x8 }
  - { offsetInCU: 0x41CE7, offset: 0xBD96A, size: 0x8, addend: 0x0, symName: _OUTLINED_FUNCTION_11, symObjAddr: 0xD550, symBinAddr: 0x1A9F8, symSize: 0x8 }
  - { offsetInCU: 0x41CFF, offset: 0xBD982, size: 0x8, addend: 0x0, symName: _OUTLINED_FUNCTION_12, symObjAddr: 0xD558, symBinAddr: 0x1AA00, symSize: 0x8 }
  - { offsetInCU: 0x41D17, offset: 0xBD99A, size: 0x8, addend: 0x0, symName: _OUTLINED_FUNCTION_13, symObjAddr: 0xD560, symBinAddr: 0x1AA08, symSize: 0x8 }
  - { offsetInCU: 0x41D2F, offset: 0xBD9B2, size: 0x8, addend: 0x0, symName: _OUTLINED_FUNCTION_14, symObjAddr: 0xD568, symBinAddr: 0x1AA10, symSize: 0x8 }
  - { offsetInCU: 0x41D47, offset: 0xBD9CA, size: 0x8, addend: 0x0, symName: _OUTLINED_FUNCTION_15, symObjAddr: 0xD570, symBinAddr: 0x1AA18, symSize: 0x8 }
  - { offsetInCU: 0x41D5F, offset: 0xBD9E2, size: 0x8, addend: 0x0, symName: _OUTLINED_FUNCTION_16, symObjAddr: 0xD578, symBinAddr: 0x1AA20, symSize: 0x8 }
  - { offsetInCU: 0x41D77, offset: 0xBD9FA, size: 0x8, addend: 0x0, symName: _OUTLINED_FUNCTION_17, symObjAddr: 0xD580, symBinAddr: 0x1AA28, symSize: 0x8 }
  - { offsetInCU: 0x41D8F, offset: 0xBDA12, size: 0x8, addend: 0x0, symName: _OUTLINED_FUNCTION_18, symObjAddr: 0xD588, symBinAddr: 0x1AA30, symSize: 0x8 }
  - { offsetInCU: 0x41DA7, offset: 0xBDA2A, size: 0x8, addend: 0x0, symName: _OUTLINED_FUNCTION_19, symObjAddr: 0xD590, symBinAddr: 0x1AA38, symSize: 0x8 }
  - { offsetInCU: 0x41DBF, offset: 0xBDA42, size: 0x8, addend: 0x0, symName: _OUTLINED_FUNCTION_20, symObjAddr: 0xD598, symBinAddr: 0x1AA40, symSize: 0x8 }
  - { offsetInCU: 0x41DD7, offset: 0xBDA5A, size: 0x8, addend: 0x0, symName: _OUTLINED_FUNCTION_21, symObjAddr: 0xD5A0, symBinAddr: 0x1AA48, symSize: 0x8 }
  - { offsetInCU: 0x41DEF, offset: 0xBDA72, size: 0x8, addend: 0x0, symName: _OUTLINED_FUNCTION_22, symObjAddr: 0xD5A8, symBinAddr: 0x1AA50, symSize: 0x8 }
  - { offsetInCU: 0x41E07, offset: 0xBDA8A, size: 0x8, addend: 0x0, symName: _OUTLINED_FUNCTION_23, symObjAddr: 0xD5B0, symBinAddr: 0x1AA58, symSize: 0x8 }
  - { offsetInCU: 0x41E1F, offset: 0xBDAA2, size: 0x8, addend: 0x0, symName: _OUTLINED_FUNCTION_24, symObjAddr: 0xD5B8, symBinAddr: 0x1AA60, symSize: 0x8 }
  - { offsetInCU: 0x41E37, offset: 0xBDABA, size: 0x8, addend: 0x0, symName: _OUTLINED_FUNCTION_25, symObjAddr: 0xD5C0, symBinAddr: 0x1AA68, symSize: 0x8 }
  - { offsetInCU: 0x41E4F, offset: 0xBDAD2, size: 0x8, addend: 0x0, symName: _OUTLINED_FUNCTION_26, symObjAddr: 0xD5C8, symBinAddr: 0x1AA70, symSize: 0x8 }
  - { offsetInCU: 0x26, offset: 0xBDB61, size: 0x8, addend: 0x0, symName: __ZN4absl12lts_2024011613cord_internal23GetEstimatedMemoryUsageEPKNS1_7CordRepE, symObjAddr: 0x0, symBinAddr: 0x1AA78, symSize: 0x80 }
  - { offsetInCU: 0x1A5, offset: 0xBDCE0, size: 0x8, addend: 0x0, symName: __ZN4absl12lts_2024011613cord_internal12_GLOBAL__N_115AnalyzeDataEdgeILNS2_4ModeE1EEEvNS2_10CordRepRefIXT_EEERNS2_8RawUsageIXT_EEE, symObjAddr: 0x298, symBinAddr: 0x1AD10, symSize: 0xC0 }
  - { offsetInCU: 0x2AE, offset: 0xBDDE9, size: 0x8, addend: 0x0, symName: __ZN4absl12lts_2024011613cord_internal12_GLOBAL__N_112AnalyzeBtreeILNS2_4ModeE1EEEvNS2_10CordRepRefIXT_EEERNS2_8RawUsageIXT_EEE, symObjAddr: 0x358, symBinAddr: 0x1ADD0, symSize: 0xA4 }
  - { offsetInCU: 0x2C2, offset: 0xBDDFD, size: 0x8, addend: 0x0, symName: __ZN4absl12lts_2024011613cord_internal12_GLOBAL__N_112AnalyzeBtreeILNS2_4ModeE1EEEvNS2_10CordRepRefIXT_EEERNS2_8RawUsageIXT_EEE, symObjAddr: 0x358, symBinAddr: 0x1ADD0, symSize: 0xA4 }
  - { offsetInCU: 0x45F, offset: 0xBDF9A, size: 0x8, addend: 0x0, symName: __ZN4absl12lts_2024011613cord_internal12_GLOBAL__N_115AnalyzeDataEdgeILNS2_4ModeE0EEEvNS2_10CordRepRefIXT_EEERNS2_8RawUsageIXT_EEE, symObjAddr: 0x3FC, symBinAddr: 0x1AE74, symSize: 0xF4 }
  - { offsetInCU: 0x586, offset: 0xBE0C1, size: 0x8, addend: 0x0, symName: __ZN4absl12lts_2024011613cord_internal12_GLOBAL__N_115AnalyzeDataEdgeILNS2_4ModeE0EEEvNS2_10CordRepRefIXT_EEERNS2_8RawUsageIXT_EEE, symObjAddr: 0x3FC, symBinAddr: 0x1AE74, symSize: 0xF4 }
  - { offsetInCU: 0x76B, offset: 0xBE2A6, size: 0x8, addend: 0x0, symName: __ZN4absl12lts_2024011613cord_internal12_GLOBAL__N_112AnalyzeBtreeILNS2_4ModeE0EEEvNS2_10CordRepRefIXT_EEERNS2_8RawUsageIXT_EEE, symObjAddr: 0x4F0, symBinAddr: 0x1AF68, symSize: 0x110 }
  - { offsetInCU: 0x77F, offset: 0xBE2BA, size: 0x8, addend: 0x0, symName: __ZN4absl12lts_2024011613cord_internal12_GLOBAL__N_112AnalyzeBtreeILNS2_4ModeE0EEEvNS2_10CordRepRefIXT_EEERNS2_8RawUsageIXT_EEE, symObjAddr: 0x4F0, symBinAddr: 0x1AF68, symSize: 0x110 }
  - { offsetInCU: 0xAD8, offset: 0xBE613, size: 0x8, addend: 0x0, symName: __ZN4absl12lts_2024011613cord_internal12_GLOBAL__N_115AnalyzeDataEdgeILNS2_4ModeE2EEEvNS2_10CordRepRefIXT_EEERNS2_8RawUsageIXT_EEE, symObjAddr: 0x600, symBinAddr: 0x1B078, symSize: 0x128 }
  - { offsetInCU: 0xB88, offset: 0xBE6C3, size: 0x8, addend: 0x0, symName: __ZN4absl12lts_2024011613cord_internal12_GLOBAL__N_115AnalyzeDataEdgeILNS2_4ModeE2EEEvNS2_10CordRepRefIXT_EEERNS2_8RawUsageIXT_EEE, symObjAddr: 0x600, symBinAddr: 0x1B078, symSize: 0x128 }
  - { offsetInCU: 0xDBE, offset: 0xBE8F9, size: 0x8, addend: 0x0, symName: __ZN4absl12lts_2024011613cord_internal12_GLOBAL__N_112AnalyzeBtreeILNS2_4ModeE2EEEvNS2_10CordRepRefIXT_EEERNS2_8RawUsageIXT_EEE, symObjAddr: 0x728, symBinAddr: 0x1B1A0, symSize: 0xC8 }
  - { offsetInCU: 0xDD2, offset: 0xBE90D, size: 0x8, addend: 0x0, symName: __ZN4absl12lts_2024011613cord_internal12_GLOBAL__N_112AnalyzeBtreeILNS2_4ModeE2EEEvNS2_10CordRepRefIXT_EEERNS2_8RawUsageIXT_EEE, symObjAddr: 0x728, symBinAddr: 0x1B1A0, symSize: 0xC8 }
  - { offsetInCU: 0xFCD, offset: 0xBEB08, size: 0x8, addend: 0x0, symName: __ZNSt3__112__hash_tableIPKN4absl12lts_2024011613cord_internal7CordRepENS_4hashIS6_EENS_8equal_toIS6_EENS_9allocatorIS6_EEE25__emplace_unique_key_argsIS6_JRKS6_EEENS_4pairINS_15__hash_iteratorIPNS_11__hash_nodeIS6_PvEEEEbEERKT_DpOT0_, symObjAddr: 0x7F0, symBinAddr: 0x1B268, symSize: 0x244 }
  - { offsetInCU: 0xFFE, offset: 0xBEB39, size: 0x8, addend: 0x0, symName: __ZN4absl12lts_2024011613cord_internal23GetEstimatedMemoryUsageEPKNS1_7CordRepE, symObjAddr: 0x0, symBinAddr: 0x1AA78, symSize: 0x80 }
  - { offsetInCU: 0x1103, offset: 0xBEC3E, size: 0x8, addend: 0x0, symName: __ZN4absl12lts_2024011613cord_internal32GetEstimatedFairShareMemoryUsageEPKNS1_7CordRepE, symObjAddr: 0x80, symBinAddr: 0x1AAF8, symSize: 0xE0 }
  - { offsetInCU: 0x110D, offset: 0xBEC48, size: 0x8, addend: 0x0, symName: __ZN4absl12lts_2024011613cord_internal32GetEstimatedFairShareMemoryUsageEPKNS1_7CordRepE, symObjAddr: 0x80, symBinAddr: 0x1AAF8, symSize: 0xE0 }
  - { offsetInCU: 0x13C4, offset: 0xBEEFF, size: 0x8, addend: 0x0, symName: __ZN4absl12lts_2024011613cord_internal25GetMorePreciseMemoryUsageEPKNS1_7CordRepE, symObjAddr: 0x160, symBinAddr: 0x1ABD8, symSize: 0x138 }
  - { offsetInCU: 0x13CE, offset: 0xBEF09, size: 0x8, addend: 0x0, symName: __ZN4absl12lts_2024011613cord_internal25GetMorePreciseMemoryUsageEPKNS1_7CordRepE, symObjAddr: 0x160, symBinAddr: 0x1ABD8, symSize: 0x138 }
  - { offsetInCU: 0x79EF, offset: 0xC552A, size: 0x8, addend: 0x0, symName: __ZN4absl12lts_2024011613cord_internal23GetEstimatedMemoryUsageEPKNS1_7CordRepE.cold.1, symObjAddr: 0xCD8, symBinAddr: 0x5E9E4, symSize: 0x28 }
  - { offsetInCU: 0x7B70, offset: 0xC56AB, size: 0x8, addend: 0x0, symName: __ZN4absl12lts_2024011613cord_internal32GetEstimatedFairShareMemoryUsageEPKNS1_7CordRepE.cold.1, symObjAddr: 0xD00, symBinAddr: 0x5EA0C, symSize: 0x28 }
  - { offsetInCU: 0x7F66, offset: 0xC5AA1, size: 0x8, addend: 0x0, symName: __ZNSt3__112__hash_tableIPKN4absl12lts_2024011613cord_internal7CordRepENS_4hashIS6_EENS_8equal_toIS6_EENS_9allocatorIS6_EEE25__emplace_unique_key_argsIS6_JRKS6_EEENS_4pairINS_15__hash_iteratorIPNS_11__hash_nodeIS6_PvEEEEbEERKT_DpOT0_, symObjAddr: 0x7F0, symBinAddr: 0x1B268, symSize: 0x244 }
  - { offsetInCU: 0x858D, offset: 0xC60C8, size: 0x8, addend: 0x0, symName: __ZNSt3__112__hash_tableIPKN4absl12lts_2024011613cord_internal7CordRepENS_4hashIS6_EENS_8equal_toIS6_EENS_9allocatorIS6_EEED2Ev, symObjAddr: 0xC90, symBinAddr: 0x1B6E0, symSize: 0x48 }
  - { offsetInCU: 0x883D, offset: 0xC6378, size: 0x8, addend: 0x0, symName: __ZN4absl12lts_2024011613cord_internal12_GLOBAL__N_115AnalyzeDataEdgeILNS2_4ModeE1EEEvNS2_10CordRepRefIXT_EEERNS2_8RawUsageIXT_EEE.cold.1, symObjAddr: 0xD28, symBinAddr: 0x5EA34, symSize: 0x24 }
  - { offsetInCU: 0x886A, offset: 0xC63A5, size: 0x8, addend: 0x0, symName: __ZN4absl12lts_2024011613cord_internal12_GLOBAL__N_115AnalyzeDataEdgeILNS2_4ModeE1EEEvNS2_10CordRepRefIXT_EEERNS2_8RawUsageIXT_EEE.cold.3, symObjAddr: 0xD70, symBinAddr: 0x5EA7C, symSize: 0x24 }
  - { offsetInCU: 0x8882, offset: 0xC63BD, size: 0x8, addend: 0x0, symName: __ZN4absl12lts_2024011613cord_internal12_GLOBAL__N_115AnalyzeDataEdgeILNS2_4ModeE1EEEvNS2_10CordRepRefIXT_EEERNS2_8RawUsageIXT_EEE.cold.2, symObjAddr: 0xD4C, symBinAddr: 0x5EA58, symSize: 0x24 }
  - { offsetInCU: 0x890C, offset: 0xC6447, size: 0x8, addend: 0x0, symName: __ZN4absl12lts_2024011613cord_internal12_GLOBAL__N_112AnalyzeBtreeILNS2_4ModeE1EEEvNS2_10CordRepRefIXT_EEERNS2_8RawUsageIXT_EEE.cold.1, symObjAddr: 0xD94, symBinAddr: 0x5EAA0, symSize: 0x24 }
  - { offsetInCU: 0x8939, offset: 0xC6474, size: 0x8, addend: 0x0, symName: __ZN4absl12lts_2024011613cord_internal12_GLOBAL__N_115AnalyzeDataEdgeILNS2_4ModeE0EEEvNS2_10CordRepRefIXT_EEERNS2_8RawUsageIXT_EEE.cold.1, symObjAddr: 0xDB8, symBinAddr: 0x5EAC4, symSize: 0x24 }
  - { offsetInCU: 0x8966, offset: 0xC64A1, size: 0x8, addend: 0x0, symName: __ZN4absl12lts_2024011613cord_internal12_GLOBAL__N_115AnalyzeDataEdgeILNS2_4ModeE0EEEvNS2_10CordRepRefIXT_EEERNS2_8RawUsageIXT_EEE.cold.3, symObjAddr: 0xE00, symBinAddr: 0x5EB0C, symSize: 0x24 }
  - { offsetInCU: 0x897E, offset: 0xC64B9, size: 0x8, addend: 0x0, symName: __ZN4absl12lts_2024011613cord_internal12_GLOBAL__N_115AnalyzeDataEdgeILNS2_4ModeE0EEEvNS2_10CordRepRefIXT_EEERNS2_8RawUsageIXT_EEE.cold.2, symObjAddr: 0xDDC, symBinAddr: 0x5EAE8, symSize: 0x24 }
  - { offsetInCU: 0x89AB, offset: 0xC64E6, size: 0x8, addend: 0x0, symName: __ZN4absl12lts_2024011613cord_internal12_GLOBAL__N_112AnalyzeBtreeILNS2_4ModeE0EEEvNS2_10CordRepRefIXT_EEERNS2_8RawUsageIXT_EEE.cold.1, symObjAddr: 0xE24, symBinAddr: 0x5EB30, symSize: 0x24 }
  - { offsetInCU: 0x8A06, offset: 0xC6541, size: 0x8, addend: 0x0, symName: __ZN4absl12lts_2024011613cord_internal12_GLOBAL__N_115AnalyzeDataEdgeILNS2_4ModeE2EEEvNS2_10CordRepRefIXT_EEERNS2_8RawUsageIXT_EEE.cold.1, symObjAddr: 0xE48, symBinAddr: 0x5EB54, symSize: 0x24 }
  - { offsetInCU: 0x8A33, offset: 0xC656E, size: 0x8, addend: 0x0, symName: __ZN4absl12lts_2024011613cord_internal12_GLOBAL__N_115AnalyzeDataEdgeILNS2_4ModeE2EEEvNS2_10CordRepRefIXT_EEERNS2_8RawUsageIXT_EEE.cold.4, symObjAddr: 0xEB8, symBinAddr: 0x5EBC4, symSize: 0x24 }
  - { offsetInCU: 0x8A4B, offset: 0xC6586, size: 0x8, addend: 0x0, symName: __ZN4absl12lts_2024011613cord_internal12_GLOBAL__N_115AnalyzeDataEdgeILNS2_4ModeE2EEEvNS2_10CordRepRefIXT_EEERNS2_8RawUsageIXT_EEE.cold.3, symObjAddr: 0xE90, symBinAddr: 0x5EB9C, symSize: 0x28 }
  - { offsetInCU: 0x8A78, offset: 0xC65B3, size: 0x8, addend: 0x0, symName: __ZN4absl12lts_2024011613cord_internal12_GLOBAL__N_115AnalyzeDataEdgeILNS2_4ModeE2EEEvNS2_10CordRepRefIXT_EEERNS2_8RawUsageIXT_EEE.cold.2, symObjAddr: 0xE6C, symBinAddr: 0x5EB78, symSize: 0x24 }
  - { offsetInCU: 0x8AA5, offset: 0xC65E0, size: 0x8, addend: 0x0, symName: __ZN4absl12lts_2024011613cord_internal12_GLOBAL__N_112AnalyzeBtreeILNS2_4ModeE2EEEvNS2_10CordRepRefIXT_EEERNS2_8RawUsageIXT_EEE.cold.1, symObjAddr: 0xEDC, symBinAddr: 0x5EBE8, symSize: 0x24 }
  - { offsetInCU: 0x8F40, offset: 0xC6A7B, size: 0x8, addend: 0x0, symName: __ZNSt3__112__hash_tableIPKN4absl12lts_2024011613cord_internal7CordRepENS_4hashIS6_EENS_8equal_toIS6_EENS_9allocatorIS6_EEE8__rehashILb1EEEvm, symObjAddr: 0xA5C, symBinAddr: 0x1B4AC, symSize: 0xDC }
  - { offsetInCU: 0x9025, offset: 0xC6B60, size: 0x8, addend: 0x0, symName: __ZNSt3__112__hash_tableIPKN4absl12lts_2024011613cord_internal7CordRepENS_4hashIS6_EENS_8equal_toIS6_EENS_9allocatorIS6_EEE11__do_rehashILb1EEEvm, symObjAddr: 0xB38, symBinAddr: 0x1B588, symSize: 0x158 }
  - { offsetInCU: 0x94A0, offset: 0xC6FDB, size: 0x8, addend: 0x0, symName: __ZNSt3__112__hash_tableIPKN4absl12lts_2024011613cord_internal7CordRepENS_4hashIS6_EENS_8equal_toIS6_EENS_9allocatorIS6_EEED2Ev, symObjAddr: 0xC90, symBinAddr: 0x1B6E0, symSize: 0x48 }
  - { offsetInCU: 0x965F, offset: 0xC719A, size: 0x8, addend: 0x0, symName: _OUTLINED_FUNCTION_0, symObjAddr: 0xF00, symBinAddr: 0x1B728, symSize: 0x8 }
  - { offsetInCU: 0x9677, offset: 0xC71B2, size: 0x8, addend: 0x0, symName: _OUTLINED_FUNCTION_1, symObjAddr: 0xF08, symBinAddr: 0x1B730, symSize: 0x8 }
  - { offsetInCU: 0x968F, offset: 0xC71CA, size: 0x8, addend: 0x0, symName: _OUTLINED_FUNCTION_2, symObjAddr: 0xF10, symBinAddr: 0x1B738, symSize: 0x8 }
  - { offsetInCU: 0x96A7, offset: 0xC71E2, size: 0x8, addend: 0x0, symName: _OUTLINED_FUNCTION_3, symObjAddr: 0xF18, symBinAddr: 0x1B740, symSize: 0x8 }
  - { offsetInCU: 0x37, offset: 0xC724E, size: 0x8, addend: 0x0, symName: __ZN4absl12lts_2024011610CordBuffer13kDefaultLimitE, symObjAddr: 0x0, symBinAddr: 0x6A4F0, symSize: 0x0 }
  - { offsetInCU: 0x4B, offset: 0xC7262, size: 0x8, addend: 0x0, symName: __ZN4absl12lts_2024011610CordBuffer12kCustomLimitE, symObjAddr: 0x8, symBinAddr: 0x6A4F8, symSize: 0x0 }
  - { offsetInCU: 0x26, offset: 0xC9C5C, size: 0x8, addend: 0x0, symName: __ZN4absl12lts_2024011613cord_internal16LogFatalNodeTypeEPNS1_7CordRepE, symObjAddr: 0x0, symBinAddr: 0x1B748, symSize: 0xA4 }
  - { offsetInCU: 0x4E, offset: 0xC9C84, size: 0x8, addend: 0x0, symName: __ZN4absl12lts_2024011613cord_internal24shallow_subcords_enabledE, symObjAddr: 0x29EE2, symBinAddr: 0x7E931, symSize: 0x0 }
  - { offsetInCU: 0x5C, offset: 0xC9C92, size: 0x8, addend: 0x0, symName: __ZN4absl12lts_2024011613cord_internal16LogFatalNodeTypeEPNS1_7CordRepE, symObjAddr: 0x0, symBinAddr: 0x1B748, symSize: 0xA4 }
  - { offsetInCU: 0x487E, offset: 0xCE4B4, size: 0x8, addend: 0x0, symName: __ZN4absl12lts_202401168AlphaNumC2Ei, symObjAddr: 0x1B0, symBinAddr: 0x1B8D0, symSize: 0x44 }
  - { offsetInCU: 0x4937, offset: 0xCE56D, size: 0x8, addend: 0x0, symName: __ZN4absl12lts_2024011613cord_internal7CordRep7DestroyEPS2_.cold.1, symObjAddr: 0x1F4, symBinAddr: 0x5EC0C, symSize: 0x28 }
  - { offsetInCU: 0x4A1F, offset: 0xCE655, size: 0x8, addend: 0x0, symName: __ZN4absl12lts_2024011613cord_internal7CordRep7DestroyEPS2_, symObjAddr: 0xA4, symBinAddr: 0x1B7EC, symSize: 0xE4 }
  - { offsetInCU: 0x4BC3, offset: 0xCE7F9, size: 0x8, addend: 0x0, symName: __ZN4absl12lts_2024011613cord_internal7CordRep7DestroyEPS2_.cold.5, symObjAddr: 0x294, symBinAddr: 0x5ECAC, symSize: 0x28 }
  - { offsetInCU: 0x4BFC, offset: 0xCE832, size: 0x8, addend: 0x0, symName: __ZN4absl12lts_202401168AlphaNumC2Ei, symObjAddr: 0x1B0, symBinAddr: 0x1B8D0, symSize: 0x44 }
  - { offsetInCU: 0x4C07, offset: 0xCE83D, size: 0x8, addend: 0x0, symName: __ZN4absl12lts_2024011613cord_internal7CordRep7DestroyEPS2_.cold.4, symObjAddr: 0x26C, symBinAddr: 0x5EC84, symSize: 0x28 }
  - { offsetInCU: 0x4C34, offset: 0xCE86A, size: 0x8, addend: 0x0, symName: __ZN4absl12lts_2024011613cord_internal7CordRep7DestroyEPS2_.cold.1, symObjAddr: 0x1F4, symBinAddr: 0x5EC0C, symSize: 0x28 }
  - { offsetInCU: 0x4C4C, offset: 0xCE882, size: 0x8, addend: 0x0, symName: __ZN4absl12lts_2024011613cord_internal7CordRep7DestroyEPS2_.cold.3, symObjAddr: 0x244, symBinAddr: 0x5EC5C, symSize: 0x28 }
  - { offsetInCU: 0x4C79, offset: 0xCE8AF, size: 0x8, addend: 0x0, symName: __ZN4absl12lts_2024011613cord_internal7CordRep7DestroyEPS2_.cold.2, symObjAddr: 0x21C, symBinAddr: 0x5EC34, symSize: 0x28 }
  - { offsetInCU: 0x4D52, offset: 0xCE988, size: 0x8, addend: 0x0, symName: __ZN4absl12lts_202401168AlphaNumC2Ei.cold.1, symObjAddr: 0x2E4, symBinAddr: 0x5ECD4, symSize: 0x28 }
  - { offsetInCU: 0x5C, offset: 0xCEA51, size: 0x8, addend: 0x0, symName: __ZN4absl12lts_2024011613cord_internal12CordRepBtree12kMaxCapacityE, symObjAddr: 0x89F8, symBinAddr: 0x6A500, symSize: 0x0 }
  - { offsetInCU: 0xC74, offset: 0xCF669, size: 0x8, addend: 0x0, symName: __ZN4absl12lts_2024011613cord_internal12_GLOBAL__N_132cord_btree_exhaustive_validationE.0, symObjAddr: 0x73FE7, symBinAddr: 0x7E940, symSize: 0x0 }
  - { offsetInCU: 0x1030, offset: 0xCFA25, size: 0x8, addend: 0x0, symName: __ZN4absl12lts_2024011613cord_internal12_GLOBAL__N_17DumpAllEPKNS1_7CordRepEbRNSt3__113basic_ostreamIcNS6_11char_traitsIcEEEEm, symObjAddr: 0x1A70, symBinAddr: 0x1D384, symSize: 0x6A0 }
  - { offsetInCU: 0x2B20, offset: 0xD1515, size: 0x8, addend: 0x0, symName: __ZN4absl12lts_2024011613cord_internal12_GLOBAL__N_114DeleteLeafEdgeEPNS1_7CordRepE, symObjAddr: 0x23F0, symBinAddr: 0x1DD04, symSize: 0x114 }
  - { offsetInCU: 0x2D29, offset: 0xD171E, size: 0x8, addend: 0x0, symName: __ZN4absl12lts_2024011613cord_internal12CordRepBtree7IsValidEPKS2_b, symObjAddr: 0x2504, symBinAddr: 0x1DE18, symSize: 0x3C4 }
  - { offsetInCU: 0x2DAF, offset: 0xD17A4, size: 0x8, addend: 0x0, symName: __ZN4absl12lts_2024011613cord_internal12_GLOBAL__N_115CreateSubstringEPNS1_7CordRepEmm, symObjAddr: 0x57D4, symBinAddr: 0x20A08, symSize: 0xF4 }
  - { offsetInCU: 0x3132, offset: 0xD1B27, size: 0x8, addend: 0x0, symName: __ZN4absl12lts_2024011613cord_internal12_GLOBAL__N_115StackOperationsILNS1_12CordRepBtree8EdgeTypeE1EE8FinalizeEPS4_NS4_8OpResultE, symObjAddr: 0x58C8, symBinAddr: 0x20AFC, symSize: 0xF8 }
  - { offsetInCU: 0x313C, offset: 0xD1B31, size: 0x8, addend: 0x0, symName: __ZN4absl12lts_2024011613cord_internal12_GLOBAL__N_110ResizeEdgeEPNS1_7CordRepEmb, symObjAddr: 0x36D4, symBinAddr: 0x1EF98, symSize: 0x84 }
  - { offsetInCU: 0x31D6, offset: 0xD1BCB, size: 0x8, addend: 0x0, symName: __ZN4absl12lts_2024011613cord_internal12CordRepBtree7SubTreeEmm, symObjAddr: 0x3758, symBinAddr: 0x1F01C, symSize: 0x48C }
  - { offsetInCU: 0x324B, offset: 0xD1C40, size: 0x8, addend: 0x0, symName: __ZN4absl12lts_2024011613cord_internal32SetCordBtreeExhaustiveValidationEb, symObjAddr: 0x1990, symBinAddr: 0x1D2A4, symSize: 0xC }
  - { offsetInCU: 0x327D, offset: 0xD1C72, size: 0x8, addend: 0x0, symName: __ZN4absl12lts_2024011613cord_internal32SetCordBtreeExhaustiveValidationEb, symObjAddr: 0x1990, symBinAddr: 0x1D2A4, symSize: 0xC }
  - { offsetInCU: 0x32A4, offset: 0xD1C99, size: 0x8, addend: 0x0, symName: __ZN4absl12lts_2024011613cord_internal32SetCordBtreeExhaustiveValidationEb, symObjAddr: 0x1990, symBinAddr: 0x1D2A4, symSize: 0xC }
  - { offsetInCU: 0x32C5, offset: 0xD1CBA, size: 0x8, addend: 0x0, symName: __ZN4absl12lts_2024011613cord_internal38IsCordBtreeExhaustiveValidationEnabledEv, symObjAddr: 0x199C, symBinAddr: 0x1D2B0, symSize: 0x10 }
  - { offsetInCU: 0x32DD, offset: 0xD1CD2, size: 0x8, addend: 0x0, symName: __ZN4absl12lts_2024011613cord_internal38IsCordBtreeExhaustiveValidationEnabledEv, symObjAddr: 0x199C, symBinAddr: 0x1D2B0, symSize: 0x10 }
  - { offsetInCU: 0x32F8, offset: 0xD1CED, size: 0x8, addend: 0x0, symName: __ZN4absl12lts_2024011613cord_internal38IsCordBtreeExhaustiveValidationEnabledEv, symObjAddr: 0x199C, symBinAddr: 0x1D2B0, symSize: 0x10 }
  - { offsetInCU: 0x4059, offset: 0xD2A4E, size: 0x8, addend: 0x0, symName: __ZN4absl12lts_2024011613AbslStringifyINS0_16strings_internal13StringifySinkEEEvRT_NS0_3HexE, symObjAddr: 0x52C8, symBinAddr: 0x20944, symSize: 0xC4 }
  - { offsetInCU: 0x4484, offset: 0xD2E79, size: 0x8, addend: 0x0, symName: '__ZN4absl12lts_2024011619functional_internal12InvokeObjectIZNS0_13cord_internal12CordRepBtree10CreateSlowEPNS3_7CordRepEE3$_0vJS6_mmEEET0_NS1_7VoidPtrEDpNS1_8ForwardTIT1_E4typeE', symObjAddr: 0x5AB8, symBinAddr: 0x20CEC, symSize: 0x100 }
  - { offsetInCU: 0x4882, offset: 0xD3277, size: 0x8, addend: 0x0, symName: '__ZN4absl12lts_2024011619functional_internal12InvokeObjectIZNS0_13cord_internal12CordRepBtree10AppendSlowEPS4_PNS3_7CordRepEE3$_1vJS7_mmEEET0_NS1_7VoidPtrEDpNS1_8ForwardTIT1_E4typeE', symObjAddr: 0x5BB8, symBinAddr: 0x20DEC, symSize: 0x98 }
  - { offsetInCU: 0x4A40, offset: 0xD3435, size: 0x8, addend: 0x0, symName: '__ZN4absl12lts_2024011619functional_internal12InvokeObjectIZNS0_13cord_internal12CordRepBtree11PrependSlowEPS4_PNS3_7CordRepEE3$_2vJS7_mmEEET0_NS1_7VoidPtrEDpNS1_8ForwardTIT1_E4typeE', symObjAddr: 0x5C50, symBinAddr: 0x20E84, symSize: 0x98 }
  - { offsetInCU: 0x84D9, offset: 0xD6ECE, size: 0x8, addend: 0x0, symName: __ZN4absl12lts_2024011613cord_internal12CordRepBtree10CreateSlowEPNS1_7CordRepE, symObjAddr: 0x4964, symBinAddr: 0x20154, symSize: 0x40 }
  - { offsetInCU: 0x8595, offset: 0xD6F8A, size: 0x8, addend: 0x0, symName: __ZN4absl12lts_2024011613cord_internal12CordRepBtree10AppendSlowEPS2_PNS1_7CordRepE, symObjAddr: 0x49A4, symBinAddr: 0x20194, symSize: 0x5C }
  - { offsetInCU: 0x8658, offset: 0xD704D, size: 0x8, addend: 0x0, symName: __ZN4absl12lts_2024011613cord_internal12CordRepBtree11PrependSlowEPS2_PNS1_7CordRepE, symObjAddr: 0x4A00, symBinAddr: 0x201F0, symSize: 0x60 }
  - { offsetInCU: 0xA6F5, offset: 0xD90EA, size: 0x8, addend: 0x0, symName: __ZN4absl12lts_2024011613cord_internal12CordRepBtree10AddCordRepILNS2_8EdgeTypeE0EEEPS2_S5_PNS1_7CordRepE, symObjAddr: 0x0, symBinAddr: 0x1B914, symSize: 0x1E8 }
  - { offsetInCU: 0xAA66, offset: 0xD945B, size: 0x8, addend: 0x0, symName: __ZN4absl12lts_2024011613cord_internal12CordRepBtree10AddCordRepILNS2_8EdgeTypeE0EEEPS2_S5_PNS1_7CordRepE.cold.2, symObjAddr: 0x5F94, symBinAddr: 0x5ED20, symSize: 0x24 }
  - { offsetInCU: 0xAAA9, offset: 0xD949E, size: 0x8, addend: 0x0, symName: __ZN4absl12lts_2024011613cord_internal12CordRepBtree10AddCordRepILNS2_8EdgeTypeE0EEEPS2_S5_PNS1_7CordRepE.cold.1, symObjAddr: 0x5F70, symBinAddr: 0x5ECFC, symSize: 0x24 }
  - { offsetInCU: 0xAAEC, offset: 0xD94E1, size: 0x8, addend: 0x0, symName: __ZN4absl12lts_2024011613cord_internal12CordRepBtree7AddEdgeILNS2_8EdgeTypeE0EEENS2_8OpResultEbPNS1_7CordRepEm, symObjAddr: 0x1E8, symBinAddr: 0x1BAFC, symSize: 0x1AC }
  - { offsetInCU: 0xB1F7, offset: 0xD9BEC, size: 0x8, addend: 0x0, symName: __ZN4absl12lts_2024011613cord_internal12CordRepBtree10AddCordRepILNS2_8EdgeTypeE1EEEPS2_S5_PNS1_7CordRepE, symObjAddr: 0x394, symBinAddr: 0x1BCA8, symSize: 0x1E8 }
  - { offsetInCU: 0xB20C, offset: 0xD9C01, size: 0x8, addend: 0x0, symName: __ZN4absl12lts_2024011613cord_internal12CordRepBtree7SetEdgeILNS2_8EdgeTypeE0EEENS2_8OpResultEbPNS1_7CordRepEm, symObjAddr: 0x5CE8, symBinAddr: 0x20F1C, symSize: 0x140 }
  - { offsetInCU: 0xB68B, offset: 0xDA080, size: 0x8, addend: 0x0, symName: __ZN4absl12lts_2024011613cord_internal12CordRepBtree7SetEdgeILNS2_8EdgeTypeE1EEENS2_8OpResultEbPNS1_7CordRepEm, symObjAddr: 0x5E28, symBinAddr: 0x2105C, symSize: 0x148 }
  - { offsetInCU: 0xB6A0, offset: 0xDA095, size: 0x8, addend: 0x0, symName: __ZN4absl12lts_2024011613cord_internal12_GLOBAL__N_115StackOperationsILNS1_12CordRepBtree8EdgeTypeE0EE8FinalizeEPS4_NS4_8OpResultE, symObjAddr: 0x59C0, symBinAddr: 0x20BF4, symSize: 0xF8 }
  - { offsetInCU: 0xB9FB, offset: 0xDA3F0, size: 0x8, addend: 0x0, symName: '__ZN4absl12lts_2024011619functional_internal12InvokeObjectIZNS0_13cord_internal12CordRepBtree10CreateSlowEPNS3_7CordRepEE3$_0vJS6_mmEEET0_NS1_7VoidPtrEDpNS1_8ForwardTIT1_E4typeE', symObjAddr: 0x5AB8, symBinAddr: 0x20CEC, symSize: 0x100 }
  - { offsetInCU: 0xBE80, offset: 0xDA875, size: 0x8, addend: 0x0, symName: __ZN4absl12lts_2024011613cord_internal12CordRepBtree7AddEdgeILNS2_8EdgeTypeE0EEENS2_8OpResultEbPNS1_7CordRepEm.cold.1, symObjAddr: 0x5FB8, symBinAddr: 0x5ED44, symSize: 0x24 }
  - { offsetInCU: 0xBFCB, offset: 0xDA9C0, size: 0x8, addend: 0x0, symName: __ZN4absl12lts_2024011613cord_internal12CordRepBtree10AddCordRepILNS2_8EdgeTypeE1EEEPS2_S5_PNS1_7CordRepE, symObjAddr: 0x394, symBinAddr: 0x1BCA8, symSize: 0x1E8 }
  - { offsetInCU: 0xC33C, offset: 0xDAD31, size: 0x8, addend: 0x0, symName: __ZN4absl12lts_2024011613cord_internal12CordRepBtree10AddCordRepILNS2_8EdgeTypeE1EEEPS2_S5_PNS1_7CordRepE.cold.2, symObjAddr: 0x6000, symBinAddr: 0x5ED8C, symSize: 0x24 }
  - { offsetInCU: 0xC37F, offset: 0xDAD74, size: 0x8, addend: 0x0, symName: __ZN4absl12lts_2024011613cord_internal12CordRepBtree10AddCordRepILNS2_8EdgeTypeE1EEEPS2_S5_PNS1_7CordRepE.cold.1, symObjAddr: 0x5FDC, symBinAddr: 0x5ED68, symSize: 0x24 }
  - { offsetInCU: 0xC3C2, offset: 0xDADB7, size: 0x8, addend: 0x0, symName: __ZN4absl12lts_2024011613cord_internal12CordRepBtree7AddEdgeILNS2_8EdgeTypeE1EEENS2_8OpResultEbPNS1_7CordRepEm, symObjAddr: 0x57C, symBinAddr: 0x1BE90, symSize: 0x1A4 }
  - { offsetInCU: 0xCAAF, offset: 0xDB4A4, size: 0x8, addend: 0x0, symName: __ZN4absl12lts_2024011613cord_internal12CordRepBtree7AddDataILNS2_8EdgeTypeE0EEEPS2_S5_NS0_11string_viewEm, symObjAddr: 0x720, symBinAddr: 0x1C034, symSize: 0x6A8 }
  - { offsetInCU: 0xCABA, offset: 0xDB4AF, size: 0x8, addend: 0x0, symName: __ZN4absl12lts_2024011613cord_internal12CordRepBtree7SetEdgeILNS2_8EdgeTypeE1EEENS2_8OpResultEbPNS1_7CordRepEm, symObjAddr: 0x5E28, symBinAddr: 0x2105C, symSize: 0x148 }
  - { offsetInCU: 0xCF46, offset: 0xDB93B, size: 0x8, addend: 0x0, symName: __ZN4absl12lts_2024011613cord_internal12CordRepBtree10AddCordRepILNS2_8EdgeTypeE0EEEPS2_S5_PNS1_7CordRepE.cold.1, symObjAddr: 0x5F70, symBinAddr: 0x5ECFC, symSize: 0x24 }
  - { offsetInCU: 0xCF5B, offset: 0xDB950, size: 0x8, addend: 0x0, symName: __ZN4absl12lts_2024011613cord_internal12_GLOBAL__N_115StackOperationsILNS1_12CordRepBtree8EdgeTypeE1EE8FinalizeEPS4_NS4_8OpResultE, symObjAddr: 0x58C8, symBinAddr: 0x20AFC, symSize: 0xF8 }
  - { offsetInCU: 0xD2B6, offset: 0xDBCAB, size: 0x8, addend: 0x0, symName: __ZN4absl12lts_2024011613cord_internal12_GLOBAL__N_115StackOperationsILNS1_12CordRepBtree8EdgeTypeE0EE8FinalizeEPS4_NS4_8OpResultE, symObjAddr: 0x59C0, symBinAddr: 0x20BF4, symSize: 0xF8 }
  - { offsetInCU: 0xD35B, offset: 0xDBD50, size: 0x8, addend: 0x0, symName: __ZN4absl12lts_2024011613cord_internal12CordRepBtree7AddEdgeILNS2_8EdgeTypeE1EEENS2_8OpResultEbPNS1_7CordRepEm.cold.2, symObjAddr: 0x604C, symBinAddr: 0x5EDD8, symSize: 0x24 }
  - { offsetInCU: 0xD3B5, offset: 0xDBDAA, size: 0x8, addend: 0x0, symName: __ZN4absl12lts_2024011613cord_internal12CordRepBtree7AddEdgeILNS2_8EdgeTypeE1EEENS2_8OpResultEbPNS1_7CordRepEm.cold.1, symObjAddr: 0x6024, symBinAddr: 0x5EDB0, symSize: 0x28 }
  - { offsetInCU: 0xD4E3, offset: 0xDBED8, size: 0x8, addend: 0x0, symName: __ZN4absl12lts_2024011613cord_internal12CordRepBtree7AddDataILNS2_8EdgeTypeE0EEEPS2_S5_NS0_11string_viewEm, symObjAddr: 0x720, symBinAddr: 0x1C034, symSize: 0x6A8 }
  - { offsetInCU: 0xDF97, offset: 0xDC98C, size: 0x8, addend: 0x0, symName: __ZN4absl12lts_2024011613cord_internal12CordRepBtree7AddDataILNS2_8EdgeTypeE0EEENS0_11string_viewES5_m, symObjAddr: 0xDC8, symBinAddr: 0x1C6DC, symSize: 0x164 }
  - { offsetInCU: 0xDFAC, offset: 0xDC9A1, size: 0x8, addend: 0x0, symName: __ZN4absl12lts_2024011613cord_internal12CordRepBtree7AddDataILNS2_8EdgeTypeE0EEEPS2_S5_NS0_11string_viewEm.cold.9, symObjAddr: 0x61A0, symBinAddr: 0x5EF2C, symSize: 0x24 }
  - { offsetInCU: 0xDFEF, offset: 0xDC9E4, size: 0x8, addend: 0x0, symName: __ZN4absl12lts_2024011613cord_internal12CordRepBtree7AddDataILNS2_8EdgeTypeE0EEEPS2_S5_NS0_11string_viewEm.cold.8, symObjAddr: 0x617C, symBinAddr: 0x5EF08, symSize: 0x24 }
  - { offsetInCU: 0xE032, offset: 0xDCA27, size: 0x8, addend: 0x0, symName: __ZN4absl12lts_2024011613cord_internal12CordRepBtree7AddDataILNS2_8EdgeTypeE0EEENS0_11string_viewES5_m, symObjAddr: 0xDC8, symBinAddr: 0x1C6DC, symSize: 0x164 }
  - { offsetInCU: 0xE2F1, offset: 0xDCCE6, size: 0x8, addend: 0x0, symName: __ZN4absl12lts_2024011613cord_internal12CordRepBtree7NewLeafILNS2_8EdgeTypeE0EEEPS2_NS0_11string_viewEm, symObjAddr: 0xF2C, symBinAddr: 0x1C840, symSize: 0x128 }
  - { offsetInCU: 0xE306, offset: 0xDCCFB, size: 0x8, addend: 0x0, symName: __ZN4absl12lts_2024011613cord_internal12CordRepBtree7NewLeafILNS2_8EdgeTypeE0EEEPS2_NS0_11string_viewEm, symObjAddr: 0xF2C, symBinAddr: 0x1C840, symSize: 0x128 }
  - { offsetInCU: 0xE765, offset: 0xDD15A, size: 0x8, addend: 0x0, symName: __ZNK4absl12lts_2024011613cord_internal12CordRepBtree12GetCharacterEm, symObjAddr: 0x46D4, symBinAddr: 0x1FEC4, symSize: 0xF8 }
  - { offsetInCU: 0xE770, offset: 0xDD165, size: 0x8, addend: 0x0, symName: __ZN4absl12lts_2024011613cord_internal12CordRepBtree7AddDataILNS2_8EdgeTypeE0EEEPS2_S5_NS0_11string_viewEm.cold.4, symObjAddr: 0x60E4, symBinAddr: 0x5EE70, symSize: 0x28 }
  - { offsetInCU: 0xE79E, offset: 0xDD193, size: 0x8, addend: 0x0, symName: __ZN4absl12lts_2024011613cord_internal12CordRepBtree7AddDataILNS2_8EdgeTypeE0EEEPS2_S5_NS0_11string_viewEm.cold.3, symObjAddr: 0x60C0, symBinAddr: 0x5EE4C, symSize: 0x24 }
  - { offsetInCU: 0xE7E2, offset: 0xDD1D7, size: 0x8, addend: 0x0, symName: __ZN4absl12lts_2024011613cord_internal12CordRepBtree7AddDataILNS2_8EdgeTypeE0EEEPS2_S5_NS0_11string_viewEm.cold.1, symObjAddr: 0x6070, symBinAddr: 0x5EDFC, symSize: 0x28 }
  - { offsetInCU: 0xE810, offset: 0xDD205, size: 0x8, addend: 0x0, symName: __ZN4absl12lts_2024011613cord_internal12CordRepBtree7AddDataILNS2_8EdgeTypeE0EEEPS2_S5_NS0_11string_viewEm.cold.2, symObjAddr: 0x6098, symBinAddr: 0x5EE24, symSize: 0x28 }
  - { offsetInCU: 0xE83E, offset: 0xDD233, size: 0x8, addend: 0x0, symName: __ZN4absl12lts_2024011613cord_internal12CordRepBtree7AddDataILNS2_8EdgeTypeE0EEEPS2_S5_NS0_11string_viewEm.cold.7, symObjAddr: 0x6158, symBinAddr: 0x5EEE4, symSize: 0x24 }
  - { offsetInCU: 0xE898, offset: 0xDD28D, size: 0x8, addend: 0x0, symName: __ZN4absl12lts_2024011613cord_internal12CordRepBtree7AddDataILNS2_8EdgeTypeE0EEEPS2_S5_NS0_11string_viewEm.cold.5, symObjAddr: 0x610C, symBinAddr: 0x5EE98, symSize: 0x24 }
  - { offsetInCU: 0xE8B0, offset: 0xDD2A5, size: 0x8, addend: 0x0, symName: __ZN4absl12lts_2024011613cord_internal12CordRepBtree7AddDataILNS2_8EdgeTypeE0EEEPS2_S5_NS0_11string_viewEm.cold.6, symObjAddr: 0x6130, symBinAddr: 0x5EEBC, symSize: 0x28 }
  - { offsetInCU: 0xEAA5, offset: 0xDD49A, size: 0x8, addend: 0x0, symName: __ZN4absl12lts_2024011613cord_internal12_GLOBAL__N_115CreateSubstringEPNS1_7CordRepEmm, symObjAddr: 0x57D4, symBinAddr: 0x20A08, symSize: 0xF4 }
  - { offsetInCU: 0xEAC1, offset: 0xDD4B6, size: 0x8, addend: 0x0, symName: __ZN4absl12lts_2024011613cord_internal12CordRepBtree7AddDataILNS2_8EdgeTypeE0EEENS0_11string_viewES5_m.cold.1, symObjAddr: 0x61C4, symBinAddr: 0x5EF50, symSize: 0x28 }
  - { offsetInCU: 0xEAD9, offset: 0xDD4CE, size: 0x8, addend: 0x0, symName: __ZN4absl12lts_2024011613cord_internal12CordRepBtree7AddDataILNS2_8EdgeTypeE0EEENS0_11string_viewES5_m.cold.2, symObjAddr: 0x61EC, symBinAddr: 0x5EF78, symSize: 0x28 }
  - { offsetInCU: 0xEBFD, offset: 0xDD5F2, size: 0x8, addend: 0x0, symName: __ZN4absl12lts_2024011613cord_internal12CordRepBtree7AddDataILNS2_8EdgeTypeE1EEEPS2_S5_NS0_11string_viewEm, symObjAddr: 0x1054, symBinAddr: 0x1C968, symSize: 0x6B8 }
  - { offsetInCU: 0xF6B4, offset: 0xDE0A9, size: 0x8, addend: 0x0, symName: __ZN4absl12lts_2024011613cord_internal12CordRepBtree7AddDataILNS2_8EdgeTypeE1EEENS0_11string_viewES5_m, symObjAddr: 0x170C, symBinAddr: 0x1D020, symSize: 0x154 }
  - { offsetInCU: 0xF6C9, offset: 0xDE0BE, size: 0x8, addend: 0x0, symName: __ZN4absl12lts_2024011613cord_internal12CordRepBtree7AddDataILNS2_8EdgeTypeE1EEEPS2_S5_NS0_11string_viewEm.cold.9, symObjAddr: 0x6344, symBinAddr: 0x5F0D0, symSize: 0x24 }
  - { offsetInCU: 0xF70C, offset: 0xDE101, size: 0x8, addend: 0x0, symName: __ZN4absl12lts_2024011613cord_internal12CordRepBtree7AddDataILNS2_8EdgeTypeE1EEEPS2_S5_NS0_11string_viewEm.cold.8, symObjAddr: 0x6320, symBinAddr: 0x5F0AC, symSize: 0x24 }
  - { offsetInCU: 0xF74F, offset: 0xDE144, size: 0x8, addend: 0x0, symName: __ZN4absl12lts_2024011613cord_internal12CordRepBtree7AddDataILNS2_8EdgeTypeE1EEENS0_11string_viewES5_m, symObjAddr: 0x170C, symBinAddr: 0x1D020, symSize: 0x154 }
  - { offsetInCU: 0xFA0F, offset: 0xDE404, size: 0x8, addend: 0x0, symName: __ZN4absl12lts_2024011613cord_internal12CordRepBtree7NewLeafILNS2_8EdgeTypeE1EEEPS2_NS0_11string_viewEm, symObjAddr: 0x1860, symBinAddr: 0x1D174, symSize: 0x130 }
  - { offsetInCU: 0xFD93, offset: 0xDE788, size: 0x8, addend: 0x0, symName: __ZN4absl12lts_2024011613cord_internal12CordRepBtree7AddDataILNS2_8EdgeTypeE1EEEPS2_S5_NS0_11string_viewEm.cold.4, symObjAddr: 0x6288, symBinAddr: 0x5F014, symSize: 0x28 }
  - { offsetInCU: 0xFDC1, offset: 0xDE7B6, size: 0x8, addend: 0x0, symName: __ZN4absl12lts_2024011613cord_internal12CordRepBtree7AddDataILNS2_8EdgeTypeE1EEEPS2_S5_NS0_11string_viewEm.cold.3, symObjAddr: 0x6264, symBinAddr: 0x5EFF0, symSize: 0x24 }
  - { offsetInCU: 0xFE05, offset: 0xDE7FA, size: 0x8, addend: 0x0, symName: __ZN4absl12lts_2024011613cord_internal12CordRepBtree7AddDataILNS2_8EdgeTypeE1EEEPS2_S5_NS0_11string_viewEm.cold.1, symObjAddr: 0x6214, symBinAddr: 0x5EFA0, symSize: 0x28 }
  - { offsetInCU: 0xFE33, offset: 0xDE828, size: 0x8, addend: 0x0, symName: __ZN4absl12lts_2024011613cord_internal12CordRepBtree7AddDataILNS2_8EdgeTypeE1EEEPS2_S5_NS0_11string_viewEm.cold.2, symObjAddr: 0x623C, symBinAddr: 0x5EFC8, symSize: 0x28 }
  - { offsetInCU: 0xFE61, offset: 0xDE856, size: 0x8, addend: 0x0, symName: __ZN4absl12lts_2024011613cord_internal12CordRepBtree7AddDataILNS2_8EdgeTypeE1EEEPS2_S5_NS0_11string_viewEm.cold.7, symObjAddr: 0x62FC, symBinAddr: 0x5F088, symSize: 0x24 }
  - { offsetInCU: 0xFEBB, offset: 0xDE8B0, size: 0x8, addend: 0x0, symName: __ZN4absl12lts_2024011613cord_internal12CordRepBtree7AddDataILNS2_8EdgeTypeE1EEEPS2_S5_NS0_11string_viewEm.cold.5, symObjAddr: 0x62B0, symBinAddr: 0x5F03C, symSize: 0x24 }
  - { offsetInCU: 0xFED3, offset: 0xDE8C8, size: 0x8, addend: 0x0, symName: __ZN4absl12lts_2024011613cord_internal12CordRepBtree7AddDataILNS2_8EdgeTypeE1EEEPS2_S5_NS0_11string_viewEm.cold.6, symObjAddr: 0x62D4, symBinAddr: 0x5F060, symSize: 0x28 }
  - { offsetInCU: 0xFF17, offset: 0xDE90C, size: 0x8, addend: 0x0, symName: __ZN4absl12lts_2024011613cord_internal12CordRepBtree7AddDataILNS2_8EdgeTypeE1EEENS0_11string_viewES5_m.cold.1, symObjAddr: 0x6368, symBinAddr: 0x5F0F4, symSize: 0x28 }
  - { offsetInCU: 0xFF2F, offset: 0xDE924, size: 0x8, addend: 0x0, symName: __ZN4absl12lts_2024011613cord_internal12CordRepBtree7AddDataILNS2_8EdgeTypeE1EEENS0_11string_viewES5_m.cold.2, symObjAddr: 0x6390, symBinAddr: 0x5F11C, symSize: 0x28 }
  - { offsetInCU: 0xFFB6, offset: 0xDE9AB, size: 0x8, addend: 0x0, symName: __ZN4absl12lts_2024011613cord_internal12CordRepBtree4DumpEPKNS1_7CordRepENS0_11string_viewEbRNSt3__113basic_ostreamIcNS7_11char_traitsIcEEEE, symObjAddr: 0x19AC, symBinAddr: 0x1D2C0, symSize: 0xC4 }
  - { offsetInCU: 0x1081C, offset: 0xDF211, size: 0x8, addend: 0x0, symName: __ZN4absl12lts_2024011613AbslStringifyINS0_16strings_internal13StringifySinkEEEvRT_NS0_3HexE, symObjAddr: 0x52C8, symBinAddr: 0x20944, symSize: 0xC4 }
  - { offsetInCU: 0x10A1B, offset: 0xDF410, size: 0x8, addend: 0x0, symName: __ZN4absl12lts_2024011613cord_internal12_GLOBAL__N_17DumpAllEPKNS1_7CordRepEbRNSt3__113basic_ostreamIcNS6_11char_traitsIcEEEEm.cold.1, symObjAddr: 0x63B8, symBinAddr: 0x5F144, symSize: 0x28 }
  - { offsetInCU: 0x10A33, offset: 0xDF428, size: 0x8, addend: 0x0, symName: __ZN4absl12lts_2024011613cord_internal12CordRepBtree4DumpEPKNS1_7CordRepENS0_11string_viewERNSt3__113basic_ostreamIcNS7_11char_traitsIcEEEE, symObjAddr: 0x2110, symBinAddr: 0x1DA24, symSize: 0xC }
  - { offsetInCU: 0x10AA4, offset: 0xDF499, size: 0x8, addend: 0x0, symName: __ZN4absl12lts_2024011613cord_internal12CordRepBtree4DumpEPKNS1_7CordRepERNSt3__113basic_ostreamIcNS6_11char_traitsIcEEEE, symObjAddr: 0x211C, symBinAddr: 0x1DA30, symSize: 0x14 }
  - { offsetInCU: 0x10B67, offset: 0xDF55C, size: 0x8, addend: 0x0, symName: __ZN4absl12lts_2024011613cord_internal12CordRepBtree7DestroyEPS2_, symObjAddr: 0x2130, symBinAddr: 0x1DA44, symSize: 0x2C0 }
  - { offsetInCU: 0x113A7, offset: 0xDFD9C, size: 0x8, addend: 0x0, symName: __ZN4absl12lts_2024011613cord_internal12_GLOBAL__N_114DeleteLeafEdgeEPNS1_7CordRepE, symObjAddr: 0x23F0, symBinAddr: 0x1DD04, symSize: 0x114 }
  - { offsetInCU: 0x113B2, offset: 0xDFDA7, size: 0x8, addend: 0x0, symName: __ZN4absl12lts_2024011613cord_internal12CordRepBtree7DestroyEPS2_.cold.8, symObjAddr: 0x64DC, symBinAddr: 0x5F268, symSize: 0x24 }
  - { offsetInCU: 0x113F6, offset: 0xDFDEB, size: 0x8, addend: 0x0, symName: __ZN4absl12lts_2024011613cord_internal12CordRepBtree7DestroyEPS2_.cold.2, symObjAddr: 0x6404, symBinAddr: 0x5F190, symSize: 0x24 }
  - { offsetInCU: 0x1143A, offset: 0xDFE2F, size: 0x8, addend: 0x0, symName: __ZN4absl12lts_2024011613cord_internal12CordRepBtree7DestroyEPS2_.cold.4, symObjAddr: 0x644C, symBinAddr: 0x5F1D8, symSize: 0x24 }
  - { offsetInCU: 0x1147E, offset: 0xDFE73, size: 0x8, addend: 0x0, symName: __ZN4absl12lts_2024011613cord_internal12CordRepBtree7DestroyEPS2_.cold.6, symObjAddr: 0x6494, symBinAddr: 0x5F220, symSize: 0x24 }
  - { offsetInCU: 0x114AC, offset: 0xDFEA1, size: 0x8, addend: 0x0, symName: __ZN4absl12lts_2024011613cord_internal12CordRepBtree7DestroyEPS2_.cold.7, symObjAddr: 0x64B8, symBinAddr: 0x5F244, symSize: 0x24 }
  - { offsetInCU: 0x114F0, offset: 0xDFEE5, size: 0x8, addend: 0x0, symName: __ZN4absl12lts_2024011613cord_internal12CordRepBtree7DestroyEPS2_.cold.1, symObjAddr: 0x63E0, symBinAddr: 0x5F16C, symSize: 0x24 }
  - { offsetInCU: 0x11534, offset: 0xDFF29, size: 0x8, addend: 0x0, symName: __ZN4absl12lts_2024011613cord_internal12CordRepBtree7DestroyEPS2_.cold.10, symObjAddr: 0x6524, symBinAddr: 0x5F2B0, symSize: 0x24 }
  - { offsetInCU: 0x11578, offset: 0xDFF6D, size: 0x8, addend: 0x0, symName: __ZN4absl12lts_2024011613cord_internal12CordRepBtree7DestroyEPS2_.cold.5, symObjAddr: 0x6470, symBinAddr: 0x5F1FC, symSize: 0x24 }
  - { offsetInCU: 0x115BC, offset: 0xDFFB1, size: 0x8, addend: 0x0, symName: __ZN4absl12lts_2024011613cord_internal12CordRepBtree7DestroyEPS2_.cold.9, symObjAddr: 0x6500, symBinAddr: 0x5F28C, symSize: 0x24 }
  - { offsetInCU: 0x11600, offset: 0xDFFF5, size: 0x8, addend: 0x0, symName: __ZN4absl12lts_2024011613cord_internal12CordRepBtree7DestroyEPS2_.cold.3, symObjAddr: 0x6428, symBinAddr: 0x5F1B4, symSize: 0x24 }
  - { offsetInCU: 0x116AA, offset: 0xE009F, size: 0x8, addend: 0x0, symName: __ZN4absl12lts_2024011613cord_internal12_GLOBAL__N_114DeleteLeafEdgeEPNS1_7CordRepE.cold.1, symObjAddr: 0x6548, symBinAddr: 0x5F2D4, symSize: 0x28 }
  - { offsetInCU: 0x116D7, offset: 0xE00CC, size: 0x8, addend: 0x0, symName: __ZN4absl12lts_2024011613cord_internal12_GLOBAL__N_114DeleteLeafEdgeEPNS1_7CordRepE.cold.8, symObjAddr: 0x6654, symBinAddr: 0x5F3E0, symSize: 0x28 }
  - { offsetInCU: 0x116EF, offset: 0xE00E4, size: 0x8, addend: 0x0, symName: __ZN4absl12lts_2024011613cord_internal12_GLOBAL__N_114DeleteLeafEdgeEPNS1_7CordRepE.cold.4, symObjAddr: 0x65BC, symBinAddr: 0x5F348, symSize: 0x24 }
  - { offsetInCU: 0x11731, offset: 0xE0126, size: 0x8, addend: 0x0, symName: __ZN4absl12lts_2024011613cord_internal12_GLOBAL__N_114DeleteLeafEdgeEPNS1_7CordRepE.cold.2, symObjAddr: 0x6570, symBinAddr: 0x5F2FC, symSize: 0x28 }
  - { offsetInCU: 0x1175E, offset: 0xE0153, size: 0x8, addend: 0x0, symName: __ZN4absl12lts_2024011613cord_internal12_GLOBAL__N_114DeleteLeafEdgeEPNS1_7CordRepE.cold.3, symObjAddr: 0x6598, symBinAddr: 0x5F324, symSize: 0x24 }
  - { offsetInCU: 0x1178B, offset: 0xE0180, size: 0x8, addend: 0x0, symName: __ZN4absl12lts_2024011613cord_internal12_GLOBAL__N_114DeleteLeafEdgeEPNS1_7CordRepE.cold.5, symObjAddr: 0x65E0, symBinAddr: 0x5F36C, symSize: 0x24 }
  - { offsetInCU: 0x117CD, offset: 0xE01C2, size: 0x8, addend: 0x0, symName: __ZN4absl12lts_2024011613cord_internal12_GLOBAL__N_114DeleteLeafEdgeEPNS1_7CordRepE.cold.7, symObjAddr: 0x662C, symBinAddr: 0x5F3B8, symSize: 0x28 }
  - { offsetInCU: 0x117FA, offset: 0xE01EF, size: 0x8, addend: 0x0, symName: __ZN4absl12lts_2024011613cord_internal12_GLOBAL__N_114DeleteLeafEdgeEPNS1_7CordRepE.cold.6, symObjAddr: 0x6604, symBinAddr: 0x5F390, symSize: 0x28 }
  - { offsetInCU: 0x11852, offset: 0xE0247, size: 0x8, addend: 0x0, symName: __ZN4absl12lts_2024011613cord_internal12CordRepBtree7IsValidEPKS2_b, symObjAddr: 0x2504, symBinAddr: 0x1DE18, symSize: 0x3C4 }
  - { offsetInCU: 0x121DD, offset: 0xE0BD2, size: 0x8, addend: 0x0, symName: __ZN4absl12lts_2024011613cord_internal12CordRepBtree7IsValidEPKS2_b.cold.1, symObjAddr: 0x667C, symBinAddr: 0x5F408, symSize: 0x24 }
  - { offsetInCU: 0x1220B, offset: 0xE0C00, size: 0x8, addend: 0x0, symName: __ZN4absl12lts_2024011613cord_internal12CordRepBtree11AssertValidEPS2_b, symObjAddr: 0x28C8, symBinAddr: 0x1E1DC, symSize: 0x30 }
  - { offsetInCU: 0x12261, offset: 0xE0C56, size: 0x8, addend: 0x0, symName: __ZN4absl12lts_2024011613cord_internal12CordRepBtree11AssertValidEPKS2_b, symObjAddr: 0x28F8, symBinAddr: 0x1E20C, symSize: 0x30 }
  - { offsetInCU: 0x12273, offset: 0xE0C68, size: 0x8, addend: 0x0, symName: __ZN4absl12lts_2024011613cord_internal12CordRepBtree11AssertValidEPS2_b.cold.1, symObjAddr: 0x66A0, symBinAddr: 0x5F42C, symSize: 0x58 }
  - { offsetInCU: 0x1228B, offset: 0xE0C80, size: 0x8, addend: 0x0, symName: __ZN4absl12lts_2024011613cord_internal12CordRepBtree11AssertValidEPKS2_b, symObjAddr: 0x28F8, symBinAddr: 0x1E20C, symSize: 0x30 }
  - { offsetInCU: 0x122E1, offset: 0xE0CD6, size: 0x8, addend: 0x0, symName: __ZN4absl12lts_2024011613cord_internal12CordRepBtree10CopySuffixEm, symObjAddr: 0x2928, symBinAddr: 0x1E23C, symSize: 0x368 }
  - { offsetInCU: 0x122F3, offset: 0xE0CE8, size: 0x8, addend: 0x0, symName: __ZN4absl12lts_2024011613cord_internal12CordRepBtree11AssertValidEPKS2_b.cold.1, symObjAddr: 0x66F8, symBinAddr: 0x5F484, symSize: 0x58 }
  - { offsetInCU: 0x123D5, offset: 0xE0DCA, size: 0x8, addend: 0x0, symName: __ZN4absl12lts_2024011613cord_internal12CordRepBtree10CopySuffixEm, symObjAddr: 0x2928, symBinAddr: 0x1E23C, symSize: 0x368 }
  - { offsetInCU: 0x130AE, offset: 0xE1AA3, size: 0x8, addend: 0x0, symName: __ZN4absl12lts_2024011613cord_internal12CordRepBtree10CopyPrefixEmb, symObjAddr: 0x2C90, symBinAddr: 0x1E5A4, symSize: 0x410 }
  - { offsetInCU: 0x130B9, offset: 0xE1AAE, size: 0x8, addend: 0x0, symName: __ZN4absl12lts_2024011613cord_internal12CordRepBtree10CopySuffixEm.cold.6, symObjAddr: 0x6814, symBinAddr: 0x5F5A0, symSize: 0x24 }
  - { offsetInCU: 0x130FD, offset: 0xE1AF2, size: 0x8, addend: 0x0, symName: __ZN4absl12lts_2024011613cord_internal12CordRepBtree10CopySuffixEm.cold.11, symObjAddr: 0x68CC, symBinAddr: 0x5F658, symSize: 0x24 }
  - { offsetInCU: 0x1312B, offset: 0xE1B20, size: 0x8, addend: 0x0, symName: __ZN4absl12lts_2024011613cord_internal12CordRepBtree10CopySuffixEm.cold.10, symObjAddr: 0x68A8, symBinAddr: 0x5F634, symSize: 0x24 }
  - { offsetInCU: 0x1316F, offset: 0xE1B64, size: 0x8, addend: 0x0, symName: __ZN4absl12lts_2024011613cord_internal12CordRepBtree10CopySuffixEm.cold.3, symObjAddr: 0x67A0, symBinAddr: 0x5F52C, symSize: 0x28 }
  - { offsetInCU: 0x13187, offset: 0xE1B7C, size: 0x8, addend: 0x0, symName: __ZN4absl12lts_2024011613cord_internal12CordRepBtree10CopySuffixEm.cold.4, symObjAddr: 0x67C8, symBinAddr: 0x5F554, symSize: 0x24 }
  - { offsetInCU: 0x131B5, offset: 0xE1BAA, size: 0x8, addend: 0x0, symName: __ZN4absl12lts_2024011613cord_internal12CordRepBtree10CopySuffixEm.cold.9, symObjAddr: 0x6884, symBinAddr: 0x5F610, symSize: 0x24 }
  - { offsetInCU: 0x131E3, offset: 0xE1BD8, size: 0x8, addend: 0x0, symName: __ZN4absl12lts_2024011613cord_internal12CordRepBtree10CopySuffixEm.cold.8, symObjAddr: 0x6860, symBinAddr: 0x5F5EC, symSize: 0x24 }
  - { offsetInCU: 0x13211, offset: 0xE1C06, size: 0x8, addend: 0x0, symName: __ZN4absl12lts_2024011613cord_internal12CordRepBtree10CopySuffixEm.cold.5, symObjAddr: 0x67EC, symBinAddr: 0x5F578, symSize: 0x28 }
  - { offsetInCU: 0x1323F, offset: 0xE1C34, size: 0x8, addend: 0x0, symName: __ZN4absl12lts_2024011613cord_internal12CordRepBtree10CopySuffixEm.cold.7, symObjAddr: 0x6838, symBinAddr: 0x5F5C4, symSize: 0x28 }
  - { offsetInCU: 0x1326D, offset: 0xE1C62, size: 0x8, addend: 0x0, symName: __ZN4absl12lts_2024011613cord_internal12CordRepBtree10CopySuffixEm.cold.12, symObjAddr: 0x68F0, symBinAddr: 0x5F67C, symSize: 0x28 }
  - { offsetInCU: 0x13285, offset: 0xE1C7A, size: 0x8, addend: 0x0, symName: __ZN4absl12lts_2024011613cord_internal12CordRepBtree10CopySuffixEm.cold.1, symObjAddr: 0x6750, symBinAddr: 0x5F4DC, symSize: 0x28 }
  - { offsetInCU: 0x132B3, offset: 0xE1CA8, size: 0x8, addend: 0x0, symName: __ZN4absl12lts_2024011613cord_internal12CordRepBtree10CopySuffixEm.cold.2, symObjAddr: 0x6778, symBinAddr: 0x5F504, symSize: 0x28 }
  - { offsetInCU: 0x1337B, offset: 0xE1D70, size: 0x8, addend: 0x0, symName: __ZN4absl12lts_2024011613cord_internal12CordRepBtree10CopyPrefixEmb, symObjAddr: 0x2C90, symBinAddr: 0x1E5A4, symSize: 0x410 }
  - { offsetInCU: 0x14083, offset: 0xE2A78, size: 0x8, addend: 0x0, symName: __ZN4absl12lts_2024011613cord_internal12CordRepBtree12ExtractFrontEPS2_, symObjAddr: 0x30A0, symBinAddr: 0x1E9B4, symSize: 0x134 }
  - { offsetInCU: 0x1408E, offset: 0xE2A83, size: 0x8, addend: 0x0, symName: __ZN4absl12lts_2024011613cord_internal12CordRepBtree10CopyPrefixEmb.cold.5, symObjAddr: 0x69B0, symBinAddr: 0x5F73C, symSize: 0x24 }
  - { offsetInCU: 0x140BC, offset: 0xE2AB1, size: 0x8, addend: 0x0, symName: __ZN4absl12lts_2024011613cord_internal12CordRepBtree10CopyPrefixEmb.cold.11, symObjAddr: 0x6A88, symBinAddr: 0x5F814, symSize: 0x24 }
  - { offsetInCU: 0x14100, offset: 0xE2AF5, size: 0x8, addend: 0x0, symName: __ZN4absl12lts_2024011613cord_internal12CordRepBtree10CopyPrefixEmb.cold.15, symObjAddr: 0x6B18, symBinAddr: 0x5F8A4, symSize: 0x24 }
  - { offsetInCU: 0x14144, offset: 0xE2B39, size: 0x8, addend: 0x0, symName: __ZN4absl12lts_2024011613cord_internal12CordRepBtree10CopyPrefixEmb.cold.6, symObjAddr: 0x69D4, symBinAddr: 0x5F760, symSize: 0x24 }
  - { offsetInCU: 0x14172, offset: 0xE2B67, size: 0x8, addend: 0x0, symName: __ZN4absl12lts_2024011613cord_internal12CordRepBtree10CopyPrefixEmb.cold.14, symObjAddr: 0x6AF4, symBinAddr: 0x5F880, symSize: 0x24 }
  - { offsetInCU: 0x141A0, offset: 0xE2B95, size: 0x8, addend: 0x0, symName: __ZN4absl12lts_2024011613cord_internal12CordRepBtree10CopyPrefixEmb.cold.13, symObjAddr: 0x6AD0, symBinAddr: 0x5F85C, symSize: 0x24 }
  - { offsetInCU: 0x141CE, offset: 0xE2BC3, size: 0x8, addend: 0x0, symName: __ZN4absl12lts_2024011613cord_internal12CordRepBtree10CopyPrefixEmb.cold.12, symObjAddr: 0x6AAC, symBinAddr: 0x5F838, symSize: 0x24 }
  - { offsetInCU: 0x141FC, offset: 0xE2BF1, size: 0x8, addend: 0x0, symName: __ZN4absl12lts_2024011613cord_internal12CordRepBtree10CopyPrefixEmb.cold.9, symObjAddr: 0x6A40, symBinAddr: 0x5F7CC, symSize: 0x24 }
  - { offsetInCU: 0x1422A, offset: 0xE2C1F, size: 0x8, addend: 0x0, symName: __ZN4absl12lts_2024011613cord_internal12CordRepBtree10CopyPrefixEmb.cold.10, symObjAddr: 0x6A64, symBinAddr: 0x5F7F0, symSize: 0x24 }
  - { offsetInCU: 0x14258, offset: 0xE2C4D, size: 0x8, addend: 0x0, symName: __ZN4absl12lts_2024011613cord_internal12CordRepBtree10CopyPrefixEmb.cold.17, symObjAddr: 0x6B60, symBinAddr: 0x5F8EC, symSize: 0x24 }
  - { offsetInCU: 0x14286, offset: 0xE2C7B, size: 0x8, addend: 0x0, symName: __ZN4absl12lts_2024011613cord_internal12CordRepBtree10CopyPrefixEmb.cold.1, symObjAddr: 0x6918, symBinAddr: 0x5F6A4, symSize: 0x28 }
  - { offsetInCU: 0x1429E, offset: 0xE2C93, size: 0x8, addend: 0x0, symName: __ZN4absl12lts_2024011613cord_internal12CordRepBtree10CopyPrefixEmb.cold.2, symObjAddr: 0x6940, symBinAddr: 0x5F6CC, symSize: 0x28 }
  - { offsetInCU: 0x142B6, offset: 0xE2CAB, size: 0x8, addend: 0x0, symName: __ZN4absl12lts_2024011613cord_internal12CordRepBtree10CopyPrefixEmb.cold.16, symObjAddr: 0x6B3C, symBinAddr: 0x5F8C8, symSize: 0x24 }
  - { offsetInCU: 0x142E4, offset: 0xE2CD9, size: 0x8, addend: 0x0, symName: __ZN4absl12lts_2024011613cord_internal12CordRepBtree10CopyPrefixEmb.cold.3, symObjAddr: 0x6968, symBinAddr: 0x5F6F4, symSize: 0x24 }
  - { offsetInCU: 0x14312, offset: 0xE2D07, size: 0x8, addend: 0x0, symName: __ZN4absl12lts_2024011613cord_internal12CordRepBtree10CopyPrefixEmb.cold.4, symObjAddr: 0x698C, symBinAddr: 0x5F718, symSize: 0x24 }
  - { offsetInCU: 0x14340, offset: 0xE2D35, size: 0x8, addend: 0x0, symName: __ZN4absl12lts_2024011613cord_internal12CordRepBtree10CopyPrefixEmb.cold.7, symObjAddr: 0x69F8, symBinAddr: 0x5F784, symSize: 0x24 }
  - { offsetInCU: 0x1436E, offset: 0xE2D63, size: 0x8, addend: 0x0, symName: __ZN4absl12lts_2024011613cord_internal12CordRepBtree10CopyPrefixEmb.cold.8, symObjAddr: 0x6A1C, symBinAddr: 0x5F7A8, symSize: 0x24 }
  - { offsetInCU: 0x1444D, offset: 0xE2E42, size: 0x8, addend: 0x0, symName: __ZN4absl12lts_2024011613cord_internal12CordRepBtree12ExtractFrontEPS2_, symObjAddr: 0x30A0, symBinAddr: 0x1E9B4, symSize: 0x134 }
  - { offsetInCU: 0x147B5, offset: 0xE31AA, size: 0x8, addend: 0x0, symName: __ZN4absl12lts_2024011613cord_internal12CordRepBtree12ExtractFrontEPS2_.cold.1, symObjAddr: 0x6B84, symBinAddr: 0x5F910, symSize: 0x24 }
  - { offsetInCU: 0x147F9, offset: 0xE31EE, size: 0x8, addend: 0x0, symName: __ZN4absl12lts_2024011613cord_internal12CordRepBtree12ExtractFrontEPS2_.cold.5, symObjAddr: 0x6C14, symBinAddr: 0x5F9A0, symSize: 0x24 }
  - { offsetInCU: 0x14827, offset: 0xE321C, size: 0x8, addend: 0x0, symName: __ZN4absl12lts_2024011613cord_internal12CordRepBtree12ExtractFrontEPS2_.cold.2, symObjAddr: 0x6BA8, symBinAddr: 0x5F934, symSize: 0x24 }
  - { offsetInCU: 0x14855, offset: 0xE324A, size: 0x8, addend: 0x0, symName: __ZN4absl12lts_2024011613cord_internal12CordRepBtree12ExtractFrontEPS2_.cold.3, symObjAddr: 0x6BCC, symBinAddr: 0x5F958, symSize: 0x24 }
  - { offsetInCU: 0x14883, offset: 0xE3278, size: 0x8, addend: 0x0, symName: __ZN4absl12lts_2024011613cord_internal12CordRepBtree12ExtractFrontEPS2_.cold.4, symObjAddr: 0x6BF0, symBinAddr: 0x5F97C, symSize: 0x24 }
  - { offsetInCU: 0x14958, offset: 0xE334D, size: 0x8, addend: 0x0, symName: __ZN4absl12lts_2024011613cord_internal12CordRepBtree14ConsumeBeginToEPS2_mm, symObjAddr: 0x3224, symBinAddr: 0x1EAE8, symSize: 0x1CC }
  - { offsetInCU: 0x14F8D, offset: 0xE3982, size: 0x8, addend: 0x0, symName: __ZN4absl12lts_2024011613cord_internal12CordRepBtree12RemoveSuffixEPS2_m, symObjAddr: 0x33F0, symBinAddr: 0x1ECB4, symSize: 0x2E4 }
  - { offsetInCU: 0x14F98, offset: 0xE398D, size: 0x8, addend: 0x0, symName: __ZN4absl12lts_2024011613cord_internal12CordRepBtree14ConsumeBeginToEPS2_mm.cold.8, symObjAddr: 0x6D84, symBinAddr: 0x5FAC8, symSize: 0x24 }
  - { offsetInCU: 0x14FDC, offset: 0xE39D1, size: 0x8, addend: 0x0, symName: __ZN4absl12lts_2024011613cord_internal12CordRepBtree14ConsumeBeginToEPS2_mm.cold.4, symObjAddr: 0x6CF4, symBinAddr: 0x5FA38, symSize: 0x24 }
  - { offsetInCU: 0x15020, offset: 0xE3A15, size: 0x8, addend: 0x0, symName: __ZN4absl12lts_2024011613cord_internal12CordRepBtree14ConsumeBeginToEPS2_mm.cold.1, symObjAddr: 0x6C80, symBinAddr: 0x5F9C4, symSize: 0x28 }
  - { offsetInCU: 0x15038, offset: 0xE3A2D, size: 0x8, addend: 0x0, symName: __ZN4absl12lts_2024011613cord_internal12CordRepBtree14ConsumeBeginToEPS2_mm.cold.2, symObjAddr: 0x6CA8, symBinAddr: 0x5F9EC, symSize: 0x24 }
  - { offsetInCU: 0x15066, offset: 0xE3A5B, size: 0x8, addend: 0x0, symName: __ZN4absl12lts_2024011613cord_internal12CordRepBtree14ConsumeBeginToEPS2_mm.cold.3, symObjAddr: 0x6CCC, symBinAddr: 0x5FA10, symSize: 0x28 }
  - { offsetInCU: 0x15094, offset: 0xE3A89, size: 0x8, addend: 0x0, symName: __ZN4absl12lts_2024011613cord_internal12CordRepBtree14ConsumeBeginToEPS2_mm.cold.5, symObjAddr: 0x6D18, symBinAddr: 0x5FA5C, symSize: 0x24 }
  - { offsetInCU: 0x150C2, offset: 0xE3AB7, size: 0x8, addend: 0x0, symName: __ZN4absl12lts_2024011613cord_internal12CordRepBtree14ConsumeBeginToEPS2_mm.cold.6, symObjAddr: 0x6D3C, symBinAddr: 0x5FA80, symSize: 0x24 }
  - { offsetInCU: 0x150F0, offset: 0xE3AE5, size: 0x8, addend: 0x0, symName: __ZN4absl12lts_2024011613cord_internal12CordRepBtree14ConsumeBeginToEPS2_mm.cold.7, symObjAddr: 0x6D60, symBinAddr: 0x5FAA4, symSize: 0x24 }
  - { offsetInCU: 0x15134, offset: 0xE3B29, size: 0x8, addend: 0x0, symName: __ZN4absl12lts_2024011613cord_internal12CordRepBtree14ConsumeBeginToEPS2_mm.cold.9, symObjAddr: 0x6DA8, symBinAddr: 0x5FAEC, symSize: 0x24 }
  - { offsetInCU: 0x1519E, offset: 0xE3B93, size: 0x8, addend: 0x0, symName: __ZN4absl12lts_2024011613cord_internal12CordRepBtree12RemoveSuffixEPS2_m, symObjAddr: 0x33F0, symBinAddr: 0x1ECB4, symSize: 0x2E4 }
  - { offsetInCU: 0x15849, offset: 0xE423E, size: 0x8, addend: 0x0, symName: __ZN4absl12lts_2024011613cord_internal12CordRepBtree12RemoveSuffixEPS2_m.cold.14, symObjAddr: 0x6FAC, symBinAddr: 0x5FCF0, symSize: 0x24 }
  - { offsetInCU: 0x15877, offset: 0xE426C, size: 0x8, addend: 0x0, symName: __ZN4absl12lts_2024011613cord_internal12CordRepBtree12RemoveSuffixEPS2_m.cold.4, symObjAddr: 0x6E40, symBinAddr: 0x5FB84, symSize: 0x24 }
  - { offsetInCU: 0x158A5, offset: 0xE429A, size: 0x8, addend: 0x0, symName: __ZN4absl12lts_2024011613cord_internal12CordRepBtree12RemoveSuffixEPS2_m.cold.12, symObjAddr: 0x6F60, symBinAddr: 0x5FCA4, symSize: 0x28 }
  - { offsetInCU: 0x158BD, offset: 0xE42B2, size: 0x8, addend: 0x0, symName: __ZN4absl12lts_2024011613cord_internal12CordRepBtree12RemoveSuffixEPS2_m.cold.9, symObjAddr: 0x6EF4, symBinAddr: 0x5FC38, symSize: 0x24 }
  - { offsetInCU: 0x158EB, offset: 0xE42E0, size: 0x8, addend: 0x0, symName: __ZN4absl12lts_2024011613cord_internal12CordRepBtree12RemoveSuffixEPS2_m.cold.6, symObjAddr: 0x6E88, symBinAddr: 0x5FBCC, symSize: 0x24 }
  - { offsetInCU: 0x15919, offset: 0xE430E, size: 0x8, addend: 0x0, symName: __ZN4absl12lts_2024011613cord_internal12CordRepBtree12RemoveSuffixEPS2_m.cold.7, symObjAddr: 0x6EAC, symBinAddr: 0x5FBF0, symSize: 0x24 }
  - { offsetInCU: 0x15947, offset: 0xE433C, size: 0x8, addend: 0x0, symName: __ZN4absl12lts_2024011613cord_internal12CordRepBtree12RemoveSuffixEPS2_m.cold.8, symObjAddr: 0x6ED0, symBinAddr: 0x5FC14, symSize: 0x24 }
  - { offsetInCU: 0x15975, offset: 0xE436A, size: 0x8, addend: 0x0, symName: __ZN4absl12lts_2024011613cord_internal12CordRepBtree12RemoveSuffixEPS2_m.cold.1, symObjAddr: 0x6DCC, symBinAddr: 0x5FB10, symSize: 0x28 }
  - { offsetInCU: 0x1598D, offset: 0xE4382, size: 0x8, addend: 0x0, symName: __ZN4absl12lts_2024011613cord_internal12CordRepBtree12RemoveSuffixEPS2_m.cold.2, symObjAddr: 0x6DF4, symBinAddr: 0x5FB38, symSize: 0x28 }
  - { offsetInCU: 0x159A5, offset: 0xE439A, size: 0x8, addend: 0x0, symName: __ZN4absl12lts_2024011613cord_internal12CordRepBtree12RemoveSuffixEPS2_m.cold.3, symObjAddr: 0x6E1C, symBinAddr: 0x5FB60, symSize: 0x24 }
  - { offsetInCU: 0x159D3, offset: 0xE43C8, size: 0x8, addend: 0x0, symName: __ZN4absl12lts_2024011613cord_internal12CordRepBtree12RemoveSuffixEPS2_m.cold.5, symObjAddr: 0x6E64, symBinAddr: 0x5FBA8, symSize: 0x24 }
  - { offsetInCU: 0x15A01, offset: 0xE43F6, size: 0x8, addend: 0x0, symName: __ZN4absl12lts_2024011613cord_internal12CordRepBtree12RemoveSuffixEPS2_m.cold.13, symObjAddr: 0x6F88, symBinAddr: 0x5FCCC, symSize: 0x24 }
  - { offsetInCU: 0x15A2F, offset: 0xE4424, size: 0x8, addend: 0x0, symName: __ZN4absl12lts_2024011613cord_internal12CordRepBtree12RemoveSuffixEPS2_m.cold.11, symObjAddr: 0x6F3C, symBinAddr: 0x5FC80, symSize: 0x24 }
  - { offsetInCU: 0x15A5D, offset: 0xE4452, size: 0x8, addend: 0x0, symName: __ZN4absl12lts_2024011613cord_internal12CordRepBtree12RemoveSuffixEPS2_m.cold.10, symObjAddr: 0x6F18, symBinAddr: 0x5FC5C, symSize: 0x24 }
  - { offsetInCU: 0x15AA1, offset: 0xE4496, size: 0x8, addend: 0x0, symName: __ZN4absl12lts_2024011613cord_internal12_GLOBAL__N_110ResizeEdgeEPNS1_7CordRepEmb.cold.1, symObjAddr: 0x6FD0, symBinAddr: 0x5FD14, symSize: 0x28 }
  - { offsetInCU: 0x15AB9, offset: 0xE44AE, size: 0x8, addend: 0x0, symName: __ZN4absl12lts_2024011613cord_internal12_GLOBAL__N_110ResizeEdgeEPNS1_7CordRepEmb.cold.2, symObjAddr: 0x6FF8, symBinAddr: 0x5FD3C, symSize: 0x28 }
  - { offsetInCU: 0x15AD1, offset: 0xE44C6, size: 0x8, addend: 0x0, symName: __ZN4absl12lts_2024011613cord_internal12_GLOBAL__N_110ResizeEdgeEPNS1_7CordRepEmb.cold.3, symObjAddr: 0x7020, symBinAddr: 0x5FD64, symSize: 0x28 }
  - { offsetInCU: 0x15B25, offset: 0xE451A, size: 0x8, addend: 0x0, symName: __ZN4absl12lts_2024011613cord_internal12CordRepBtree7SubTreeEmm, symObjAddr: 0x3758, symBinAddr: 0x1F01C, symSize: 0x48C }
  - { offsetInCU: 0x16936, offset: 0xE532B, size: 0x8, addend: 0x0, symName: __ZN4absl12lts_2024011613cord_internal12CordRepBtree7SubTreeEmm.cold.6, symObjAddr: 0x7108, symBinAddr: 0x5FE4C, symSize: 0x24 }
  - { offsetInCU: 0x16964, offset: 0xE5359, size: 0x8, addend: 0x0, symName: __ZN4absl12lts_2024011613cord_internal12CordRepBtree7SubTreeEmm.cold.12, symObjAddr: 0x71E4, symBinAddr: 0x5FF28, symSize: 0x24 }
  - { offsetInCU: 0x16992, offset: 0xE5387, size: 0x8, addend: 0x0, symName: __ZN4absl12lts_2024011613cord_internal12CordRepBtree7SubTreeEmm.cold.11, symObjAddr: 0x71C0, symBinAddr: 0x5FF04, symSize: 0x24 }
  - { offsetInCU: 0x169C0, offset: 0xE53B5, size: 0x8, addend: 0x0, symName: __ZN4absl12lts_2024011613cord_internal12CordRepBtree7SubTreeEmm.cold.1, symObjAddr: 0x7048, symBinAddr: 0x5FD8C, symSize: 0x28 }
  - { offsetInCU: 0x169D8, offset: 0xE53CD, size: 0x8, addend: 0x0, symName: __ZN4absl12lts_2024011613cord_internal12CordRepBtree7SubTreeEmm.cold.2, symObjAddr: 0x7070, symBinAddr: 0x5FDB4, symSize: 0x28 }
  - { offsetInCU: 0x169F0, offset: 0xE53E5, size: 0x8, addend: 0x0, symName: __ZN4absl12lts_2024011613cord_internal12CordRepBtree7SubTreeEmm.cold.13, symObjAddr: 0x7208, symBinAddr: 0x5FF4C, symSize: 0x24 }
  - { offsetInCU: 0x16A1E, offset: 0xE5413, size: 0x8, addend: 0x0, symName: __ZN4absl12lts_2024011613cord_internal12CordRepBtree7SubTreeEmm.cold.10, symObjAddr: 0x7198, symBinAddr: 0x5FEDC, symSize: 0x28 }
  - { offsetInCU: 0x16A36, offset: 0xE542B, size: 0x8, addend: 0x0, symName: __ZN4absl12lts_2024011613cord_internal12CordRepBtree7SubTreeEmm.cold.3, symObjAddr: 0x7098, symBinAddr: 0x5FDDC, symSize: 0x24 }
  - { offsetInCU: 0x16A64, offset: 0xE5459, size: 0x8, addend: 0x0, symName: __ZN4absl12lts_2024011613cord_internal12CordRepBtree7SubTreeEmm.cold.4, symObjAddr: 0x70BC, symBinAddr: 0x5FE00, symSize: 0x28 }
  - { offsetInCU: 0x16A92, offset: 0xE5487, size: 0x8, addend: 0x0, symName: __ZN4absl12lts_2024011613cord_internal12CordRepBtree7SubTreeEmm.cold.5, symObjAddr: 0x70E4, symBinAddr: 0x5FE28, symSize: 0x24 }
  - { offsetInCU: 0x16AC0, offset: 0xE54B5, size: 0x8, addend: 0x0, symName: __ZN4absl12lts_2024011613cord_internal12CordRepBtree7SubTreeEmm.cold.8, symObjAddr: 0x7150, symBinAddr: 0x5FE94, symSize: 0x24 }
  - { offsetInCU: 0x16AEE, offset: 0xE54E3, size: 0x8, addend: 0x0, symName: __ZN4absl12lts_2024011613cord_internal12CordRepBtree7SubTreeEmm.cold.7, symObjAddr: 0x712C, symBinAddr: 0x5FE70, symSize: 0x24 }
  - { offsetInCU: 0x16B1C, offset: 0xE5511, size: 0x8, addend: 0x0, symName: __ZN4absl12lts_2024011613cord_internal12CordRepBtree7SubTreeEmm.cold.9, symObjAddr: 0x7174, symBinAddr: 0x5FEB8, symSize: 0x24 }
  - { offsetInCU: 0x16B75, offset: 0xE556A, size: 0x8, addend: 0x0, symName: __ZN4absl12lts_2024011613cord_internal12CordRepBtree10MergeTreesEPS2_S3_, symObjAddr: 0x3BE4, symBinAddr: 0x1F4A8, symSize: 0x28 }
  - { offsetInCU: 0x16C01, offset: 0xE55F6, size: 0x8, addend: 0x0, symName: __ZN4absl12lts_2024011613cord_internal12CordRepBtree5MergeILNS2_8EdgeTypeE0EEEPS2_S5_S5_, symObjAddr: 0x4014, symBinAddr: 0x1F8D8, symSize: 0x418 }
  - { offsetInCU: 0x17786, offset: 0xE617B, size: 0x8, addend: 0x0, symName: __ZN4absl12lts_2024011613cord_internal12CordRepBtree5MergeILNS2_8EdgeTypeE1EEEPS2_S5_S5_, symObjAddr: 0x3C0C, symBinAddr: 0x1F4D0, symSize: 0x408 }
  - { offsetInCU: 0x182D5, offset: 0xE6CCA, size: 0x8, addend: 0x0, symName: __ZN4absl12lts_2024011613cord_internal12CordRepBtree5MergeILNS2_8EdgeTypeE0EEEPS2_S5_S5_, symObjAddr: 0x4014, symBinAddr: 0x1F8D8, symSize: 0x418 }
  - { offsetInCU: 0x18350, offset: 0xE6D45, size: 0x8, addend: 0x0, symName: __ZN4absl12lts_2024011613cord_internal12CordRepBtree5MergeILNS2_8EdgeTypeE1EEEPS2_S5_S5_.cold.7, symObjAddr: 0x730C, symBinAddr: 0x60050, symSize: 0x24 }
  - { offsetInCU: 0x18393, offset: 0xE6D88, size: 0x8, addend: 0x0, symName: __ZN4absl12lts_2024011613cord_internal12CordRepBtree5MergeILNS2_8EdgeTypeE1EEEPS2_S5_S5_.cold.6, symObjAddr: 0x72E8, symBinAddr: 0x6002C, symSize: 0x24 }
  - { offsetInCU: 0x183D6, offset: 0xE6DCB, size: 0x8, addend: 0x0, symName: __ZN4absl12lts_2024011613cord_internal12CordRepBtree5MergeILNS2_8EdgeTypeE1EEEPS2_S5_S5_.cold.5, symObjAddr: 0x72C4, symBinAddr: 0x60008, symSize: 0x24 }
  - { offsetInCU: 0x18430, offset: 0xE6E25, size: 0x8, addend: 0x0, symName: __ZN4absl12lts_2024011613cord_internal12CordRepBtree5MergeILNS2_8EdgeTypeE1EEEPS2_S5_S5_.cold.3, symObjAddr: 0x7278, symBinAddr: 0x5FFBC, symSize: 0x24 }
  - { offsetInCU: 0x1845E, offset: 0xE6E53, size: 0x8, addend: 0x0, symName: __ZN4absl12lts_2024011613cord_internal12CordRepBtree5MergeILNS2_8EdgeTypeE1EEEPS2_S5_S5_.cold.1, symObjAddr: 0x722C, symBinAddr: 0x5FF70, symSize: 0x28 }
  - { offsetInCU: 0x18476, offset: 0xE6E6B, size: 0x8, addend: 0x0, symName: __ZN4absl12lts_2024011613cord_internal12CordRepBtree5MergeILNS2_8EdgeTypeE1EEEPS2_S5_S5_.cold.2, symObjAddr: 0x7254, symBinAddr: 0x5FF98, symSize: 0x24 }
  - { offsetInCU: 0x184BA, offset: 0xE6EAF, size: 0x8, addend: 0x0, symName: __ZN4absl12lts_2024011613cord_internal12CordRepBtree5MergeILNS2_8EdgeTypeE1EEEPS2_S5_S5_.cold.4, symObjAddr: 0x729C, symBinAddr: 0x5FFE0, symSize: 0x28 }
  - { offsetInCU: 0x18564, offset: 0xE6F59, size: 0x8, addend: 0x0, symName: __ZN4absl12lts_2024011613cord_internal12CordRepBtree5MergeILNS2_8EdgeTypeE0EEEPS2_S5_S5_.cold.6, symObjAddr: 0x73E8, symBinAddr: 0x6012C, symSize: 0x24 }
  - { offsetInCU: 0x185A7, offset: 0xE6F9C, size: 0x8, addend: 0x0, symName: __ZN4absl12lts_2024011613cord_internal12CordRepBtree5MergeILNS2_8EdgeTypeE0EEEPS2_S5_S5_.cold.5, symObjAddr: 0x73C4, symBinAddr: 0x60108, symSize: 0x24 }
  - { offsetInCU: 0x185EA, offset: 0xE6FDF, size: 0x8, addend: 0x0, symName: __ZN4absl12lts_2024011613cord_internal12CordRepBtree5MergeILNS2_8EdgeTypeE0EEEPS2_S5_S5_.cold.4, symObjAddr: 0x73A0, symBinAddr: 0x600E4, symSize: 0x24 }
  - { offsetInCU: 0x18644, offset: 0xE7039, size: 0x8, addend: 0x0, symName: __ZN4absl12lts_2024011613cord_internal12CordRepBtree5MergeILNS2_8EdgeTypeE0EEEPS2_S5_S5_.cold.3, symObjAddr: 0x737C, symBinAddr: 0x600C0, symSize: 0x24 }
  - { offsetInCU: 0x18672, offset: 0xE7067, size: 0x8, addend: 0x0, symName: __ZN4absl12lts_2024011613cord_internal12CordRepBtree5MergeILNS2_8EdgeTypeE0EEEPS2_S5_S5_.cold.1, symObjAddr: 0x7330, symBinAddr: 0x60074, symSize: 0x28 }
  - { offsetInCU: 0x1868A, offset: 0xE707F, size: 0x8, addend: 0x0, symName: __ZN4absl12lts_2024011613cord_internal12CordRepBtree5MergeILNS2_8EdgeTypeE0EEEPS2_S5_S5_.cold.2, symObjAddr: 0x7358, symBinAddr: 0x6009C, symSize: 0x24 }
  - { offsetInCU: 0x186F2, offset: 0xE70E7, size: 0x8, addend: 0x0, symName: __ZNK4absl12lts_2024011613cord_internal12CordRepBtree6IsFlatEPNS0_11string_viewE, symObjAddr: 0x442C, symBinAddr: 0x1FCF0, symSize: 0x64 }
  - { offsetInCU: 0x187EF, offset: 0xE71E4, size: 0x8, addend: 0x0, symName: __ZNK4absl12lts_2024011613cord_internal12CordRepBtree6IsFlatEmmPNS0_11string_viewE, symObjAddr: 0x4490, symBinAddr: 0x1FD54, symSize: 0x170 }
  - { offsetInCU: 0x187FA, offset: 0xE71EF, size: 0x8, addend: 0x0, symName: __ZNK4absl12lts_2024011613cord_internal12CordRepBtree6IsFlatEPNS0_11string_viewE.cold.1, symObjAddr: 0x740C, symBinAddr: 0x60150, symSize: 0x24 }
  - { offsetInCU: 0x188F5, offset: 0xE72EA, size: 0x8, addend: 0x0, symName: __ZNK4absl12lts_2024011613cord_internal12CordRepBtree6IsFlatEmmPNS0_11string_viewE, symObjAddr: 0x4490, symBinAddr: 0x1FD54, symSize: 0x170 }
  - { offsetInCU: 0x18BE9, offset: 0xE75DE, size: 0x8, addend: 0x0, symName: __ZNK4absl12lts_2024011613cord_internal12CordRepBtree6IsFlatEmmPNS0_11string_viewE.cold.7, symObjAddr: 0x7518, symBinAddr: 0x6025C, symSize: 0x24 }
  - { offsetInCU: 0x18C17, offset: 0xE760C, size: 0x8, addend: 0x0, symName: __ZNK4absl12lts_2024011613cord_internal12CordRepBtree6IsFlatEmmPNS0_11string_viewE.cold.10, symObjAddr: 0x7584, symBinAddr: 0x602C8, symSize: 0x24 }
  - { offsetInCU: 0x18C45, offset: 0xE763A, size: 0x8, addend: 0x0, symName: __ZNK4absl12lts_2024011613cord_internal12CordRepBtree6IsFlatEmmPNS0_11string_viewE.cold.8, symObjAddr: 0x753C, symBinAddr: 0x60280, symSize: 0x24 }
  - { offsetInCU: 0x18C73, offset: 0xE7668, size: 0x8, addend: 0x0, symName: __ZNK4absl12lts_2024011613cord_internal12CordRepBtree6IsFlatEmmPNS0_11string_viewE.cold.9, symObjAddr: 0x7560, symBinAddr: 0x602A4, symSize: 0x24 }
  - { offsetInCU: 0x18CA1, offset: 0xE7696, size: 0x8, addend: 0x0, symName: __ZNK4absl12lts_2024011613cord_internal12CordRepBtree6IsFlatEmmPNS0_11string_viewE.cold.1, symObjAddr: 0x7430, symBinAddr: 0x60174, symSize: 0x28 }
  - { offsetInCU: 0x18CB9, offset: 0xE76AE, size: 0x8, addend: 0x0, symName: __ZNK4absl12lts_2024011613cord_internal12CordRepBtree6IsFlatEmmPNS0_11string_viewE.cold.2, symObjAddr: 0x7458, symBinAddr: 0x6019C, symSize: 0x28 }
  - { offsetInCU: 0x18CD1, offset: 0xE76C6, size: 0x8, addend: 0x0, symName: __ZNK4absl12lts_2024011613cord_internal12CordRepBtree6IsFlatEmmPNS0_11string_viewE.cold.6, symObjAddr: 0x74F0, symBinAddr: 0x60234, symSize: 0x28 }
  - { offsetInCU: 0x18CFF, offset: 0xE76F4, size: 0x8, addend: 0x0, symName: __ZNK4absl12lts_2024011613cord_internal12CordRepBtree6IsFlatEmmPNS0_11string_viewE.cold.3, symObjAddr: 0x7480, symBinAddr: 0x601C4, symSize: 0x28 }
  - { offsetInCU: 0x18D42, offset: 0xE7737, size: 0x8, addend: 0x0, symName: __ZNK4absl12lts_2024011613cord_internal12CordRepBtree6IsFlatEmmPNS0_11string_viewE.cold.4, symObjAddr: 0x74A8, symBinAddr: 0x601EC, symSize: 0x24 }
  - { offsetInCU: 0x18DC5, offset: 0xE77BA, size: 0x8, addend: 0x0, symName: __ZNK4absl12lts_2024011613cord_internal12CordRepBtree6IsFlatEmmPNS0_11string_viewE.cold.5, symObjAddr: 0x74CC, symBinAddr: 0x60210, symSize: 0x24 }
  - { offsetInCU: 0x18F9E, offset: 0xE7993, size: 0x8, addend: 0x0, symName: __ZNK4absl12lts_2024011613cord_internal12CordRepBtree12GetCharacterEm, symObjAddr: 0x46D4, symBinAddr: 0x1FEC4, symSize: 0xF8 }
  - { offsetInCU: 0x19209, offset: 0xE7BFE, size: 0x8, addend: 0x0, symName: __ZN4absl12lts_2024011613cord_internal12CordRepBtree19GetAppendBufferSlowEm, symObjAddr: 0x47CC, symBinAddr: 0x1FFBC, symSize: 0x198 }
  - { offsetInCU: 0x19214, offset: 0xE7C09, size: 0x8, addend: 0x0, symName: __ZNK4absl12lts_2024011613cord_internal12CordRepBtree12GetCharacterEm.cold.6, symObjAddr: 0x7748, symBinAddr: 0x603A8, symSize: 0x24 }
  - { offsetInCU: 0x19242, offset: 0xE7C37, size: 0x8, addend: 0x0, symName: __ZNK4absl12lts_2024011613cord_internal12CordRepBtree12GetCharacterEm.cold.8, symObjAddr: 0x7790, symBinAddr: 0x603F0, symSize: 0x24 }
  - { offsetInCU: 0x19270, offset: 0xE7C65, size: 0x8, addend: 0x0, symName: __ZNK4absl12lts_2024011613cord_internal12CordRepBtree12GetCharacterEm.cold.5, symObjAddr: 0x7724, symBinAddr: 0x60384, symSize: 0x24 }
  - { offsetInCU: 0x1929E, offset: 0xE7C93, size: 0x8, addend: 0x0, symName: __ZNK4absl12lts_2024011613cord_internal12CordRepBtree12GetCharacterEm.cold.7, symObjAddr: 0x776C, symBinAddr: 0x603CC, symSize: 0x24 }
  - { offsetInCU: 0x192CC, offset: 0xE7CC1, size: 0x8, addend: 0x0, symName: __ZNK4absl12lts_2024011613cord_internal12CordRepBtree12GetCharacterEm.cold.9, symObjAddr: 0x77B4, symBinAddr: 0x60414, symSize: 0x28 }
  - { offsetInCU: 0x192E4, offset: 0xE7CD9, size: 0x8, addend: 0x0, symName: __ZNK4absl12lts_2024011613cord_internal12CordRepBtree12GetCharacterEm.cold.4, symObjAddr: 0x76FC, symBinAddr: 0x6035C, symSize: 0x28 }
  - { offsetInCU: 0x19312, offset: 0xE7D07, size: 0x8, addend: 0x0, symName: __ZNK4absl12lts_2024011613cord_internal12CordRepBtree12GetCharacterEm.cold.1, symObjAddr: 0x768C, symBinAddr: 0x602EC, symSize: 0x24 }
  - { offsetInCU: 0x19356, offset: 0xE7D4B, size: 0x8, addend: 0x0, symName: __ZNK4absl12lts_2024011613cord_internal12CordRepBtree12GetCharacterEm.cold.3, symObjAddr: 0x76D8, symBinAddr: 0x60338, symSize: 0x24 }
  - { offsetInCU: 0x1939A, offset: 0xE7D8F, size: 0x8, addend: 0x0, symName: __ZNK4absl12lts_2024011613cord_internal12CordRepBtree12GetCharacterEm.cold.2, symObjAddr: 0x76B0, symBinAddr: 0x60310, symSize: 0x28 }
  - { offsetInCU: 0x193DE, offset: 0xE7DD3, size: 0x8, addend: 0x0, symName: __ZN4absl12lts_2024011613cord_internal12CordRepBtree19GetAppendBufferSlowEm, symObjAddr: 0x47CC, symBinAddr: 0x1FFBC, symSize: 0x198 }
  - { offsetInCU: 0x1977D, offset: 0xE8172, size: 0x8, addend: 0x0, symName: __ZN4absl12lts_2024011613cord_internal12CordRepBtree19GetAppendBufferSlowEm.cold.3, symObjAddr: 0x7828, symBinAddr: 0x60488, symSize: 0x24 }
  - { offsetInCU: 0x197AB, offset: 0xE81A0, size: 0x8, addend: 0x0, symName: __ZN4absl12lts_2024011613cord_internal12CordRepBtree19GetAppendBufferSlowEm.cold.1, symObjAddr: 0x77DC, symBinAddr: 0x6043C, symSize: 0x28 }
  - { offsetInCU: 0x197C3, offset: 0xE81B8, size: 0x8, addend: 0x0, symName: __ZN4absl12lts_2024011613cord_internal12CordRepBtree19GetAppendBufferSlowEm.cold.4, symObjAddr: 0x784C, symBinAddr: 0x604AC, symSize: 0x28 }
  - { offsetInCU: 0x197DB, offset: 0xE81D0, size: 0x8, addend: 0x0, symName: __ZN4absl12lts_2024011613cord_internal12CordRepBtree19GetAppendBufferSlowEm.cold.2, symObjAddr: 0x7804, symBinAddr: 0x60464, symSize: 0x24 }
  - { offsetInCU: 0x19852, offset: 0xE8247, size: 0x8, addend: 0x0, symName: __ZN4absl12lts_2024011613cord_internal12CordRepBtree6AppendEPS2_NS0_11string_viewEm, symObjAddr: 0x4A60, symBinAddr: 0x20250, symSize: 0x4 }
  - { offsetInCU: 0x19894, offset: 0xE8289, size: 0x8, addend: 0x0, symName: __ZN4absl12lts_2024011613cord_internal12CordRepBtree6AppendEPS2_NS0_11string_viewEm, symObjAddr: 0x4A60, symBinAddr: 0x20250, symSize: 0x4 }
  - { offsetInCU: 0x198BC, offset: 0xE82B1, size: 0x8, addend: 0x0, symName: __ZN4absl12lts_2024011613cord_internal12CordRepBtree7PrependEPS2_NS0_11string_viewEm, symObjAddr: 0x4A64, symBinAddr: 0x20254, symSize: 0x4 }
  - { offsetInCU: 0x198FE, offset: 0xE82F3, size: 0x8, addend: 0x0, symName: __ZN4absl12lts_2024011613cord_internal12CordRepBtree7PrependEPS2_NS0_11string_viewEm, symObjAddr: 0x4A64, symBinAddr: 0x20254, symSize: 0x4 }
  - { offsetInCU: 0x199A4, offset: 0xE8399, size: 0x8, addend: 0x0, symName: __ZN4absl12lts_2024011613cord_internal12CordRepBtree7RebuildEPPS2_S3_b, symObjAddr: 0x4A68, symBinAddr: 0x20258, symSize: 0x3FC }
  - { offsetInCU: 0x1A6F7, offset: 0xE90EC, size: 0x8, addend: 0x0, symName: __ZN4absl12lts_2024011613cord_internal12CordRepBtree7RebuildEPPS2_S3_b.cold.5, symObjAddr: 0x7904, symBinAddr: 0x60564, symSize: 0x24 }
  - { offsetInCU: 0x1A725, offset: 0xE911A, size: 0x8, addend: 0x0, symName: __ZN4absl12lts_2024011613cord_internal12CordRepBtree7RebuildEPPS2_S3_b.cold.4, symObjAddr: 0x78E0, symBinAddr: 0x60540, symSize: 0x24 }
  - { offsetInCU: 0x1A753, offset: 0xE9148, size: 0x8, addend: 0x0, symName: __ZN4absl12lts_2024011613cord_internal12CordRepBtree7RebuildEPPS2_S3_b.cold.3, symObjAddr: 0x78BC, symBinAddr: 0x6051C, symSize: 0x24 }
  - { offsetInCU: 0x1A781, offset: 0xE9176, size: 0x8, addend: 0x0, symName: __ZN4absl12lts_2024011613cord_internal12CordRepBtree7RebuildEPPS2_S3_b.cold.1, symObjAddr: 0x7874, symBinAddr: 0x604D4, symSize: 0x24 }
  - { offsetInCU: 0x1A7AF, offset: 0xE91A4, size: 0x8, addend: 0x0, symName: __ZN4absl12lts_2024011613cord_internal12CordRepBtree7RebuildEPPS2_S3_b.cold.2, symObjAddr: 0x7898, symBinAddr: 0x604F8, symSize: 0x24 }
  - { offsetInCU: 0x1A7F3, offset: 0xE91E8, size: 0x8, addend: 0x0, symName: __ZN4absl12lts_2024011613cord_internal12CordRepBtree7RebuildEPS2_, symObjAddr: 0x4E64, symBinAddr: 0x20654, symSize: 0xD0 }
  - { offsetInCU: 0x1AA81, offset: 0xE9476, size: 0x8, addend: 0x0, symName: __ZN4absl12lts_2024011613cord_internal12CordRepBtree7RebuildEPS2_.cold.1, symObjAddr: 0x7928, symBinAddr: 0x60588, symSize: 0x28 }
  - { offsetInCU: 0x1AAAF, offset: 0xE94A4, size: 0x8, addend: 0x0, symName: __ZN4absl12lts_2024011613cord_internal12CordRepBtree19ExtractAppendBufferEPS2_m, symObjAddr: 0x4F34, symBinAddr: 0x20724, symSize: 0x220 }
  - { offsetInCU: 0x1AEDB, offset: 0xE98D0, size: 0x8, addend: 0x0, symName: __ZN4absl12lts_2024011613cord_internal12CordRepBtree19ExtractAppendBufferEPS2_m.cold.3, symObjAddr: 0x7998, symBinAddr: 0x605F8, symSize: 0x24 }
  - { offsetInCU: 0x1AF09, offset: 0xE98FE, size: 0x8, addend: 0x0, symName: __ZN4absl12lts_2024011613cord_internal12CordRepBtree19ExtractAppendBufferEPS2_m.cold.2, symObjAddr: 0x7974, symBinAddr: 0x605D4, symSize: 0x24 }
  - { offsetInCU: 0x1AF37, offset: 0xE992C, size: 0x8, addend: 0x0, symName: __ZN4absl12lts_2024011613cord_internal12CordRepBtree19ExtractAppendBufferEPS2_m.cold.1, symObjAddr: 0x7950, symBinAddr: 0x605B0, symSize: 0x24 }
  - { offsetInCU: 0x1B4F1, offset: 0xE9EE6, size: 0x8, addend: 0x0, symName: __ZN4absl12lts_2024011613cord_internal12_GLOBAL__N_115CreateSubstringEPNS1_7CordRepEmm.cold.1, symObjAddr: 0x7A54, symBinAddr: 0x6061C, symSize: 0x28 }
  - { offsetInCU: 0x1B509, offset: 0xE9EFE, size: 0x8, addend: 0x0, symName: __ZN4absl12lts_2024011613cord_internal12_GLOBAL__N_115CreateSubstringEPNS1_7CordRepEmm.cold.2, symObjAddr: 0x7A7C, symBinAddr: 0x60644, symSize: 0x28 }
  - { offsetInCU: 0x1B521, offset: 0xE9F16, size: 0x8, addend: 0x0, symName: __ZN4absl12lts_2024011613cord_internal12_GLOBAL__N_115CreateSubstringEPNS1_7CordRepEmm.cold.3, symObjAddr: 0x7AA4, symBinAddr: 0x6066C, symSize: 0x28 }
  - { offsetInCU: 0x1B539, offset: 0xE9F2E, size: 0x8, addend: 0x0, symName: __ZN4absl12lts_2024011613cord_internal12_GLOBAL__N_115CreateSubstringEPNS1_7CordRepEmm.cold.4, symObjAddr: 0x7ACC, symBinAddr: 0x60694, symSize: 0x24 }
  - { offsetInCU: 0x1B566, offset: 0xE9F5B, size: 0x8, addend: 0x0, symName: __ZN4absl12lts_2024011613cord_internal12_GLOBAL__N_115CreateSubstringEPNS1_7CordRepEmm.cold.5, symObjAddr: 0x7AF0, symBinAddr: 0x606B8, symSize: 0x24 }
  - { offsetInCU: 0x1B5A9, offset: 0xE9F9E, size: 0x8, addend: 0x0, symName: __ZN4absl12lts_2024011613cord_internal12_GLOBAL__N_115CreateSubstringEPNS1_7CordRepEmm.cold.6, symObjAddr: 0x7B14, symBinAddr: 0x606DC, symSize: 0x28 }
  - { offsetInCU: 0x1B5C1, offset: 0xE9FB6, size: 0x8, addend: 0x0, symName: __ZN4absl12lts_2024011613cord_internal12_GLOBAL__N_115StackOperationsILNS1_12CordRepBtree8EdgeTypeE1EE8FinalizeEPS4_NS4_8OpResultE.cold.2, symObjAddr: 0x7B64, symBinAddr: 0x6072C, symSize: 0x54 }
  - { offsetInCU: 0x1B5D9, offset: 0xE9FCE, size: 0x8, addend: 0x0, symName: __ZN4absl12lts_2024011613cord_internal12_GLOBAL__N_115StackOperationsILNS1_12CordRepBtree8EdgeTypeE1EE8FinalizeEPS4_NS4_8OpResultE.cold.3, symObjAddr: 0x7BB8, symBinAddr: 0x60780, symSize: 0x24 }
  - { offsetInCU: 0x1B607, offset: 0xE9FFC, size: 0x8, addend: 0x0, symName: __ZN4absl12lts_2024011613cord_internal12_GLOBAL__N_115StackOperationsILNS1_12CordRepBtree8EdgeTypeE1EE8FinalizeEPS4_NS4_8OpResultE.cold.4, symObjAddr: 0x7BDC, symBinAddr: 0x607A4, symSize: 0x24 }
  - { offsetInCU: 0x1B635, offset: 0xEA02A, size: 0x8, addend: 0x0, symName: __ZN4absl12lts_2024011613cord_internal12_GLOBAL__N_115StackOperationsILNS1_12CordRepBtree8EdgeTypeE1EE8FinalizeEPS4_NS4_8OpResultE.cold.5, symObjAddr: 0x7C00, symBinAddr: 0x607C8, symSize: 0x24 }
  - { offsetInCU: 0x1B679, offset: 0xEA06E, size: 0x8, addend: 0x0, symName: __ZN4absl12lts_2024011613cord_internal12_GLOBAL__N_115StackOperationsILNS1_12CordRepBtree8EdgeTypeE1EE8FinalizeEPS4_NS4_8OpResultE.cold.1, symObjAddr: 0x7B3C, symBinAddr: 0x60704, symSize: 0x28 }
  - { offsetInCU: 0x1B691, offset: 0xEA086, size: 0x8, addend: 0x0, symName: __ZN4absl12lts_2024011613cord_internal12_GLOBAL__N_115StackOperationsILNS1_12CordRepBtree8EdgeTypeE0EE8FinalizeEPS4_NS4_8OpResultE.cold.2, symObjAddr: 0x7C4C, symBinAddr: 0x60814, symSize: 0x54 }
  - { offsetInCU: 0x1B6A9, offset: 0xEA09E, size: 0x8, addend: 0x0, symName: __ZN4absl12lts_2024011613cord_internal12_GLOBAL__N_115StackOperationsILNS1_12CordRepBtree8EdgeTypeE0EE8FinalizeEPS4_NS4_8OpResultE.cold.3, symObjAddr: 0x7CA0, symBinAddr: 0x60868, symSize: 0x24 }
  - { offsetInCU: 0x1B6D7, offset: 0xEA0CC, size: 0x8, addend: 0x0, symName: __ZN4absl12lts_2024011613cord_internal12_GLOBAL__N_115StackOperationsILNS1_12CordRepBtree8EdgeTypeE0EE8FinalizeEPS4_NS4_8OpResultE.cold.4, symObjAddr: 0x7CC4, symBinAddr: 0x6088C, symSize: 0x24 }
  - { offsetInCU: 0x1B705, offset: 0xEA0FA, size: 0x8, addend: 0x0, symName: __ZN4absl12lts_2024011613cord_internal12_GLOBAL__N_115StackOperationsILNS1_12CordRepBtree8EdgeTypeE0EE8FinalizeEPS4_NS4_8OpResultE.cold.5, symObjAddr: 0x7CE8, symBinAddr: 0x608B0, symSize: 0x24 }
  - { offsetInCU: 0x1B749, offset: 0xEA13E, size: 0x8, addend: 0x0, symName: __ZN4absl12lts_2024011613cord_internal12_GLOBAL__N_115StackOperationsILNS1_12CordRepBtree8EdgeTypeE0EE8FinalizeEPS4_NS4_8OpResultE.cold.1, symObjAddr: 0x7C24, symBinAddr: 0x607EC, symSize: 0x28 }
  - { offsetInCU: 0x1B808, offset: 0xEA1FD, size: 0x8, addend: 0x0, symName: '__ZN4absl12lts_2024011619functional_internal12InvokeObjectIZNS0_13cord_internal12CordRepBtree10CreateSlowEPNS3_7CordRepEE3$_0vJS6_mmEEET0_NS1_7VoidPtrEDpNS1_8ForwardTIT1_E4typeE.cold.1', symObjAddr: 0x7D0C, symBinAddr: 0x608D4, symSize: 0x24 }
  - { offsetInCU: 0x1B93B, offset: 0xEA330, size: 0x8, addend: 0x0, symName: '__ZN4absl12lts_2024011619functional_internal12InvokeObjectIZNS0_13cord_internal12CordRepBtree10AppendSlowEPS4_PNS3_7CordRepEE3$_1vJS7_mmEEET0_NS1_7VoidPtrEDpNS1_8ForwardTIT1_E4typeE.cold.1', symObjAddr: 0x7D30, symBinAddr: 0x608F8, symSize: 0x24 }
  - { offsetInCU: 0x1BA6E, offset: 0xEA463, size: 0x8, addend: 0x0, symName: '__ZN4absl12lts_2024011619functional_internal12InvokeObjectIZNS0_13cord_internal12CordRepBtree11PrependSlowEPS4_PNS3_7CordRepEE3$_2vJS7_mmEEET0_NS1_7VoidPtrEDpNS1_8ForwardTIT1_E4typeE.cold.1', symObjAddr: 0x7D54, symBinAddr: 0x6091C, symSize: 0x24 }
  - { offsetInCU: 0x1BB28, offset: 0xEA51D, size: 0x8, addend: 0x0, symName: __ZN4absl12lts_2024011613cord_internal12CordRepBtree7SetEdgeILNS2_8EdgeTypeE0EEENS2_8OpResultEbPNS1_7CordRepEm.cold.3, symObjAddr: 0x7DC0, symBinAddr: 0x60988, symSize: 0x24 }
  - { offsetInCU: 0x1BB56, offset: 0xEA54B, size: 0x8, addend: 0x0, symName: __ZN4absl12lts_2024011613cord_internal12CordRepBtree7SetEdgeILNS2_8EdgeTypeE0EEENS2_8OpResultEbPNS1_7CordRepEm.cold.1, symObjAddr: 0x7D78, symBinAddr: 0x60940, symSize: 0x24 }
  - { offsetInCU: 0x1BB84, offset: 0xEA579, size: 0x8, addend: 0x0, symName: __ZN4absl12lts_2024011613cord_internal12CordRepBtree7SetEdgeILNS2_8EdgeTypeE0EEENS2_8OpResultEbPNS1_7CordRepEm.cold.2, symObjAddr: 0x7D9C, symBinAddr: 0x60964, symSize: 0x24 }
  - { offsetInCU: 0x1BBC8, offset: 0xEA5BD, size: 0x8, addend: 0x0, symName: __ZN4absl12lts_2024011613cord_internal12CordRepBtree7SetEdgeILNS2_8EdgeTypeE0EEENS2_8OpResultEbPNS1_7CordRepEm.cold.4, symObjAddr: 0x7DE4, symBinAddr: 0x609AC, symSize: 0x24 }
  - { offsetInCU: 0x1BBF6, offset: 0xEA5EB, size: 0x8, addend: 0x0, symName: __ZN4absl12lts_2024011613cord_internal12CordRepBtree7SetEdgeILNS2_8EdgeTypeE1EEENS2_8OpResultEbPNS1_7CordRepEm.cold.5, symObjAddr: 0x7E98, symBinAddr: 0x60A60, symSize: 0x24 }
  - { offsetInCU: 0x1BC24, offset: 0xEA619, size: 0x8, addend: 0x0, symName: __ZN4absl12lts_2024011613cord_internal12CordRepBtree7SetEdgeILNS2_8EdgeTypeE1EEENS2_8OpResultEbPNS1_7CordRepEm.cold.1, symObjAddr: 0x7E08, symBinAddr: 0x609D0, symSize: 0x24 }
  - { offsetInCU: 0x1BC52, offset: 0xEA647, size: 0x8, addend: 0x0, symName: __ZN4absl12lts_2024011613cord_internal12CordRepBtree7SetEdgeILNS2_8EdgeTypeE1EEENS2_8OpResultEbPNS1_7CordRepEm.cold.2, symObjAddr: 0x7E2C, symBinAddr: 0x609F4, symSize: 0x24 }
  - { offsetInCU: 0x1BC96, offset: 0xEA68B, size: 0x8, addend: 0x0, symName: __ZN4absl12lts_2024011613cord_internal12CordRepBtree7SetEdgeILNS2_8EdgeTypeE1EEENS2_8OpResultEbPNS1_7CordRepEm.cold.3, symObjAddr: 0x7E50, symBinAddr: 0x60A18, symSize: 0x24 }
  - { offsetInCU: 0x1BCC4, offset: 0xEA6B9, size: 0x8, addend: 0x0, symName: __ZN4absl12lts_2024011613cord_internal12CordRepBtree7SetEdgeILNS2_8EdgeTypeE1EEENS2_8OpResultEbPNS1_7CordRepEm.cold.4, symObjAddr: 0x7E74, symBinAddr: 0x60A3C, symSize: 0x24 }
  - { offsetInCU: 0x1BCF2, offset: 0xEA6E7, size: 0x8, addend: 0x0, symName: _OUTLINED_FUNCTION_0, symObjAddr: 0x7EBC, symBinAddr: 0x211A4, symSize: 0x8 }
  - { offsetInCU: 0x1BD0A, offset: 0xEA6FF, size: 0x8, addend: 0x0, symName: _OUTLINED_FUNCTION_1, symObjAddr: 0x7EC4, symBinAddr: 0x211AC, symSize: 0x8 }
  - { offsetInCU: 0x1BD22, offset: 0xEA717, size: 0x8, addend: 0x0, symName: _OUTLINED_FUNCTION_2, symObjAddr: 0x7ECC, symBinAddr: 0x211B4, symSize: 0x8 }
  - { offsetInCU: 0x1BD3A, offset: 0xEA72F, size: 0x8, addend: 0x0, symName: _OUTLINED_FUNCTION_3, symObjAddr: 0x7ED4, symBinAddr: 0x211BC, symSize: 0x8 }
  - { offsetInCU: 0x1BD52, offset: 0xEA747, size: 0x8, addend: 0x0, symName: _OUTLINED_FUNCTION_4, symObjAddr: 0x7EDC, symBinAddr: 0x211C4, symSize: 0x8 }
  - { offsetInCU: 0x1BD6A, offset: 0xEA75F, size: 0x8, addend: 0x0, symName: _OUTLINED_FUNCTION_5, symObjAddr: 0x7EE4, symBinAddr: 0x211CC, symSize: 0x8 }
  - { offsetInCU: 0x1BD82, offset: 0xEA777, size: 0x8, addend: 0x0, symName: _OUTLINED_FUNCTION_6, symObjAddr: 0x7EEC, symBinAddr: 0x211D4, symSize: 0x8 }
  - { offsetInCU: 0x1BD9A, offset: 0xEA78F, size: 0x8, addend: 0x0, symName: _OUTLINED_FUNCTION_7, symObjAddr: 0x7EF4, symBinAddr: 0x211DC, symSize: 0x8 }
  - { offsetInCU: 0x1BDB2, offset: 0xEA7A7, size: 0x8, addend: 0x0, symName: _OUTLINED_FUNCTION_8, symObjAddr: 0x7EFC, symBinAddr: 0x211E4, symSize: 0x8 }
  - { offsetInCU: 0x1BDCA, offset: 0xEA7BF, size: 0x8, addend: 0x0, symName: _OUTLINED_FUNCTION_9, symObjAddr: 0x7F04, symBinAddr: 0x211EC, symSize: 0x8 }
  - { offsetInCU: 0x1BDE2, offset: 0xEA7D7, size: 0x8, addend: 0x0, symName: _OUTLINED_FUNCTION_10, symObjAddr: 0x7F0C, symBinAddr: 0x211F4, symSize: 0x8 }
  - { offsetInCU: 0x1BDFA, offset: 0xEA7EF, size: 0x8, addend: 0x0, symName: _OUTLINED_FUNCTION_11, symObjAddr: 0x7F14, symBinAddr: 0x211FC, symSize: 0x8 }
  - { offsetInCU: 0x1BE12, offset: 0xEA807, size: 0x8, addend: 0x0, symName: _OUTLINED_FUNCTION_12, symObjAddr: 0x7F1C, symBinAddr: 0x21204, symSize: 0xC }
  - { offsetInCU: 0x1BE2A, offset: 0xEA81F, size: 0x8, addend: 0x0, symName: _OUTLINED_FUNCTION_13, symObjAddr: 0x7F28, symBinAddr: 0x21210, symSize: 0x8 }
  - { offsetInCU: 0x1BE42, offset: 0xEA837, size: 0x8, addend: 0x0, symName: _OUTLINED_FUNCTION_14, symObjAddr: 0x7F30, symBinAddr: 0x21218, symSize: 0x8 }
  - { offsetInCU: 0x1BE5A, offset: 0xEA84F, size: 0x8, addend: 0x0, symName: _OUTLINED_FUNCTION_15, symObjAddr: 0x7F38, symBinAddr: 0x21220, symSize: 0x8 }
  - { offsetInCU: 0x1BE72, offset: 0xEA867, size: 0x8, addend: 0x0, symName: _OUTLINED_FUNCTION_16, symObjAddr: 0x7F40, symBinAddr: 0x21228, symSize: 0x8 }
  - { offsetInCU: 0x1BE8A, offset: 0xEA87F, size: 0x8, addend: 0x0, symName: _OUTLINED_FUNCTION_17, symObjAddr: 0x7F48, symBinAddr: 0x21230, symSize: 0xC }
  - { offsetInCU: 0x26, offset: 0xEA8EE, size: 0x8, addend: 0x0, symName: __ZN4absl12lts_2024011613cord_internal21CordRepBtreeNavigator4SkipEm, symObjAddr: 0x0, symBinAddr: 0x2123C, symSize: 0x1A8 }
  - { offsetInCU: 0xC6F, offset: 0xEB537, size: 0x8, addend: 0x0, symName: __ZN4absl12lts_2024011613cord_internal12_GLOBAL__N_19SubstringEPNS1_7CordRepEmm, symObjAddr: 0x560, symBinAddr: 0x2179C, symSize: 0x104 }
  - { offsetInCU: 0xFD5, offset: 0xEB89D, size: 0x8, addend: 0x0, symName: __ZN4absl12lts_2024011613cord_internal21CordRepBtreeNavigator4SkipEm.cold.1, symObjAddr: 0x664, symBinAddr: 0x60A84, symSize: 0x24 }
  - { offsetInCU: 0x2F68, offset: 0xED830, size: 0x8, addend: 0x0, symName: __ZN4absl12lts_2024011613cord_internal21CordRepBtreeNavigator4SkipEm, symObjAddr: 0x0, symBinAddr: 0x2123C, symSize: 0x1A8 }
  - { offsetInCU: 0x3173, offset: 0xEDA3B, size: 0x8, addend: 0x0, symName: __ZN4absl12lts_2024011613cord_internal21CordRepBtreeNavigator4ReadEmm, symObjAddr: 0x1A8, symBinAddr: 0x213E4, symSize: 0x3B8 }
  - { offsetInCU: 0x317E, offset: 0xEDA46, size: 0x8, addend: 0x0, symName: __ZN4absl12lts_2024011613cord_internal21CordRepBtreeNavigator4SkipEm.cold.3, symObjAddr: 0x6AC, symBinAddr: 0x60ACC, symSize: 0x28 }
  - { offsetInCU: 0x3196, offset: 0xEDA5E, size: 0x8, addend: 0x0, symName: __ZN4absl12lts_2024011613cord_internal21CordRepBtreeNavigator4SkipEm.cold.4, symObjAddr: 0x6D4, symBinAddr: 0x60AF4, symSize: 0x24 }
  - { offsetInCU: 0x31C3, offset: 0xEDA8B, size: 0x8, addend: 0x0, symName: __ZN4absl12lts_2024011613cord_internal21CordRepBtreeNavigator4SkipEm.cold.2, symObjAddr: 0x688, symBinAddr: 0x60AA8, symSize: 0x24 }
  - { offsetInCU: 0x31F0, offset: 0xEDAB8, size: 0x8, addend: 0x0, symName: __ZN4absl12lts_2024011613cord_internal21CordRepBtreeNavigator4SkipEm.cold.7, symObjAddr: 0x744, symBinAddr: 0x60B64, symSize: 0x24 }
  - { offsetInCU: 0x321D, offset: 0xEDAE5, size: 0x8, addend: 0x0, symName: __ZN4absl12lts_2024011613cord_internal21CordRepBtreeNavigator4SkipEm.cold.1, symObjAddr: 0x664, symBinAddr: 0x60A84, symSize: 0x24 }
  - { offsetInCU: 0x324A, offset: 0xEDB12, size: 0x8, addend: 0x0, symName: __ZN4absl12lts_2024011613cord_internal21CordRepBtreeNavigator4SkipEm.cold.8, symObjAddr: 0x768, symBinAddr: 0x60B88, symSize: 0x24 }
  - { offsetInCU: 0x3277, offset: 0xEDB3F, size: 0x8, addend: 0x0, symName: __ZN4absl12lts_2024011613cord_internal21CordRepBtreeNavigator4SkipEm.cold.6, symObjAddr: 0x71C, symBinAddr: 0x60B3C, symSize: 0x28 }
  - { offsetInCU: 0x32A4, offset: 0xEDB6C, size: 0x8, addend: 0x0, symName: __ZN4absl12lts_2024011613cord_internal21CordRepBtreeNavigator4SkipEm.cold.5, symObjAddr: 0x6F8, symBinAddr: 0x60B18, symSize: 0x24 }
  - { offsetInCU: 0x35FE, offset: 0xEDEC6, size: 0x8, addend: 0x0, symName: __ZN4absl12lts_2024011613cord_internal21CordRepBtreeNavigator4ReadEmm, symObjAddr: 0x1A8, symBinAddr: 0x213E4, symSize: 0x3B8 }
  - { offsetInCU: 0x41CB, offset: 0xEEA93, size: 0x8, addend: 0x0, symName: __ZN4absl12lts_2024011613cord_internal21CordRepBtreeNavigator4ReadEmm.cold.3, symObjAddr: 0x7D4, symBinAddr: 0x60BF4, symSize: 0x24 }
  - { offsetInCU: 0x41F8, offset: 0xEEAC0, size: 0x8, addend: 0x0, symName: __ZN4absl12lts_2024011613cord_internal21CordRepBtreeNavigator4ReadEmm.cold.4, symObjAddr: 0x7F8, symBinAddr: 0x60C18, symSize: 0x24 }
  - { offsetInCU: 0x4225, offset: 0xEEAED, size: 0x8, addend: 0x0, symName: __ZN4absl12lts_2024011613cord_internal21CordRepBtreeNavigator4ReadEmm.cold.2, symObjAddr: 0x7B0, symBinAddr: 0x60BD0, symSize: 0x24 }
  - { offsetInCU: 0x4252, offset: 0xEEB1A, size: 0x8, addend: 0x0, symName: __ZN4absl12lts_2024011613cord_internal21CordRepBtreeNavigator4ReadEmm.cold.7, symObjAddr: 0x868, symBinAddr: 0x60C88, symSize: 0x24 }
  - { offsetInCU: 0x427F, offset: 0xEEB47, size: 0x8, addend: 0x0, symName: __ZN4absl12lts_2024011613cord_internal21CordRepBtreeNavigator4ReadEmm.cold.1, symObjAddr: 0x78C, symBinAddr: 0x60BAC, symSize: 0x24 }
  - { offsetInCU: 0x42AC, offset: 0xEEB74, size: 0x8, addend: 0x0, symName: __ZN4absl12lts_2024011613cord_internal21CordRepBtreeNavigator4ReadEmm.cold.10, symObjAddr: 0x8DC, symBinAddr: 0x60CFC, symSize: 0x24 }
  - { offsetInCU: 0x42D9, offset: 0xEEBA1, size: 0x8, addend: 0x0, symName: __ZN4absl12lts_2024011613cord_internal21CordRepBtreeNavigator4ReadEmm.cold.9, symObjAddr: 0x8B4, symBinAddr: 0x60CD4, symSize: 0x28 }
  - { offsetInCU: 0x42F1, offset: 0xEEBB9, size: 0x8, addend: 0x0, symName: __ZN4absl12lts_2024011613cord_internal21CordRepBtreeNavigator4ReadEmm.cold.6, symObjAddr: 0x840, symBinAddr: 0x60C60, symSize: 0x28 }
  - { offsetInCU: 0x431E, offset: 0xEEBE6, size: 0x8, addend: 0x0, symName: __ZN4absl12lts_2024011613cord_internal21CordRepBtreeNavigator4ReadEmm.cold.5, symObjAddr: 0x81C, symBinAddr: 0x60C3C, symSize: 0x24 }
  - { offsetInCU: 0x434B, offset: 0xEEC13, size: 0x8, addend: 0x0, symName: __ZN4absl12lts_2024011613cord_internal21CordRepBtreeNavigator4ReadEmm.cold.8, symObjAddr: 0x88C, symBinAddr: 0x60CAC, symSize: 0x28 }
  - { offsetInCU: 0x43E3, offset: 0xEECAB, size: 0x8, addend: 0x0, symName: __ZN4absl12lts_2024011613cord_internal12_GLOBAL__N_19SubstringEPNS1_7CordRepEmm.cold.1, symObjAddr: 0x900, symBinAddr: 0x60D20, symSize: 0x28 }
  - { offsetInCU: 0x43FB, offset: 0xEECC3, size: 0x8, addend: 0x0, symName: __ZN4absl12lts_2024011613cord_internal12_GLOBAL__N_19SubstringEPNS1_7CordRepEmm.cold.5, symObjAddr: 0x9A0, symBinAddr: 0x60DC0, symSize: 0x28 }
  - { offsetInCU: 0x4413, offset: 0xEECDB, size: 0x8, addend: 0x0, symName: __ZN4absl12lts_2024011613cord_internal12_GLOBAL__N_19SubstringEPNS1_7CordRepEmm.cold.2, symObjAddr: 0x928, symBinAddr: 0x60D48, symSize: 0x28 }
  - { offsetInCU: 0x442B, offset: 0xEECF3, size: 0x8, addend: 0x0, symName: __ZN4absl12lts_2024011613cord_internal12_GLOBAL__N_19SubstringEPNS1_7CordRepEmm.cold.4, symObjAddr: 0x978, symBinAddr: 0x60D98, symSize: 0x28 }
  - { offsetInCU: 0x4443, offset: 0xEED0B, size: 0x8, addend: 0x0, symName: __ZN4absl12lts_2024011613cord_internal12_GLOBAL__N_19SubstringEPNS1_7CordRepEmm.cold.3, symObjAddr: 0x950, symBinAddr: 0x60D70, symSize: 0x28 }
  - { offsetInCU: 0x445B, offset: 0xEED23, size: 0x8, addend: 0x0, symName: _OUTLINED_FUNCTION_0, symObjAddr: 0x9C8, symBinAddr: 0x218A0, symSize: 0x8 }
  - { offsetInCU: 0x4473, offset: 0xEED3B, size: 0x8, addend: 0x0, symName: _OUTLINED_FUNCTION_1, symObjAddr: 0x9D0, symBinAddr: 0x218A8, symSize: 0x8 }
  - { offsetInCU: 0x26, offset: 0xEED7D, size: 0x8, addend: 0x0, symName: __ZN4absl12lts_2024011613cord_internal18CordRepBtreeReader4ReadEmmRPNS1_7CordRepE, symObjAddr: 0x0, symBinAddr: 0x218B0, symSize: 0x214 }
  - { offsetInCU: 0x2E49, offset: 0xF1BA0, size: 0x8, addend: 0x0, symName: __ZN4absl12lts_2024011613cord_internal18CordRepBtreeReader4ReadEmmRPNS1_7CordRepE, symObjAddr: 0x0, symBinAddr: 0x218B0, symSize: 0x214 }
  - { offsetInCU: 0x333D, offset: 0xF2094, size: 0x8, addend: 0x0, symName: __ZN4absl12lts_2024011613cord_internal18CordRepBtreeReader4ReadEmmRPNS1_7CordRepE.cold.1, symObjAddr: 0x3E4, symBinAddr: 0x60DE8, symSize: 0x28 }
  - { offsetInCU: 0x33E6, offset: 0xF213D, size: 0x8, addend: 0x0, symName: __ZN4absl12lts_2024011613cord_internal18CordRepBtreeReader4ReadEmmRPNS1_7CordRepE.cold.1, symObjAddr: 0x3E4, symBinAddr: 0x60DE8, symSize: 0x28 }
  - { offsetInCU: 0x3413, offset: 0xF216A, size: 0x8, addend: 0x0, symName: __ZN4absl12lts_2024011613cord_internal18CordRepBtreeReader4ReadEmmRPNS1_7CordRepE.cold.2, symObjAddr: 0x40C, symBinAddr: 0x60E10, symSize: 0x24 }
  - { offsetInCU: 0x3455, offset: 0xF21AC, size: 0x8, addend: 0x0, symName: __ZN4absl12lts_2024011613cord_internal18CordRepBtreeReader4ReadEmmRPNS1_7CordRepE.cold.13, symObjAddr: 0x5A8, symBinAddr: 0x60FAC, symSize: 0x24 }
  - { offsetInCU: 0x3497, offset: 0xF21EE, size: 0x8, addend: 0x0, symName: __ZN4absl12lts_2024011613cord_internal18CordRepBtreeReader4ReadEmmRPNS1_7CordRepE.cold.3, symObjAddr: 0x430, symBinAddr: 0x60E34, symSize: 0x28 }
  - { offsetInCU: 0x34AF, offset: 0xF2206, size: 0x8, addend: 0x0, symName: __ZN4absl12lts_2024011613cord_internal18CordRepBtreeReader4ReadEmmRPNS1_7CordRepE.cold.4, symObjAddr: 0x458, symBinAddr: 0x60E5C, symSize: 0x28 }
  - { offsetInCU: 0x34DC, offset: 0xF2233, size: 0x8, addend: 0x0, symName: __ZN4absl12lts_2024011613cord_internal18CordRepBtreeReader4ReadEmmRPNS1_7CordRepE.cold.5, symObjAddr: 0x480, symBinAddr: 0x60E84, symSize: 0x24 }
  - { offsetInCU: 0x351E, offset: 0xF2275, size: 0x8, addend: 0x0, symName: __ZN4absl12lts_2024011613cord_internal18CordRepBtreeReader4ReadEmmRPNS1_7CordRepE.cold.10, symObjAddr: 0x53C, symBinAddr: 0x60F40, symSize: 0x24 }
  - { offsetInCU: 0x3560, offset: 0xF22B7, size: 0x8, addend: 0x0, symName: __ZN4absl12lts_2024011613cord_internal18CordRepBtreeReader4ReadEmmRPNS1_7CordRepE.cold.11, symObjAddr: 0x560, symBinAddr: 0x60F64, symSize: 0x24 }
  - { offsetInCU: 0x35A2, offset: 0xF22F9, size: 0x8, addend: 0x0, symName: __ZN4absl12lts_2024011613cord_internal18CordRepBtreeReader4ReadEmmRPNS1_7CordRepE.cold.12, symObjAddr: 0x584, symBinAddr: 0x60F88, symSize: 0x24 }
  - { offsetInCU: 0x35E4, offset: 0xF233B, size: 0x8, addend: 0x0, symName: __ZN4absl12lts_2024011613cord_internal18CordRepBtreeReader4ReadEmmRPNS1_7CordRepE.cold.9, symObjAddr: 0x514, symBinAddr: 0x60F18, symSize: 0x28 }
  - { offsetInCU: 0x3611, offset: 0xF2368, size: 0x8, addend: 0x0, symName: __ZN4absl12lts_2024011613cord_internal18CordRepBtreeReader4ReadEmmRPNS1_7CordRepE.cold.6, symObjAddr: 0x4A4, symBinAddr: 0x60EA8, symSize: 0x28 }
  - { offsetInCU: 0x3653, offset: 0xF23AA, size: 0x8, addend: 0x0, symName: __ZN4absl12lts_2024011613cord_internal18CordRepBtreeReader4ReadEmmRPNS1_7CordRepE.cold.7, symObjAddr: 0x4CC, symBinAddr: 0x60ED0, symSize: 0x24 }
  - { offsetInCU: 0x36D5, offset: 0xF242C, size: 0x8, addend: 0x0, symName: __ZN4absl12lts_2024011613cord_internal18CordRepBtreeReader4ReadEmmRPNS1_7CordRepE.cold.8, symObjAddr: 0x4F0, symBinAddr: 0x60EF4, symSize: 0x24 }
  - { offsetInCU: 0x38E0, offset: 0xF2637, size: 0x8, addend: 0x0, symName: _OUTLINED_FUNCTION_0, symObjAddr: 0x790, symBinAddr: 0x21AC4, symSize: 0x8 }
  - { offsetInCU: 0x38F8, offset: 0xF264F, size: 0x8, addend: 0x0, symName: _OUTLINED_FUNCTION_1, symObjAddr: 0x798, symBinAddr: 0x21ACC, symSize: 0x8 }
  - { offsetInCU: 0x3910, offset: 0xF2667, size: 0x8, addend: 0x0, symName: _OUTLINED_FUNCTION_2, symObjAddr: 0x7A0, symBinAddr: 0x21AD4, symSize: 0x8 }
  - { offsetInCU: 0x26, offset: 0xF26AE, size: 0x8, addend: 0x0, symName: __ZN4absl12lts_2024011613cord_internal7ConsumeEPNS1_7CordRepENS0_11FunctionRefIFvS3_mmEEE, symObjAddr: 0x0, symBinAddr: 0x21ADC, symSize: 0xDC }
  - { offsetInCU: 0xC25, offset: 0xF32AD, size: 0x8, addend: 0x0, symName: __ZN4absl12lts_2024011613cord_internal7ConsumeEPNS1_7CordRepENS0_11FunctionRefIFvS3_mmEEE, symObjAddr: 0x0, symBinAddr: 0x21ADC, symSize: 0xDC }
  - { offsetInCU: 0xE35, offset: 0xF34BD, size: 0x8, addend: 0x0, symName: __ZN4absl12lts_2024011613cord_internal14ReverseConsumeEPNS1_7CordRepENS0_11FunctionRefIFvS3_mmEEE, symObjAddr: 0xDC, symBinAddr: 0x21BB8, symSize: 0x4 }
  - { offsetInCU: 0xE6B, offset: 0xF34F3, size: 0x8, addend: 0x0, symName: __ZN4absl12lts_2024011613cord_internal14ReverseConsumeEPNS1_7CordRepENS0_11FunctionRefIFvS3_mmEEE, symObjAddr: 0xDC, symBinAddr: 0x21BB8, symSize: 0x4 }
  - { offsetInCU: 0x2EAE, offset: 0xF5536, size: 0x8, addend: 0x0, symName: __ZN4absl12lts_2024011613cord_internal7ConsumeEPNS1_7CordRepENS0_11FunctionRefIFvS3_mmEEE.cold.1, symObjAddr: 0xE0, symBinAddr: 0x60FD0, symSize: 0x28 }
  - { offsetInCU: 0x2EF0, offset: 0xF5578, size: 0x8, addend: 0x0, symName: __ZN4absl12lts_2024011613cord_internal7ConsumeEPNS1_7CordRepENS0_11FunctionRefIFvS3_mmEEE.cold.2, symObjAddr: 0x108, symBinAddr: 0x60FF8, symSize: 0x28 }
  - { offsetInCU: 0x26, offset: 0xF55F6, size: 0x8, addend: 0x0, symName: __ZN4absl12lts_2024011613cord_internal10CordRepCrc3NewEPNS1_7CordRepENS0_12crc_internal12CrcCordStateE, symObjAddr: 0x0, symBinAddr: 0x21BBC, symSize: 0x144 }
  - { offsetInCU: 0x3ADF, offset: 0xF90AF, size: 0x8, addend: 0x0, symName: __ZN4absl12lts_2024011613cord_internal10CordRepCrc3NewEPNS1_7CordRepENS0_12crc_internal12CrcCordStateE, symObjAddr: 0x0, symBinAddr: 0x21BBC, symSize: 0x144 }
  - { offsetInCU: 0x3EBE, offset: 0xF948E, size: 0x8, addend: 0x0, symName: __ZN4absl12lts_2024011613cord_internal10CordRepCrc3NewEPNS1_7CordRepENS0_12crc_internal12CrcCordStateE.cold.1, symObjAddr: 0x1AC, symBinAddr: 0x61020, symSize: 0x24 }
  - { offsetInCU: 0x3EEB, offset: 0xF94BB, size: 0x8, addend: 0x0, symName: __ZN4absl12lts_2024011613cord_internal10CordRepCrc3NewEPNS1_7CordRepENS0_12crc_internal12CrcCordStateE.cold.2, symObjAddr: 0x1D0, symBinAddr: 0x61044, symSize: 0x24 }
  - { offsetInCU: 0x3F18, offset: 0xF94E8, size: 0x8, addend: 0x0, symName: __ZN4absl12lts_2024011613cord_internal10CordRepCrc3NewEPNS1_7CordRepENS0_12crc_internal12CrcCordStateE.cold.5, symObjAddr: 0x244, symBinAddr: 0x610B8, symSize: 0x24 }
  - { offsetInCU: 0x3F45, offset: 0xF9515, size: 0x8, addend: 0x0, symName: __ZN4absl12lts_2024011613cord_internal10CordRepCrc3NewEPNS1_7CordRepENS0_12crc_internal12CrcCordStateE.cold.3, symObjAddr: 0x1F4, symBinAddr: 0x61068, symSize: 0x28 }
  - { offsetInCU: 0x3F72, offset: 0xF9542, size: 0x8, addend: 0x0, symName: __ZN4absl12lts_2024011613cord_internal10CordRepCrc3NewEPNS1_7CordRepENS0_12crc_internal12CrcCordStateE.cold.4, symObjAddr: 0x21C, symBinAddr: 0x61090, symSize: 0x28 }
  - { offsetInCU: 0x3FED, offset: 0xF95BD, size: 0x8, addend: 0x0, symName: __ZN4absl12lts_2024011613cord_internal10CordRepCrc7DestroyEPS2_, symObjAddr: 0x144, symBinAddr: 0x21D00, symSize: 0x68 }
  - { offsetInCU: 0x40DF, offset: 0xF96AF, size: 0x8, addend: 0x0, symName: __ZN4absl12lts_2024011613cord_internal10CordRepCrc7DestroyEPS2_.cold.1, symObjAddr: 0x268, symBinAddr: 0x610DC, symSize: 0x28 }
  - { offsetInCU: 0x4122, offset: 0xF96F2, size: 0x8, addend: 0x0, symName: _OUTLINED_FUNCTION_0, symObjAddr: 0x290, symBinAddr: 0x21D68, symSize: 0x8 }
  - { offsetInCU: 0x26, offset: 0xF9730, size: 0x8, addend: 0x0, symName: __ZN4absl12lts_2024011613cord_internal23get_cordz_mean_intervalEv, symObjAddr: 0x0, symBinAddr: 0x21D70, symSize: 0x10 }
  - { offsetInCU: 0x4F, offset: 0xF9759, size: 0x8, addend: 0x0, symName: __ZN4absl12lts_2024011613cord_internal12_GLOBAL__N_121g_cordz_mean_intervalE.0, symObjAddr: 0x20, symBinAddr: 0x7E760, symSize: 0x0 }
  - { offsetInCU: 0x5E, offset: 0xF9768, size: 0x8, addend: 0x0, symName: __ZN4absl12lts_2024011613cord_internal23get_cordz_mean_intervalEv, symObjAddr: 0x0, symBinAddr: 0x21D70, symSize: 0x10 }
  - { offsetInCU: 0x7F, offset: 0xF9789, size: 0x8, addend: 0x0, symName: __ZN4absl12lts_2024011613cord_internal23get_cordz_mean_intervalEv, symObjAddr: 0x0, symBinAddr: 0x21D70, symSize: 0x10 }
  - { offsetInCU: 0x99, offset: 0xF97A3, size: 0x8, addend: 0x0, symName: __ZN4absl12lts_2024011613cord_internal23get_cordz_mean_intervalEv, symObjAddr: 0x0, symBinAddr: 0x21D70, symSize: 0x10 }
  - { offsetInCU: 0xB3, offset: 0xF97BD, size: 0x8, addend: 0x0, symName: __ZN4absl12lts_2024011613cord_internal23set_cordz_mean_intervalEi, symObjAddr: 0x10, symBinAddr: 0x21D80, symSize: 0x10 }
  - { offsetInCU: 0xDE, offset: 0xF97E8, size: 0x8, addend: 0x0, symName: __ZN4absl12lts_2024011613cord_internal23set_cordz_mean_intervalEi, symObjAddr: 0x10, symBinAddr: 0x21D80, symSize: 0x10 }
  - { offsetInCU: 0xFF, offset: 0xF9809, size: 0x8, addend: 0x0, symName: __ZN4absl12lts_2024011613cord_internal23set_cordz_mean_intervalEi, symObjAddr: 0x10, symBinAddr: 0x21D80, symSize: 0x10 }
  - { offsetInCU: 0x57, offset: 0xFC307, size: 0x8, addend: 0x0, symName: __ZN4absl12lts_2024011613cord_internal12_GLOBAL__N_111GlobalQueueEv, symObjAddr: 0x74, symBinAddr: 0x21E04, symSize: 0x78 }
  - { offsetInCU: 0x81, offset: 0xFC331, size: 0x8, addend: 0x0, symName: __ZZN4absl12lts_2024011613cord_internal12_GLOBAL__N_111GlobalQueueEvE12global_queue, symObjAddr: 0x39610, symBinAddr: 0x7E948, symSize: 0x0 }
  - { offsetInCU: 0x48A8, offset: 0x100B58, size: 0x8, addend: 0x0, symName: __ZNSt3__119__allocate_at_leastB7v160006INS_9allocatorIPN4absl12lts_2024011613cord_internal11CordzHandleEEEEENS_19__allocation_resultINS_16allocator_traitsIT_E7pointerEEERSA_m, symObjAddr: 0x7A4, symBinAddr: 0x224B4, symSize: 0x34 }
  - { offsetInCU: 0x4C48, offset: 0x100EF8, size: 0x8, addend: 0x0, symName: __ZNSt3__119__allocate_at_leastB7v160006INS_9allocatorIPKN4absl12lts_2024011613cord_internal11CordzHandleEEEEENS_19__allocation_resultINS_16allocator_traitsIT_E7pointerEEERSB_m, symObjAddr: 0x814, symBinAddr: 0x224FC, symSize: 0x34 }
  - { offsetInCU: 0x4CE6, offset: 0x100F96, size: 0x8, addend: 0x0, symName: __ZN4absl12lts_2024011613cord_internal11CordzHandle6DeleteEPS2_.cold.1, symObjAddr: 0x848, symBinAddr: 0x61104, symSize: 0x28 }
  - { offsetInCU: 0x7199, offset: 0x103449, size: 0x8, addend: 0x0, symName: __ZN4absl12lts_2024011613cord_internal11CordzHandleC2Eb, symObjAddr: 0x0, symBinAddr: 0x21D90, symSize: 0x74 }
  - { offsetInCU: 0x741E, offset: 0x1036CE, size: 0x8, addend: 0x0, symName: __ZN4absl12lts_2024011613cord_internal11CordzHandleC1Eb, symObjAddr: 0xEC, symBinAddr: 0x21E7C, symSize: 0x4 }
  - { offsetInCU: 0x745E, offset: 0x10370E, size: 0x8, addend: 0x0, symName: __ZN4absl12lts_2024011613cord_internal11CordzHandleC1Eb, symObjAddr: 0xEC, symBinAddr: 0x21E7C, symSize: 0x4 }
  - { offsetInCU: 0x790D, offset: 0x103BBD, size: 0x8, addend: 0x0, symName: __ZN4absl12lts_2024011613cord_internal11CordzHandleD2Ev, symObjAddr: 0xF0, symBinAddr: 0x21E80, symSize: 0x1BC }
  - { offsetInCU: 0x803A, offset: 0x1042EA, size: 0x8, addend: 0x0, symName: __ZNKSt3__16vectorIPN4absl12lts_2024011613cord_internal11CordzHandleENS_9allocatorIS5_EEE20__throw_length_errorB7v160006Ev, symObjAddr: 0x71C, symBinAddr: 0x224A0, symSize: 0x14 }
  - { offsetInCU: 0x806E, offset: 0x10431E, size: 0x8, addend: 0x0, symName: __ZN4absl12lts_2024011613cord_internal11CordzHandleD1Ev, symObjAddr: 0x2B8, symBinAddr: 0x2203C, symSize: 0x4 }
  - { offsetInCU: 0x8091, offset: 0x104341, size: 0x8, addend: 0x0, symName: __ZN4absl12lts_2024011613cord_internal11CordzHandleD1Ev, symObjAddr: 0x2B8, symBinAddr: 0x2203C, symSize: 0x4 }
  - { offsetInCU: 0x80BF, offset: 0x10436F, size: 0x8, addend: 0x0, symName: __ZN4absl12lts_2024011613cord_internal11CordzHandleD0Ev, symObjAddr: 0x2BC, symBinAddr: 0x22040, symSize: 0x14 }
  - { offsetInCU: 0x8136, offset: 0x1043E6, size: 0x8, addend: 0x0, symName: __ZNK4absl12lts_2024011613cord_internal11CordzHandle12SafeToDeleteEv, symObjAddr: 0x2D0, symBinAddr: 0x22054, symSize: 0x34 }
  - { offsetInCU: 0x81DE, offset: 0x10448E, size: 0x8, addend: 0x0, symName: __ZN4absl12lts_2024011613cord_internal11CordzHandle6DeleteEPS2_, symObjAddr: 0x304, symBinAddr: 0x22088, symSize: 0x98 }
  - { offsetInCU: 0x83EE, offset: 0x10469E, size: 0x8, addend: 0x0, symName: __ZN4absl12lts_2024011613cord_internal11CordzHandle6DeleteEPS2_.cold.1, symObjAddr: 0x848, symBinAddr: 0x61104, symSize: 0x28 }
  - { offsetInCU: 0x885A, offset: 0x104B0A, size: 0x8, addend: 0x0, symName: __ZN4absl12lts_2024011613cord_internal11CordzHandle25DiagnosticsGetDeleteQueueEv, symObjAddr: 0x39C, symBinAddr: 0x22120, symSize: 0x148 }
  - { offsetInCU: 0x8EC4, offset: 0x105174, size: 0x8, addend: 0x0, symName: __ZNKSt3__16vectorIPKN4absl12lts_2024011613cord_internal11CordzHandleENS_9allocatorIS6_EEE20__throw_length_errorB7v160006Ev, symObjAddr: 0x800, symBinAddr: 0x224E8, symSize: 0x14 }
  - { offsetInCU: 0x8EED, offset: 0x10519D, size: 0x8, addend: 0x0, symName: __ZNSt3__119__allocate_at_leastB7v160006INS_9allocatorIPKN4absl12lts_2024011613cord_internal11CordzHandleEEEEENS_19__allocation_resultINS_16allocator_traitsIT_E7pointerEEERSB_m, symObjAddr: 0x814, symBinAddr: 0x224FC, symSize: 0x34 }
  - { offsetInCU: 0x8F0E, offset: 0x1051BE, size: 0x8, addend: 0x0, symName: __ZNK4absl12lts_2024011613cord_internal11CordzHandle32DiagnosticsHandleIsSafeToInspectEPKS2_, symObjAddr: 0x4E4, symBinAddr: 0x22268, symSize: 0xE0 }
  - { offsetInCU: 0x90DE, offset: 0x10538E, size: 0x8, addend: 0x0, symName: __ZN4absl12lts_2024011613cord_internal11CordzHandle41DiagnosticsGetSafeToInspectDeletedHandlesEv, symObjAddr: 0x5C4, symBinAddr: 0x22348, symSize: 0x158 }
  - { offsetInCU: 0x49, offset: 0x105ADF, size: 0x8, addend: 0x0, symName: __ZN4absl12lts_2024011613cord_internal9CordzInfo14kMaxStackDepthE, symObjAddr: 0x1368, symBinAddr: 0x6A540, symSize: 0x0 }
  - { offsetInCU: 0x52B, offset: 0x105FC1, size: 0x8, addend: 0x0, symName: __ZN4absl12lts_2024011613cord_internal9CordzInfo12global_list_E, symObjAddr: 0x13A0, symBinAddr: 0x7E768, symSize: 0x0 }
  - { offsetInCU: 0x3B53, offset: 0x1095E9, size: 0x8, addend: 0x0, symName: __ZN4absl12lts_2024011613cord_internal9CordzInfo4HeadERKNS1_13CordzSnapshotE, symObjAddr: 0x0, symBinAddr: 0x22530, symSize: 0x44 }
  - { offsetInCU: 0x3C51, offset: 0x1096E7, size: 0x8, addend: 0x0, symName: __ZNK4absl12lts_2024011613cord_internal9CordzInfo4NextERKNS1_13CordzSnapshotE, symObjAddr: 0x44, symBinAddr: 0x22574, symSize: 0x5C }
  - { offsetInCU: 0x3CAD, offset: 0x109743, size: 0x8, addend: 0x0, symName: __ZN4absl12lts_2024011613cord_internal9CordzInfo4HeadERKNS1_13CordzSnapshotE.cold.1, symObjAddr: 0xDEC, symBinAddr: 0x6112C, symSize: 0x28 }
  - { offsetInCU: 0x3CDA, offset: 0x109770, size: 0x8, addend: 0x0, symName: __ZN4absl12lts_2024011613cord_internal9CordzInfo4HeadERKNS1_13CordzSnapshotE.cold.2, symObjAddr: 0xE14, symBinAddr: 0x61154, symSize: 0x28 }
  - { offsetInCU: 0x3D07, offset: 0x10979D, size: 0x8, addend: 0x0, symName: __ZNK4absl12lts_2024011613cord_internal9CordzInfo4NextERKNS1_13CordzSnapshotE, symObjAddr: 0x44, symBinAddr: 0x22574, symSize: 0x5C }
  - { offsetInCU: 0x3E4A, offset: 0x1098E0, size: 0x8, addend: 0x0, symName: __ZN4absl12lts_2024011613cord_internal9CordzInfo9TrackCordERNS1_10InlineDataENS1_18CordzUpdateTracker16MethodIdentifierE, symObjAddr: 0xA0, symBinAddr: 0x225D0, symSize: 0x8C }
  - { offsetInCU: 0x3ECF, offset: 0x109965, size: 0x8, addend: 0x0, symName: __ZNK4absl12lts_2024011613cord_internal9CordzInfo4NextERKNS1_13CordzSnapshotE.cold.1, symObjAddr: 0xE3C, symBinAddr: 0x6117C, symSize: 0x28 }
  - { offsetInCU: 0x3EFC, offset: 0x109992, size: 0x8, addend: 0x0, symName: __ZNK4absl12lts_2024011613cord_internal9CordzInfo4NextERKNS1_13CordzSnapshotE.cold.3, symObjAddr: 0xE8C, symBinAddr: 0x611CC, symSize: 0x28 }
  - { offsetInCU: 0x3F29, offset: 0x1099BF, size: 0x8, addend: 0x0, symName: __ZNK4absl12lts_2024011613cord_internal9CordzInfo4NextERKNS1_13CordzSnapshotE.cold.2, symObjAddr: 0xE64, symBinAddr: 0x611A4, symSize: 0x28 }
  - { offsetInCU: 0x407F, offset: 0x109B15, size: 0x8, addend: 0x0, symName: __ZN4absl12lts_2024011613cord_internal9CordzInfo9TrackCordERNS1_10InlineDataENS1_18CordzUpdateTracker16MethodIdentifierE, symObjAddr: 0xA0, symBinAddr: 0x225D0, symSize: 0x8C }
  - { offsetInCU: 0x4278, offset: 0x109D0E, size: 0x8, addend: 0x0, symName: __ZN4absl12lts_2024011613cord_internal9CordzInfoC2EPNS1_7CordRepEPKS2_NS1_18CordzUpdateTracker16MethodIdentifierE, symObjAddr: 0x5D4, symBinAddr: 0x22AD8, symSize: 0x16C }
  - { offsetInCU: 0x4798, offset: 0x10A22E, size: 0x8, addend: 0x0, symName: __ZN4absl12lts_2024011613cord_internal9CordzInfo5TrackEv, symObjAddr: 0x130, symBinAddr: 0x22660, symSize: 0xAC }
  - { offsetInCU: 0x4B2E, offset: 0x10A5C4, size: 0x8, addend: 0x0, symName: __ZN4absl12lts_2024011613cord_internal9CordzInfo9TrackCordERNS1_10InlineDataENS1_18CordzUpdateTracker16MethodIdentifierE.cold.1, symObjAddr: 0xEB4, symBinAddr: 0x611F4, symSize: 0x28 }
  - { offsetInCU: 0x4B46, offset: 0x10A5DC, size: 0x8, addend: 0x0, symName: __ZN4absl12lts_2024011613cord_internal9CordzInfo9TrackCordERNS1_10InlineDataENS1_18CordzUpdateTracker16MethodIdentifierE.cold.3, symObjAddr: 0xF04, symBinAddr: 0x61244, symSize: 0x28 }
  - { offsetInCU: 0x4B5E, offset: 0x10A5F4, size: 0x8, addend: 0x0, symName: __ZN4absl12lts_2024011613cord_internal9CordzInfo9TrackCordERNS1_10InlineDataENS1_18CordzUpdateTracker16MethodIdentifierE.cold.2, symObjAddr: 0xEDC, symBinAddr: 0x6121C, symSize: 0x28 }
  - { offsetInCU: 0x4B8B, offset: 0x10A621, size: 0x8, addend: 0x0, symName: __ZN4absl12lts_2024011613cord_internal9CordzInfoC1EPNS1_7CordRepEPKS2_NS1_18CordzUpdateTracker16MethodIdentifierE, symObjAddr: 0x12C, symBinAddr: 0x2265C, symSize: 0x4 }
  - { offsetInCU: 0x4BC3, offset: 0x10A659, size: 0x8, addend: 0x0, symName: __ZN4absl12lts_2024011613cord_internal9CordzInfoC1EPNS1_7CordRepEPKS2_NS1_18CordzUpdateTracker16MethodIdentifierE, symObjAddr: 0x12C, symBinAddr: 0x2265C, symSize: 0x4 }
  - { offsetInCU: 0x4E04, offset: 0x10A89A, size: 0x8, addend: 0x0, symName: __ZN4absl12lts_2024011613cord_internal9CordzInfo9TrackCordERNS1_10InlineDataERKS3_NS1_18CordzUpdateTracker16MethodIdentifierE, symObjAddr: 0x1DC, symBinAddr: 0x2270C, symSize: 0xDC }
  - { offsetInCU: 0x50E1, offset: 0x10AB77, size: 0x8, addend: 0x0, symName: __ZN4absl12lts_2024011613cord_internal9CordzInfo7UntrackEv, symObjAddr: 0x2E4, symBinAddr: 0x227E8, symSize: 0x200 }
  - { offsetInCU: 0x50EB, offset: 0x10AB81, size: 0x8, addend: 0x0, symName: __ZN4absl12lts_2024011613cord_internal9CordzInfo7UntrackEv, symObjAddr: 0x2E4, symBinAddr: 0x227E8, symSize: 0x200 }
  - { offsetInCU: 0x573C, offset: 0x10B1D2, size: 0x8, addend: 0x0, symName: __ZN4absl12lts_2024011613cord_internal9CordzInfo9TrackCordERNS1_10InlineDataERKS3_NS1_18CordzUpdateTracker16MethodIdentifierE.cold.1, symObjAddr: 0xF2C, symBinAddr: 0x6126C, symSize: 0x28 }
  - { offsetInCU: 0x5754, offset: 0x10B1EA, size: 0x8, addend: 0x0, symName: __ZN4absl12lts_2024011613cord_internal9CordzInfo9TrackCordERNS1_10InlineDataERKS3_NS1_18CordzUpdateTracker16MethodIdentifierE.cold.2, symObjAddr: 0xF54, symBinAddr: 0x61294, symSize: 0x28 }
  - { offsetInCU: 0x576C, offset: 0x10B202, size: 0x8, addend: 0x0, symName: __ZN4absl12lts_2024011613cord_internal9CordzInfo9TrackCordERNS1_10InlineDataERKS3_NS1_18CordzUpdateTracker16MethodIdentifierE.cold.3, symObjAddr: 0xF7C, symBinAddr: 0x612BC, symSize: 0x28 }
  - { offsetInCU: 0x5964, offset: 0x10B3FA, size: 0x8, addend: 0x0, symName: __ZNK4absl12lts_2024011613cord_internal9CordzInfo8ODRCheckEv, symObjAddr: 0x844, symBinAddr: 0x22CEC, symSize: 0x28 }
  - { offsetInCU: 0x59A7, offset: 0x10B43D, size: 0x8, addend: 0x0, symName: __ZN4absl12lts_2024011613cord_internal9CordzInfo4LockENS1_18CordzUpdateTracker16MethodIdentifierE, symObjAddr: 0x86C, symBinAddr: 0x22D14, symSize: 0x44 }
  - { offsetInCU: 0x59B1, offset: 0x10B447, size: 0x8, addend: 0x0, symName: __ZN4absl12lts_2024011613base_internal14SpinLockHolderD1Ev, symObjAddr: 0x7FC, symBinAddr: 0x22CA4, symSize: 0x48 }
  - { offsetInCU: 0x5AAE, offset: 0x10B544, size: 0x8, addend: 0x0, symName: __ZN4absl12lts_2024011613cord_internal9CordzInfo18MaybeTrackCordImplERNS1_10InlineDataERKS3_NS1_18CordzUpdateTracker16MethodIdentifierE, symObjAddr: 0x4E4, symBinAddr: 0x229E8, symSize: 0x7C }
  - { offsetInCU: 0x5C98, offset: 0x10B72E, size: 0x8, addend: 0x0, symName: __ZN4absl12lts_2024011613cord_internal9CordzInfo15GetParentMethodEPKS2_, symObjAddr: 0x560, symBinAddr: 0x22A64, symSize: 0x1C }
  - { offsetInCU: 0x5CA2, offset: 0x10B738, size: 0x8, addend: 0x0, symName: __ZN4absl12lts_2024011613cord_internal9CordzInfo18MaybeTrackCordImplERNS1_10InlineDataERKS3_NS1_18CordzUpdateTracker16MethodIdentifierE.cold.1, symObjAddr: 0xFF4, symBinAddr: 0x612E4, symSize: 0x28 }
  - { offsetInCU: 0x5CD0, offset: 0x10B766, size: 0x8, addend: 0x0, symName: __ZN4absl12lts_2024011613cord_internal9CordzInfo18MaybeTrackCordImplERNS1_10InlineDataERKS3_NS1_18CordzUpdateTracker16MethodIdentifierE.cold.2, symObjAddr: 0x101C, symBinAddr: 0x6130C, symSize: 0x28 }
  - { offsetInCU: 0x5CFE, offset: 0x10B794, size: 0x8, addend: 0x0, symName: __ZN4absl12lts_2024011613cord_internal9CordzInfo18MaybeTrackCordImplERNS1_10InlineDataERKS3_NS1_18CordzUpdateTracker16MethodIdentifierE.cold.3, symObjAddr: 0x1044, symBinAddr: 0x61334, symSize: 0x28 }
  - { offsetInCU: 0x5D2C, offset: 0x10B7C2, size: 0x8, addend: 0x0, symName: __ZN4absl12lts_2024011613cord_internal9CordzInfo15GetParentMethodEPKS2_, symObjAddr: 0x560, symBinAddr: 0x22A64, symSize: 0x1C }
  - { offsetInCU: 0x5D4A, offset: 0x10B7E0, size: 0x8, addend: 0x0, symName: __ZN4absl12lts_2024011613cord_internal9CordzInfo15FillParentStackEPKS2_PPv, symObjAddr: 0x57C, symBinAddr: 0x22A80, symSize: 0x58 }
  - { offsetInCU: 0x5D73, offset: 0x10B809, size: 0x8, addend: 0x0, symName: __ZN4absl12lts_2024011613cord_internal9CordzInfoC2EPNS1_7CordRepEPKS2_NS1_18CordzUpdateTracker16MethodIdentifierE, symObjAddr: 0x5D4, symBinAddr: 0x22AD8, symSize: 0x16C }
  - { offsetInCU: 0x5D7D, offset: 0x10B813, size: 0x8, addend: 0x0, symName: __ZN4absl12lts_2024011613cord_internal9CordzInfo15FillParentStackEPKS2_PPv.cold.1, symObjAddr: 0x106C, symBinAddr: 0x6135C, symSize: 0x28 }
  - { offsetInCU: 0x6150, offset: 0x10BBE6, size: 0x8, addend: 0x0, symName: __ZN4absl12lts_2024011613cord_internal9CordzInfoD2Ev, symObjAddr: 0x740, symBinAddr: 0x22C44, symSize: 0x48 }
  - { offsetInCU: 0x626B, offset: 0x10BD01, size: 0x8, addend: 0x0, symName: __ZN4absl12lts_2024011613cord_internal9CordzInfoD1Ev, symObjAddr: 0x7E4, symBinAddr: 0x22C8C, symSize: 0x4 }
  - { offsetInCU: 0x628E, offset: 0x10BD24, size: 0x8, addend: 0x0, symName: __ZN4absl12lts_2024011613cord_internal9CordzInfoD1Ev, symObjAddr: 0x7E4, symBinAddr: 0x22C8C, symSize: 0x4 }
  - { offsetInCU: 0x62BD, offset: 0x10BD53, size: 0x8, addend: 0x0, symName: __ZN4absl12lts_2024011613cord_internal9CordzInfoD0Ev, symObjAddr: 0x7E8, symBinAddr: 0x22C90, symSize: 0x14 }
  - { offsetInCU: 0x631B, offset: 0x10BDB1, size: 0x8, addend: 0x0, symName: __ZNK4absl12lts_2024011613cord_internal9CordzInfo8ODRCheckEv.cold.1, symObjAddr: 0x10E4, symBinAddr: 0x61384, symSize: 0x5C }
  - { offsetInCU: 0x6333, offset: 0x10BDC9, size: 0x8, addend: 0x0, symName: __ZN4absl12lts_2024011613cord_internal9CordzInfo4LockENS1_18CordzUpdateTracker16MethodIdentifierE, symObjAddr: 0x86C, symBinAddr: 0x22D14, symSize: 0x44 }
  - { offsetInCU: 0x643A, offset: 0x10BED0, size: 0x8, addend: 0x0, symName: __ZN4absl12lts_2024011613cord_internal9CordzInfo6UnlockEv, symObjAddr: 0x8B0, symBinAddr: 0x22D58, symSize: 0x3C }
  - { offsetInCU: 0x6444, offset: 0x10BEDA, size: 0x8, addend: 0x0, symName: __ZN4absl12lts_2024011613cord_internal9CordzInfo4LockENS1_18CordzUpdateTracker16MethodIdentifierE.cold.1, symObjAddr: 0x1140, symBinAddr: 0x613E0, symSize: 0x28 }
  - { offsetInCU: 0x645C, offset: 0x10BEF2, size: 0x8, addend: 0x0, symName: __ZN4absl12lts_2024011613cord_internal9CordzInfo6UnlockEv, symObjAddr: 0x8B0, symBinAddr: 0x22D58, symSize: 0x3C }
  - { offsetInCU: 0x64A6, offset: 0x10BF3C, size: 0x8, addend: 0x0, symName: __ZNK4absl12lts_2024011613cord_internal9CordzInfo8GetStackEv, symObjAddr: 0x8EC, symBinAddr: 0x22D94, symSize: 0x10 }
  - { offsetInCU: 0x64D0, offset: 0x10BF66, size: 0x8, addend: 0x0, symName: __ZNK4absl12lts_2024011613cord_internal9CordzInfo14GetParentStackEv, symObjAddr: 0x8FC, symBinAddr: 0x22DA4, symSize: 0x10 }
  - { offsetInCU: 0x675D, offset: 0x10C1F3, size: 0x8, addend: 0x0, symName: __ZNK4absl12lts_2024011613cord_internal9CordzInfo18GetCordzStatisticsEv, symObjAddr: 0x90C, symBinAddr: 0x22DB4, symSize: 0x1F8 }
  - { offsetInCU: 0x6D00, offset: 0x10C796, size: 0x8, addend: 0x0, symName: __ZNK4absl12lts_2024011613cord_internal9CordzInfo18GetCordzStatisticsEv.cold.4, symObjAddr: 0x11DC, symBinAddr: 0x6147C, symSize: 0x24 }
  - { offsetInCU: 0x6D58, offset: 0x10C7EE, size: 0x8, addend: 0x0, symName: __ZN4absl12lts_2024011613cord_internal12_GLOBAL__N_115CordRepAnalyzer15CountLinearRepsENS3_6RepRefERNS3_11MemoryUsageE, symObjAddr: 0xB04, symBinAddr: 0x22FAC, symSize: 0x1B8 }
  - { offsetInCU: 0x6F11, offset: 0x10C9A7, size: 0x8, addend: 0x0, symName: __ZN4absl12lts_2024011613cord_internal12_GLOBAL__N_115CordRepAnalyzer12AnalyzeBtreeENS3_6RepRefE, symObjAddr: 0xCBC, symBinAddr: 0x23164, symSize: 0x130 }
  - { offsetInCU: 0x6F1B, offset: 0x10C9B1, size: 0x8, addend: 0x0, symName: __ZNK4absl12lts_2024011613cord_internal9CordzInfo18GetCordzStatisticsEv.cold.2, symObjAddr: 0x1190, symBinAddr: 0x61430, symSize: 0x28 }
  - { offsetInCU: 0x6F5E, offset: 0x10C9F4, size: 0x8, addend: 0x0, symName: __ZN4absl12lts_2024011613cord_internal12_GLOBAL__N_115CordRepAnalyzer12AnalyzeBtreeENS3_6RepRefE, symObjAddr: 0xCBC, symBinAddr: 0x23164, symSize: 0x130 }
  - { offsetInCU: 0x71FE, offset: 0x10CC94, size: 0x8, addend: 0x0, symName: __ZN4absl12lts_2024011613cord_internal9CordzInfo4HeadERKNS1_13CordzSnapshotE.cold.1, symObjAddr: 0xDEC, symBinAddr: 0x6112C, symSize: 0x28 }
  - { offsetInCU: 0x7208, offset: 0x10CC9E, size: 0x8, addend: 0x0, symName: __ZNK4absl12lts_2024011613cord_internal9CordzInfo18GetCordzStatisticsEv.cold.1, symObjAddr: 0x1168, symBinAddr: 0x61408, symSize: 0x28 }
  - { offsetInCU: 0x724C, offset: 0x10CCE2, size: 0x8, addend: 0x0, symName: __ZNK4absl12lts_2024011613cord_internal9CordzInfo18GetCordzStatisticsEv.cold.3, symObjAddr: 0x11B8, symBinAddr: 0x61458, symSize: 0x24 }
  - { offsetInCU: 0x72F3, offset: 0x10CD89, size: 0x8, addend: 0x0, symName: __ZN4absl12lts_2024011613cord_internal12_GLOBAL__N_115CordRepAnalyzer15CountLinearRepsENS3_6RepRefERNS3_11MemoryUsageE.cold.2, symObjAddr: 0x1228, symBinAddr: 0x614C8, symSize: 0x24 }
  - { offsetInCU: 0x7335, offset: 0x10CDCB, size: 0x8, addend: 0x0, symName: __ZN4absl12lts_2024011613cord_internal12_GLOBAL__N_115CordRepAnalyzer15CountLinearRepsENS3_6RepRefERNS3_11MemoryUsageE.cold.1, symObjAddr: 0x1200, symBinAddr: 0x614A0, symSize: 0x28 }
  - { offsetInCU: 0x73BF, offset: 0x10CE55, size: 0x8, addend: 0x0, symName: __ZN4absl12lts_2024011613cord_internal12_GLOBAL__N_115CordRepAnalyzer12AnalyzeBtreeENS3_6RepRefE.cold.1, symObjAddr: 0x124C, symBinAddr: 0x614EC, symSize: 0x28 }
  - { offsetInCU: 0x742E, offset: 0x10CEC4, size: 0x8, addend: 0x0, symName: _OUTLINED_FUNCTION_0, symObjAddr: 0x1274, symBinAddr: 0x23294, symSize: 0x8 }
  - { offsetInCU: 0x26, offset: 0x10CF11, size: 0x8, addend: 0x0, symName: __ZN4absl12lts_2024011612crc_internal10GetCpuTypeEv, symObjAddr: 0x0, symBinAddr: 0x2329C, symSize: 0x8 }
  - { offsetInCU: 0xD4, offset: 0x10CFBF, size: 0x8, addend: 0x0, symName: __ZN4absl12lts_2024011612crc_internal10GetCpuTypeEv, symObjAddr: 0x0, symBinAddr: 0x2329C, symSize: 0x8 }
  - { offsetInCU: 0xF3, offset: 0x10CFDE, size: 0x8, addend: 0x0, symName: __ZN4absl12lts_2024011612crc_internal21SupportsArmCRC32PMULLEv, symObjAddr: 0x8, symBinAddr: 0x232A4, symSize: 0x8 }
  - { offsetInCU: 0x26, offset: 0x10F9C5, size: 0x8, addend: 0x0, symName: __ZN4absl12lts_2024011612crc_internal7CRCImpl13FillWordTableEjjiPA256_j, symObjAddr: 0x0, symBinAddr: 0x232AC, symSize: 0xC4 }
  - { offsetInCU: 0x661, offset: 0x110000, size: 0x8, addend: 0x0, symName: __ZN4absl12lts_2024011612crc_internal3CRC6Crc32cEv, symObjAddr: 0xB4C, symBinAddr: 0x23DF8, symSize: 0x70 }
  - { offsetInCU: 0x685, offset: 0x110024, size: 0x8, addend: 0x0, symName: __ZZN4absl12lts_2024011612crc_internal3CRC6Crc32cEvE9singleton, symObjAddr: 0xBB20, symBinAddr: 0x7E958, symSize: 0x0 }
  - { offsetInCU: 0x3047, offset: 0x1129E6, size: 0x8, addend: 0x0, symName: __ZN4absl12lts_2024011612crc_internal7CRCImpl13FillWordTableEjjiPA256_j, symObjAddr: 0x0, symBinAddr: 0x232AC, symSize: 0xC4 }
  - { offsetInCU: 0x3091, offset: 0x112A30, size: 0x8, addend: 0x0, symName: __ZN4absl12lts_2024011612crc_internal7CRCImpl13FillWordTableEjjiPA256_j, symObjAddr: 0x0, symBinAddr: 0x232AC, symSize: 0xC4 }
  - { offsetInCU: 0x311F, offset: 0x112ABE, size: 0x8, addend: 0x0, symName: __ZN4absl12lts_2024011612crc_internal7CRCImpl15FillZeroesTableEjPA256_j, symObjAddr: 0xC4, symBinAddr: 0x23370, symSize: 0xDC }
  - { offsetInCU: 0x3291, offset: 0x112C30, size: 0x8, addend: 0x0, symName: __ZN4absl12lts_2024011612crc_internal7CRCImpl11NewInternalEv, symObjAddr: 0x1A0, symBinAddr: 0x2344C, symSize: 0x5C }
  - { offsetInCU: 0x329B, offset: 0x112C3A, size: 0x8, addend: 0x0, symName: __ZN4absl12lts_2024011612crc_internal7CRCImpl15FillZeroesTableEjPA256_j.cold.1, symObjAddr: 0xBC4, symBinAddr: 0x61514, symSize: 0x5C }
  - { offsetInCU: 0x3322, offset: 0x112CC1, size: 0x8, addend: 0x0, symName: __ZN4absl12lts_2024011612crc_internal7CRCImpl11NewInternalEv, symObjAddr: 0x1A0, symBinAddr: 0x2344C, symSize: 0x5C }
  - { offsetInCU: 0x33A0, offset: 0x112D3F, size: 0x8, addend: 0x0, symName: __ZN4absl12lts_2024011612crc_internal5CRC3210InitTablesEv, symObjAddr: 0x1FC, symBinAddr: 0x234A8, symSize: 0x13C }
  - { offsetInCU: 0x354F, offset: 0x112EEE, size: 0x8, addend: 0x0, symName: __ZNK4absl12lts_2024011612crc_internal5CRC326ExtendEPjPKvm, symObjAddr: 0x338, symBinAddr: 0x235E4, symSize: 0x5F0 }
  - { offsetInCU: 0x3559, offset: 0x112EF8, size: 0x8, addend: 0x0, symName: __ZN4absl12lts_2024011612crc_internal5CRC3210InitTablesEv.cold.1, symObjAddr: 0xC20, symBinAddr: 0x61570, symSize: 0x5C }
  - { offsetInCU: 0x3571, offset: 0x112F10, size: 0x8, addend: 0x0, symName: __ZN4absl12lts_2024011612crc_internal5CRC3210InitTablesEv.cold.2, symObjAddr: 0xC7C, symBinAddr: 0x615CC, symSize: 0x5C }
  - { offsetInCU: 0x358E, offset: 0x112F2D, size: 0x8, addend: 0x0, symName: __ZNK4absl12lts_2024011612crc_internal5CRC326ExtendEPjPKvm, symObjAddr: 0x338, symBinAddr: 0x235E4, symSize: 0x5F0 }
  - { offsetInCU: 0x4126, offset: 0x113AC5, size: 0x8, addend: 0x0, symName: __ZN4absl12lts_2024011612crc_internal5CRC3218ExtendByZeroesImplEPjmPKjS5_, symObjAddr: 0x928, symBinAddr: 0x23BD4, symSize: 0xEC }
  - { offsetInCU: 0x4241, offset: 0x113BE0, size: 0x8, addend: 0x0, symName: __ZNK4absl12lts_2024011612crc_internal5CRC3214ExtendByZeroesEPjm, symObjAddr: 0xA14, symBinAddr: 0x23CC0, symSize: 0x18 }
  - { offsetInCU: 0x42A7, offset: 0x113C46, size: 0x8, addend: 0x0, symName: __ZNK4absl12lts_2024011612crc_internal5CRC3216UnextendByZeroesEPjm, symObjAddr: 0xA2C, symBinAddr: 0x23CD8, symSize: 0xCC }
  - { offsetInCU: 0x4383, offset: 0x113D22, size: 0x8, addend: 0x0, symName: __ZNK4absl12lts_2024011612crc_internal5CRC328ScrambleEPj, symObjAddr: 0xAF8, symBinAddr: 0x23DA4, symSize: 0x1C }
  - { offsetInCU: 0x43EE, offset: 0x113D8D, size: 0x8, addend: 0x0, symName: __ZNK4absl12lts_2024011612crc_internal5CRC3210UnscrambleEPj, symObjAddr: 0xB14, symBinAddr: 0x23DC0, symSize: 0x1C }
  - { offsetInCU: 0x446B, offset: 0x113E0A, size: 0x8, addend: 0x0, symName: __ZN4absl12lts_2024011612crc_internal3CRCD2Ev, symObjAddr: 0xB30, symBinAddr: 0x23DDC, symSize: 0x4 }
  - { offsetInCU: 0x4497, offset: 0x113E36, size: 0x8, addend: 0x0, symName: __ZN4absl12lts_2024011612crc_internal3CRCD1Ev, symObjAddr: 0xB34, symBinAddr: 0x23DE0, symSize: 0x4 }
  - { offsetInCU: 0x44C1, offset: 0x113E60, size: 0x8, addend: 0x0, symName: __ZN4absl12lts_2024011612crc_internal3CRCD0Ev, symObjAddr: 0xB38, symBinAddr: 0x23DE4, symSize: 0x4 }
  - { offsetInCU: 0x44EB, offset: 0x113E8A, size: 0x8, addend: 0x0, symName: __ZN4absl12lts_2024011612crc_internal3CRCC2Ev, symObjAddr: 0xB3C, symBinAddr: 0x23DE8, symSize: 0x10 }
  - { offsetInCU: 0x4517, offset: 0x113EB6, size: 0x8, addend: 0x0, symName: __ZN4absl12lts_2024011612crc_internal5CRC32D1Ev, symObjAddr: 0xBBC, symBinAddr: 0x23E68, symSize: 0x4 }
  - { offsetInCU: 0x4540, offset: 0x113EDF, size: 0x8, addend: 0x0, symName: __ZN4absl12lts_2024011612crc_internal5CRC32D0Ev, symObjAddr: 0xBC0, symBinAddr: 0x23E6C, symSize: 0x4 }
  - { offsetInCU: 0x26, offset: 0x113F46, size: 0x8, addend: 0x0, symName: __ZN4absl12lts_2024011612crc_internal22UnextendCrc32cByZeroesENS0_8crc32c_tEm, symObjAddr: 0x0, symBinAddr: 0x23E70, symSize: 0x4C }
  - { offsetInCU: 0x4F, offset: 0x113F6F, size: 0x8, addend: 0x0, symName: __ZN4absl12lts_2024011612_GLOBAL__N_19CrcEngineEv, symObjAddr: 0x4C, symBinAddr: 0x23EBC, symSize: 0x70 }
  - { offsetInCU: 0x79, offset: 0x113F99, size: 0x8, addend: 0x0, symName: __ZZN4absl12lts_2024011612_GLOBAL__N_19CrcEngineEvE6engine, symObjAddr: 0x99E0, symBinAddr: 0x7E968, symSize: 0x0 }
  - { offsetInCU: 0x17C, offset: 0x11409C, size: 0x8, addend: 0x0, symName: __ZN4absl12lts_2024011612crc_internal22UnextendCrc32cByZeroesENS0_8crc32c_tEm, symObjAddr: 0x0, symBinAddr: 0x23E70, symSize: 0x4C }
  - { offsetInCU: 0x1EE, offset: 0x11410E, size: 0x8, addend: 0x0, symName: __ZN4absl12lts_2024011612crc_internal20ExtendCrc32cInternalENS0_8crc32c_tENS0_11string_viewE, symObjAddr: 0xBC, symBinAddr: 0x23F2C, symSize: 0x54 }
  - { offsetInCU: 0x31D, offset: 0x11423D, size: 0x8, addend: 0x0, symName: __ZN4absl12lts_2024011613ComputeCrc32cENS0_11string_viewE, symObjAddr: 0x110, symBinAddr: 0x23F80, symSize: 0x54 }
  - { offsetInCU: 0x3C4, offset: 0x1142E4, size: 0x8, addend: 0x0, symName: __ZN4absl12lts_2024011620ExtendCrc32cByZeroesENS0_8crc32c_tEm, symObjAddr: 0x164, symBinAddr: 0x23FD4, symSize: 0x4C }
  - { offsetInCU: 0x436, offset: 0x114356, size: 0x8, addend: 0x0, symName: __ZN4absl12lts_2024011612ConcatCrc32cENS0_8crc32c_tES1_m, symObjAddr: 0x1B0, symBinAddr: 0x24020, symSize: 0x4C }
  - { offsetInCU: 0x4CD, offset: 0x1143ED, size: 0x8, addend: 0x0, symName: __ZN4absl12lts_2024011618RemoveCrc32cPrefixENS0_8crc32c_tES1_m, symObjAddr: 0x1FC, symBinAddr: 0x2406C, symSize: 0x4C }
  - { offsetInCU: 0x56B, offset: 0x11448B, size: 0x8, addend: 0x0, symName: __ZN4absl12lts_2024011612MemcpyCrc32cEPvPKvmNS0_8crc32c_tE, symObjAddr: 0x248, symBinAddr: 0x240B8, symSize: 0xC }
  - { offsetInCU: 0x620, offset: 0x114540, size: 0x8, addend: 0x0, symName: __ZN4absl12lts_2024011618RemoveCrc32cSuffixENS0_8crc32c_tES1_m, symObjAddr: 0x254, symBinAddr: 0x240C4, symSize: 0x48 }
  - { offsetInCU: 0x11FA, offset: 0x11511A, size: 0x8, addend: 0x0, symName: __ZN4absl12lts_2024011612crc_internal9CrcMemcpy10CrcAndCopyEPvPKvmNS0_8crc32c_tEb, symObjAddr: 0x29C, symBinAddr: 0x2410C, symSize: 0xBC }
  - { offsetInCU: 0x121A, offset: 0x11513A, size: 0x8, addend: 0x0, symName: __ZZN4absl12lts_2024011612crc_internal9CrcMemcpy10CrcAndCopyEPvPKvmNS0_8crc32c_tEbE7engines, symObjAddr: 0x378, symBinAddr: 0x7E778, symSize: 0x0 }
  - { offsetInCU: 0x2934, offset: 0x119983, size: 0x8, addend: 0x0, symName: __ZN4absl12lts_2024011612crc_internal12CrcCordState17RefSharedEmptyRepEv, symObjAddr: 0x0, symBinAddr: 0x241C8, symSize: 0xCC }
  - { offsetInCU: 0x2956, offset: 0x1199A5, size: 0x8, addend: 0x0, symName: __ZZN4absl12lts_2024011612crc_internal12CrcCordState17RefSharedEmptyRepEvE5empty, symObjAddr: 0x37888, symBinAddr: 0x7E978, symSize: 0x0 }
  - { offsetInCU: 0x4E1C, offset: 0x11BE6B, size: 0x8, addend: 0x0, symName: __ZN4absl12lts_2024011612crc_internal12CrcCordState17RefSharedEmptyRepEv.cold.1, symObjAddr: 0x1C70, symBinAddr: 0x61628, symSize: 0x28 }
  - { offsetInCU: 0x4E34, offset: 0x11BE83, size: 0x8, addend: 0x0, symName: __ZN4absl12lts_2024011612crc_internal12CrcCordState17RefSharedEmptyRepEv.cold.3, symObjAddr: 0x1CC0, symBinAddr: 0x61678, symSize: 0x28 }
  - { offsetInCU: 0x4E4C, offset: 0x11BE9B, size: 0x8, addend: 0x0, symName: __ZN4absl12lts_2024011612crc_internal12CrcCordState17RefSharedEmptyRepEv.cold.2, symObjAddr: 0x1C98, symBinAddr: 0x61650, symSize: 0x28 }
  - { offsetInCU: 0x4E64, offset: 0x11BEB3, size: 0x8, addend: 0x0, symName: __ZN4absl12lts_2024011612crc_internal12CrcCordStateC2Ev, symObjAddr: 0xCC, symBinAddr: 0x24294, symSize: 0x4C }
  - { offsetInCU: 0x50D0, offset: 0x11C11F, size: 0x8, addend: 0x0, symName: __ZN4absl12lts_2024011612crc_internal12CrcCordStateC1Ev, symObjAddr: 0x118, symBinAddr: 0x242E0, symSize: 0x4C }
  - { offsetInCU: 0x5342, offset: 0x11C391, size: 0x8, addend: 0x0, symName: __ZN4absl12lts_2024011612crc_internal12CrcCordStateC2ERKS2_, symObjAddr: 0x164, symBinAddr: 0x2432C, symSize: 0x30 }
  - { offsetInCU: 0x53AF, offset: 0x11C3FE, size: 0x8, addend: 0x0, symName: __ZN4absl12lts_2024011612crc_internal12CrcCordStateC1ERKS2_, symObjAddr: 0x194, symBinAddr: 0x2435C, symSize: 0x30 }
  - { offsetInCU: 0x53BA, offset: 0x11C409, size: 0x8, addend: 0x0, symName: __ZN4absl12lts_2024011612crc_internal12CrcCordStateC2ERKS2_.cold.1, symObjAddr: 0x1CE8, symBinAddr: 0x616A0, symSize: 0x24 }
  - { offsetInCU: 0x540E, offset: 0x11C45D, size: 0x8, addend: 0x0, symName: __ZN4absl12lts_2024011612crc_internal12CrcCordStateC1ERKS2_, symObjAddr: 0x194, symBinAddr: 0x2435C, symSize: 0x30 }
  - { offsetInCU: 0x54AB, offset: 0x11C4FA, size: 0x8, addend: 0x0, symName: __ZN4absl12lts_2024011612crc_internal12CrcCordStateC2EOS2_, symObjAddr: 0x1C4, symBinAddr: 0x2438C, symSize: 0x34 }
  - { offsetInCU: 0x54B6, offset: 0x11C505, size: 0x8, addend: 0x0, symName: __ZN4absl12lts_2024011612crc_internal12CrcCordStateC1ERKS2_.cold.1, symObjAddr: 0x1D0C, symBinAddr: 0x616C4, symSize: 0x24 }
  - { offsetInCU: 0x54F8, offset: 0x11C547, size: 0x8, addend: 0x0, symName: __ZN4absl12lts_2024011612crc_internal12CrcCordStateC2EOS2_, symObjAddr: 0x1C4, symBinAddr: 0x2438C, symSize: 0x34 }
  - { offsetInCU: 0x5557, offset: 0x11C5A6, size: 0x8, addend: 0x0, symName: __ZN4absl12lts_2024011612crc_internal12CrcCordStateC1EOS2_, symObjAddr: 0x1F8, symBinAddr: 0x243C0, symSize: 0x34 }
  - { offsetInCU: 0x55C3, offset: 0x11C612, size: 0x8, addend: 0x0, symName: __ZN4absl12lts_2024011612crc_internal12CrcCordStateaSERKS2_, symObjAddr: 0x22C, symBinAddr: 0x243F4, symSize: 0x54 }
  - { offsetInCU: 0x56DB, offset: 0x11C72A, size: 0x8, addend: 0x0, symName: __ZN4absl12lts_2024011612crc_internal12CrcCordStateaSEOS2_, symObjAddr: 0x2D0, symBinAddr: 0x24448, symSize: 0x44 }
  - { offsetInCU: 0x56E6, offset: 0x11C735, size: 0x8, addend: 0x0, symName: __ZN4absl12lts_2024011612crc_internal12CrcCordStateaSERKS2_.cold.1, symObjAddr: 0x1D30, symBinAddr: 0x616E8, symSize: 0x24 }
  - { offsetInCU: 0x5996, offset: 0x11C9E5, size: 0x8, addend: 0x0, symName: __ZN4absl12lts_2024011612crc_internal12CrcCordStateaSEOS2_, symObjAddr: 0x2D0, symBinAddr: 0x24448, symSize: 0x44 }
  - { offsetInCU: 0x59E8, offset: 0x11CA37, size: 0x8, addend: 0x0, symName: __ZN4absl12lts_2024011612crc_internal12CrcCordStateD2Ev, symObjAddr: 0x314, symBinAddr: 0x2448C, symSize: 0x2C }
  - { offsetInCU: 0x5A33, offset: 0x11CA82, size: 0x8, addend: 0x0, symName: __ZN4absl12lts_2024011612crc_internal12CrcCordStateD1Ev, symObjAddr: 0x34C, symBinAddr: 0x244B8, symSize: 0x2C }
  - { offsetInCU: 0x5AF3, offset: 0x11CB42, size: 0x8, addend: 0x0, symName: __ZNK4absl12lts_2024011612crc_internal12CrcCordState8ChecksumEv, symObjAddr: 0x378, symBinAddr: 0x244E4, symSize: 0x78 }
  - { offsetInCU: 0x5B1E, offset: 0x11CB6D, size: 0x8, addend: 0x0, symName: __ZNK4absl12lts_2024011612crc_internal12CrcCordState8ChecksumEv, symObjAddr: 0x378, symBinAddr: 0x244E4, symSize: 0x78 }
  - { offsetInCU: 0x5C98, offset: 0x11CCE7, size: 0x8, addend: 0x0, symName: __ZNK4absl12lts_2024011612crc_internal12CrcCordState29NormalizedPrefixCrcAtNthChunkEm, symObjAddr: 0x3F0, symBinAddr: 0x2455C, symSize: 0x80 }
  - { offsetInCU: 0x5DA0, offset: 0x11CDEF, size: 0x8, addend: 0x0, symName: __ZN4absl12lts_2024011612crc_internal12CrcCordState9NormalizeEv, symObjAddr: 0x470, symBinAddr: 0x245DC, symSize: 0xC8 }
  - { offsetInCU: 0x5DAB, offset: 0x11CDFA, size: 0x8, addend: 0x0, symName: __ZNK4absl12lts_2024011612crc_internal12CrcCordState29NormalizedPrefixCrcAtNthChunkEm.cold.1, symObjAddr: 0x1D7C, symBinAddr: 0x6170C, symSize: 0x28 }
  - { offsetInCU: 0x5E49, offset: 0x11CE98, size: 0x8, addend: 0x0, symName: __ZN4absl12lts_2024011612crc_internal12CrcCordState9NormalizeEv, symObjAddr: 0x470, symBinAddr: 0x245DC, symSize: 0xC8 }
  - { offsetInCU: 0x6234, offset: 0x11D283, size: 0x8, addend: 0x0, symName: __ZN4absl12lts_2024011612crc_internal12CrcCordState6PoisonEv, symObjAddr: 0x5BC, symBinAddr: 0x246A4, symSize: 0xC8 }
  - { offsetInCU: 0x6448, offset: 0x11D497, size: 0x8, addend: 0x0, symName: __ZNSt3__15dequeIN4absl12lts_2024011612crc_internal12CrcCordState9PrefixCrcENS_9allocatorIS5_EEE12emplace_backIJiNS2_8crc32c_tEEEEvDpOT_, symObjAddr: 0x684, symBinAddr: 0x2476C, symSize: 0x94 }
  - { offsetInCU: 0x9CBE, offset: 0x120D0D, size: 0x8, addend: 0x0, symName: _OUTLINED_FUNCTION_0, symObjAddr: 0x1DA4, symBinAddr: 0x24800, symSize: 0x8 }
  - { offsetInCU: 0x26, offset: 0x120D64, size: 0x8, addend: 0x0, symName: __ZNK4absl12lts_2024011612crc_internal23FallbackCrcMemcpyEngine7ComputeEPvPKvmNS0_8crc32c_tE, symObjAddr: 0x0, symBinAddr: 0x24808, symSize: 0xD0 }
  - { offsetInCU: 0x3451, offset: 0x12418F, size: 0x8, addend: 0x0, symName: __ZNK4absl12lts_2024011612crc_internal23FallbackCrcMemcpyEngine7ComputeEPvPKvmNS0_8crc32c_tE, symObjAddr: 0x0, symBinAddr: 0x24808, symSize: 0xD0 }
  - { offsetInCU: 0x35F2, offset: 0x124330, size: 0x8, addend: 0x0, symName: __ZN4absl12lts_2024011612crc_internal9CrcMemcpy22GetArchSpecificEnginesEv, symObjAddr: 0xD0, symBinAddr: 0x248D8, symSize: 0x44 }
  - { offsetInCU: 0x35FC, offset: 0x12433A, size: 0x8, addend: 0x0, symName: __ZNK4absl12lts_2024011612crc_internal23FallbackCrcMemcpyEngine7ComputeEPvPKvmNS0_8crc32c_tE.cold.1, symObjAddr: 0x150, symBinAddr: 0x61734, symSize: 0x28 }
  - { offsetInCU: 0x3742, offset: 0x124480, size: 0x8, addend: 0x0, symName: __ZN4absl12lts_2024011612crc_internal9CrcMemcpy22GetArchSpecificEnginesEv, symObjAddr: 0xD0, symBinAddr: 0x248D8, symSize: 0x44 }
  - { offsetInCU: 0x3913, offset: 0x124651, size: 0x8, addend: 0x0, symName: __ZN4absl12lts_2024011612crc_internal9CrcMemcpy13GetTestEngineEii, symObjAddr: 0x114, symBinAddr: 0x2491C, symSize: 0x34 }
  - { offsetInCU: 0x3A1A, offset: 0x124758, size: 0x8, addend: 0x0, symName: __ZN4absl12lts_2024011612crc_internal23FallbackCrcMemcpyEngineD1Ev, symObjAddr: 0x148, symBinAddr: 0x24950, symSize: 0x4 }
  - { offsetInCU: 0x3A45, offset: 0x124783, size: 0x8, addend: 0x0, symName: __ZN4absl12lts_2024011612crc_internal23FallbackCrcMemcpyEngineD0Ev, symObjAddr: 0x14C, symBinAddr: 0x24954, symSize: 0x4 }
  - { offsetInCU: 0x26, offset: 0x1247DE, size: 0x8, addend: 0x0, symName: __ZNK4absl12lts_2024011612crc_internal26CrcNonTemporalMemcpyEngine7ComputeEPvPKvmNS0_8crc32c_tE, symObjAddr: 0x0, symBinAddr: 0x24958, symSize: 0x210 }
  - { offsetInCU: 0x2E1E, offset: 0x1275D6, size: 0x8, addend: 0x0, symName: __ZNK4absl12lts_2024011612crc_internal26CrcNonTemporalMemcpyEngine7ComputeEPvPKvmNS0_8crc32c_tE, symObjAddr: 0x0, symBinAddr: 0x24958, symSize: 0x210 }
  - { offsetInCU: 0x3314, offset: 0x127ACC, size: 0x8, addend: 0x0, symName: __ZNK4absl12lts_2024011612crc_internal29CrcNonTemporalMemcpyAVXEngine7ComputeEPvPKvmNS0_8crc32c_tE, symObjAddr: 0x210, symBinAddr: 0x24B68, symSize: 0xD0 }
  - { offsetInCU: 0x331E, offset: 0x127AD6, size: 0x8, addend: 0x0, symName: __ZNK4absl12lts_2024011612crc_internal26CrcNonTemporalMemcpyEngine7ComputeEPvPKvmNS0_8crc32c_tE.cold.1, symObjAddr: 0x2F0, symBinAddr: 0x6175C, symSize: 0x28 }
  - { offsetInCU: 0x33A0, offset: 0x127B58, size: 0x8, addend: 0x0, symName: __ZNK4absl12lts_2024011612crc_internal29CrcNonTemporalMemcpyAVXEngine7ComputeEPvPKvmNS0_8crc32c_tE, symObjAddr: 0x210, symBinAddr: 0x24B68, symSize: 0xD0 }
  - { offsetInCU: 0x35B1, offset: 0x127D69, size: 0x8, addend: 0x0, symName: __ZN4absl12lts_2024011612crc_internal26CrcNonTemporalMemcpyEngineD1Ev, symObjAddr: 0x2E0, symBinAddr: 0x24C38, symSize: 0x4 }
  - { offsetInCU: 0x35BB, offset: 0x127D73, size: 0x8, addend: 0x0, symName: __ZNK4absl12lts_2024011612crc_internal29CrcNonTemporalMemcpyAVXEngine7ComputeEPvPKvmNS0_8crc32c_tE.cold.1, symObjAddr: 0x318, symBinAddr: 0x61784, symSize: 0x28 }
  - { offsetInCU: 0x3628, offset: 0x127DE0, size: 0x8, addend: 0x0, symName: __ZN4absl12lts_2024011612crc_internal26CrcNonTemporalMemcpyEngineD1Ev, symObjAddr: 0x2E0, symBinAddr: 0x24C38, symSize: 0x4 }
  - { offsetInCU: 0x3653, offset: 0x127E0B, size: 0x8, addend: 0x0, symName: __ZN4absl12lts_2024011612crc_internal26CrcNonTemporalMemcpyEngineD0Ev, symObjAddr: 0x2E4, symBinAddr: 0x24C3C, symSize: 0x4 }
  - { offsetInCU: 0x367E, offset: 0x127E36, size: 0x8, addend: 0x0, symName: __ZN4absl12lts_2024011612crc_internal29CrcNonTemporalMemcpyAVXEngineD1Ev, symObjAddr: 0x2E8, symBinAddr: 0x24C40, symSize: 0x4 }
  - { offsetInCU: 0x36A9, offset: 0x127E61, size: 0x8, addend: 0x0, symName: __ZN4absl12lts_2024011612crc_internal29CrcNonTemporalMemcpyAVXEngineD0Ev, symObjAddr: 0x2EC, symBinAddr: 0x24C44, symSize: 0x4 }
  - { offsetInCU: 0x26, offset: 0x127EC6, size: 0x8, addend: 0x0, symName: __ZN4absl12lts_2024011612crc_internal36NewCRC32AcceleratedX86ARMCombinedAllEv, symObjAddr: 0x0, symBinAddr: 0x24C48, symSize: 0xC }
  - { offsetInCU: 0x3C18, offset: 0x12BAB8, size: 0x8, addend: 0x0, symName: __ZN4absl12lts_2024011612crc_internal36NewCRC32AcceleratedX86ARMCombinedAllEv, symObjAddr: 0x0, symBinAddr: 0x24C48, symSize: 0xC }
  - { offsetInCU: 0x3C3A, offset: 0x12BADA, size: 0x8, addend: 0x0, symName: __ZN4absl12lts_2024011612crc_internal36NewCRC32AcceleratedX86ARMCombinedAllEv, symObjAddr: 0x0, symBinAddr: 0x24C48, symSize: 0xC }
  - { offsetInCU: 0x3C56, offset: 0x12BAF6, size: 0x8, addend: 0x0, symName: __ZN4absl12lts_2024011612crc_internal36NewCRC32AcceleratedX86ARMCombinedAllEv, symObjAddr: 0x0, symBinAddr: 0x24C48, symSize: 0xC }
  - { offsetInCU: 0x3C71, offset: 0x12BB11, size: 0x8, addend: 0x0, symName: __ZN4absl12lts_2024011612crc_internal36TryNewCRC32AcceleratedX86ARMCombinedEv, symObjAddr: 0xC, symBinAddr: 0x24C54, symSize: 0x8 }
  - { offsetInCU: 0x26, offset: 0x12BD44, size: 0x8, addend: 0x0, symName: __ZN4absl12lts_2024011624synchronization_internal25OneTimeInitThreadIdentityEPNS0_13base_internal14ThreadIdentityE, symObjAddr: 0x0, symBinAddr: 0x24C5C, symSize: 0x2C }
  - { offsetInCU: 0x4E, offset: 0x12BD6C, size: 0x8, addend: 0x0, symName: __ZN4absl12lts_2024011624synchronization_internalL13freelist_lockE, symObjAddr: 0x1DA18, symBinAddr: 0x7E990, symSize: 0x0 }
  - { offsetInCU: 0x68, offset: 0x12BD86, size: 0x8, addend: 0x0, symName: __ZN4absl12lts_2024011624synchronization_internalL24thread_identity_freelistE, symObjAddr: 0x1DA10, symBinAddr: 0x7E988, symSize: 0x0 }
  - { offsetInCU: 0x128, offset: 0x12BE46, size: 0x8, addend: 0x0, symName: __ZN4absl12lts_2024011624synchronization_internal25OneTimeInitThreadIdentityEPNS0_13base_internal14ThreadIdentityE, symObjAddr: 0x0, symBinAddr: 0x24C5C, symSize: 0x2C }
  - { offsetInCU: 0x316, offset: 0x12C034, size: 0x8, addend: 0x0, symName: __ZN4absl12lts_2024011624synchronization_internal20CreateThreadIdentityEv, symObjAddr: 0x2C, symBinAddr: 0x24C88, symSize: 0x120 }
  - { offsetInCU: 0x81B, offset: 0x12C539, size: 0x8, addend: 0x0, symName: __ZN4absl12lts_2024011624synchronization_internalL21ReclaimThreadIdentityEPv, symObjAddr: 0x14C, symBinAddr: 0x24DA8, symSize: 0xB8 }
  - { offsetInCU: 0x26, offset: 0x12F7EF, size: 0x8, addend: 0x0, symName: __ZN4absl12lts_2024011613base_internal10CycleClock3NowEv, symObjAddr: 0x0, symBinAddr: 0x24E60, symSize: 0x4 }
  - { offsetInCU: 0x2A5F, offset: 0x132228, size: 0x8, addend: 0x0, symName: __ZN4absl12lts_2024011613base_internal10CycleClock3NowEv, symObjAddr: 0x0, symBinAddr: 0x24E60, symSize: 0x4 }
  - { offsetInCU: 0x2A75, offset: 0x13223E, size: 0x8, addend: 0x0, symName: __ZN4absl12lts_2024011613base_internal10CycleClock9FrequencyEv, symObjAddr: 0x4, symBinAddr: 0x24E64, symSize: 0xC }
  - { offsetInCU: 0x26, offset: 0x13227A, size: 0x8, addend: 0x0, symName: __ZN4absl12lts_2024011616strings_internal32CappedDamerauLevenshteinDistanceENS0_11string_viewES2_h, symObjAddr: 0x0, symBinAddr: 0x24E70, symSize: 0x258 }
  - { offsetInCU: 0x327E, offset: 0x1354D2, size: 0x8, addend: 0x0, symName: __ZN4absl12lts_2024011616strings_internal32CappedDamerauLevenshteinDistanceENS0_11string_viewES2_h, symObjAddr: 0x0, symBinAddr: 0x24E70, symSize: 0x258 }
  - { offsetInCU: 0x35C9, offset: 0x13581D, size: 0x8, addend: 0x0, symName: __ZN4absl12lts_2024011616strings_internal32CappedDamerauLevenshteinDistanceENS0_11string_viewES2_h.cold.1, symObjAddr: 0x258, symBinAddr: 0x617AC, symSize: 0x24 }
  - { offsetInCU: 0x370F, offset: 0x135963, size: 0x8, addend: 0x0, symName: __ZN4absl12lts_2024011616strings_internal32CappedDamerauLevenshteinDistanceENS0_11string_viewES2_h.cold.4, symObjAddr: 0x2C4, symBinAddr: 0x61818, symSize: 0x24 }
  - { offsetInCU: 0x3752, offset: 0x1359A6, size: 0x8, addend: 0x0, symName: __ZN4absl12lts_2024011616strings_internal32CappedDamerauLevenshteinDistanceENS0_11string_viewES2_h.cold.3, symObjAddr: 0x2A0, symBinAddr: 0x617F4, symSize: 0x24 }
  - { offsetInCU: 0x3795, offset: 0x1359E9, size: 0x8, addend: 0x0, symName: __ZN4absl12lts_2024011616strings_internal32CappedDamerauLevenshteinDistanceENS0_11string_viewES2_h.cold.2, symObjAddr: 0x27C, symBinAddr: 0x617D0, symSize: 0x24 }
  - { offsetInCU: 0x37D8, offset: 0x135A2C, size: 0x8, addend: 0x0, symName: __ZN4absl12lts_2024011616strings_internal32CappedDamerauLevenshteinDistanceENS0_11string_viewES2_h.cold.1, symObjAddr: 0x258, symBinAddr: 0x617AC, symSize: 0x24 }
  - { offsetInCU: 0x381B, offset: 0x135A6F, size: 0x8, addend: 0x0, symName: _OUTLINED_FUNCTION_0, symObjAddr: 0x2E8, symBinAddr: 0x250C8, symSize: 0x8 }
  - { offsetInCU: 0x26, offset: 0x135AB2, size: 0x8, addend: 0x0, symName: __ZN4absl12lts_2024011618debugging_internal8DemangleEPKcPcm, symObjAddr: 0x0, symBinAddr: 0x250D0, symSize: 0x128 }
  - { offsetInCU: 0x61, offset: 0x135AED, size: 0x8, addend: 0x0, symName: __ZN4absl12lts_2024011618debugging_internalL16kBuiltinTypeListE, symObjAddr: 0x3550, symBinAddr: 0x7CFF0, symSize: 0x0 }
  - { offsetInCU: 0xB1, offset: 0x135B3D, size: 0x8, addend: 0x0, symName: __ZN4absl12lts_2024011618debugging_internalL13kOperatorListE, symObjAddr: 0x3850, symBinAddr: 0x7D2F0, symSize: 0x0 }
  - { offsetInCU: 0xCB, offset: 0x135B57, size: 0x8, addend: 0x0, symName: __ZN4absl12lts_2024011618debugging_internalL17kSubstitutionListE, symObjAddr: 0x3D00, symBinAddr: 0x7D7A0, symSize: 0x0 }
  - { offsetInCU: 0x31C, offset: 0x135DA8, size: 0x8, addend: 0x0, symName: __ZN4absl12lts_2024011618debugging_internal8DemangleEPKcPcm, symObjAddr: 0x0, symBinAddr: 0x250D0, symSize: 0x128 }
  - { offsetInCU: 0x4FD, offset: 0x135F89, size: 0x8, addend: 0x0, symName: __ZN4absl12lts_2024011618debugging_internalL16ParseMangledNameEPNS1_5StateE, symObjAddr: 0x1C8, symBinAddr: 0x25298, symSize: 0x78 }
  - { offsetInCU: 0x606, offset: 0x136092, size: 0x8, addend: 0x0, symName: __ZN4absl12lts_2024011618debugging_internalL11MaybeAppendEPNS1_5StateEPKc, symObjAddr: 0x240, symBinAddr: 0x25310, symSize: 0x38 }
  - { offsetInCU: 0x6A9, offset: 0x136135, size: 0x8, addend: 0x0, symName: __ZN4absl12lts_2024011618debugging_internal14DemangleStringEPKc, symObjAddr: 0x128, symBinAddr: 0x251F8, symSize: 0xA0 }
  - { offsetInCU: 0x869, offset: 0x1362F5, size: 0x8, addend: 0x0, symName: __ZN4absl12lts_2024011618debugging_internalL17ParseTwoCharTokenEPNS1_5StateEPKc, symObjAddr: 0x278, symBinAddr: 0x25348, symSize: 0x70 }
  - { offsetInCU: 0x94C, offset: 0x1363D8, size: 0x8, addend: 0x0, symName: __ZN4absl12lts_2024011618debugging_internalL13ParseEncodingEPNS1_5StateE, symObjAddr: 0x2E8, symBinAddr: 0x253B8, symSize: 0x35C }
  - { offsetInCU: 0xDC6, offset: 0x136852, size: 0x8, addend: 0x0, symName: __ZN4absl12lts_2024011618debugging_internalL21MaybeAppendWithLengthEPNS1_5StateEPKcm, symObjAddr: 0x1C74, symBinAddr: 0x26D44, symSize: 0xD0 }
  - { offsetInCU: 0xF01, offset: 0x13698D, size: 0x8, addend: 0x0, symName: __ZN4absl12lts_2024011618debugging_internalL9ParseNameEPNS1_5StateE, symObjAddr: 0x644, symBinAddr: 0x25714, symSize: 0x27C }
  - { offsetInCU: 0x1396, offset: 0x136E22, size: 0x8, addend: 0x0, symName: __ZN4absl12lts_2024011618debugging_internalL21ParseBareFunctionTypeEPNS1_5StateE, symObjAddr: 0x8C0, symBinAddr: 0x25990, symSize: 0xE0 }
  - { offsetInCU: 0x151B, offset: 0x136FA7, size: 0x8, addend: 0x0, symName: __ZN4absl12lts_2024011618debugging_internalL17ParseOneCharTokenEPNS1_5StateEc, symObjAddr: 0xD40, symBinAddr: 0x25E10, symSize: 0x58 }
  - { offsetInCU: 0x15FE, offset: 0x13708A, size: 0x8, addend: 0x0, symName: __ZN4absl12lts_2024011618debugging_internalL14ParseCharClassEPNS1_5StateEPKc, symObjAddr: 0xF6C, symBinAddr: 0x2603C, symSize: 0x70 }
  - { offsetInCU: 0x16F1, offset: 0x13717D, size: 0x8, addend: 0x0, symName: __ZN4absl12lts_2024011618debugging_internalL9ParseTypeEPNS1_5StateE, symObjAddr: 0x13FC, symBinAddr: 0x264CC, symSize: 0x4FC }
  - { offsetInCU: 0x1F89, offset: 0x137A15, size: 0x8, addend: 0x0, symName: __ZN4absl12lts_2024011618debugging_internalL15ParseCallOffsetEPNS1_5StateE, symObjAddr: 0x2D64, symBinAddr: 0x27E34, symSize: 0x194 }
  - { offsetInCU: 0x225C, offset: 0x137CE8, size: 0x8, addend: 0x0, symName: __ZN4absl12lts_2024011618debugging_internalL11ParseNumberEPNS1_5StateEPi, symObjAddr: 0x1280, symBinAddr: 0x26350, symSize: 0xD0 }
  - { offsetInCU: 0x2482, offset: 0x137F0E, size: 0x8, addend: 0x0, symName: __ZN4absl12lts_2024011618debugging_internalL17ParseCVQualifiersEPNS1_5StateE, symObjAddr: 0xD98, symBinAddr: 0x25E68, symSize: 0x90 }
  - { offsetInCU: 0x2597, offset: 0x138023, size: 0x8, addend: 0x0, symName: __ZN4absl12lts_2024011618debugging_internalL11ParsePrefixEPNS1_5StateE, symObjAddr: 0xE28, symBinAddr: 0x25EF8, symSize: 0x144 }
  - { offsetInCU: 0x2792, offset: 0x13821E, size: 0x8, addend: 0x0, symName: __ZN4absl12lts_2024011618debugging_internalL18ParseDiscriminatorEPNS1_5StateE, symObjAddr: 0x2880, symBinAddr: 0x27950, symSize: 0x94 }
  - { offsetInCU: 0x28B7, offset: 0x138343, size: 0x8, addend: 0x0, symName: __ZN4absl12lts_2024011618debugging_internalL17ParseSubstitutionEPNS1_5StateEb, symObjAddr: 0x9A0, symBinAddr: 0x25A70, symSize: 0x1DC }
  - { offsetInCU: 0x2B1D, offset: 0x1385A9, size: 0x8, addend: 0x0, symName: __ZN4absl12lts_2024011618debugging_internalL17ParseTemplateArgsEPNS1_5StateE, symObjAddr: 0xB7C, symBinAddr: 0x25C4C, symSize: 0x100 }
  - { offsetInCU: 0x2CD6, offset: 0x138762, size: 0x8, addend: 0x0, symName: __ZN4absl12lts_2024011618debugging_internalL17ParseUnscopedNameEPNS1_5StateE, symObjAddr: 0xC7C, symBinAddr: 0x25D4C, symSize: 0xC4 }
  - { offsetInCU: 0x2E82, offset: 0x13890E, size: 0x8, addend: 0x0, symName: __ZN4absl12lts_2024011618debugging_internalL16ParseTemplateArgEPNS1_5StateE, symObjAddr: 0x2914, symBinAddr: 0x279E4, symSize: 0x140 }
  - { offsetInCU: 0x307B, offset: 0x138B07, size: 0x8, addend: 0x0, symName: __ZN4absl12lts_2024011618debugging_internalL20ParseUnqualifiedNameEPNS1_5StateE, symObjAddr: 0x2AFC, symBinAddr: 0x27BCC, symSize: 0x268 }
  - { offsetInCU: 0x3478, offset: 0x138F04, size: 0x8, addend: 0x0, symName: __ZN4absl12lts_2024011618debugging_internalL18ParseTemplateParamEPNS1_5StateE, symObjAddr: 0xFDC, symBinAddr: 0x260AC, symSize: 0xD8 }
  - { offsetInCU: 0x35DD, offset: 0x139069, size: 0x8, addend: 0x0, symName: __ZN4absl12lts_2024011618debugging_internalL20ParseUnnamedTypeNameEPNS1_5StateE, symObjAddr: 0x10B4, symBinAddr: 0x26184, symSize: 0x1CC }
  - { offsetInCU: 0x3844, offset: 0x1392D0, size: 0x8, addend: 0x0, symName: __ZN4absl12lts_2024011618debugging_internalL18MaybeAppendDecimalEPNS1_5StateEi, symObjAddr: 0x1350, symBinAddr: 0x26420, symSize: 0xAC }
  - { offsetInCU: 0x38CD, offset: 0x139359, size: 0x8, addend: 0x0, symName: __ZN4absl12lts_2024011618debugging_internalL6AppendEPNS1_5StateEPKcm, symObjAddr: 0x18F8, symBinAddr: 0x269C8, symSize: 0x58 }
  - { offsetInCU: 0x3916, offset: 0x1393A2, size: 0x8, addend: 0x0, symName: __ZN4absl12lts_2024011618debugging_internalL6AppendEPNS1_5StateEPKcm, symObjAddr: 0x18F8, symBinAddr: 0x269C8, symSize: 0x58 }
  - { offsetInCU: 0x3A4F, offset: 0x1394DB, size: 0x8, addend: 0x0, symName: __ZN4absl12lts_2024011618debugging_internalL15ParseSourceNameEPNS1_5StateE, symObjAddr: 0x1950, symBinAddr: 0x26A20, symSize: 0x180 }
  - { offsetInCU: 0x3CB1, offset: 0x13973D, size: 0x8, addend: 0x0, symName: __ZN4absl12lts_2024011618debugging_internalL15ParseExpressionEPNS1_5StateE, symObjAddr: 0x1D44, symBinAddr: 0x26E14, symSize: 0x388 }
  - { offsetInCU: 0x41DB, offset: 0x139C67, size: 0x8, addend: 0x0, symName: __ZN4absl12lts_2024011618debugging_internalL18ParseClassEnumTypeEPNS1_5StateE, symObjAddr: 0x1AD0, symBinAddr: 0x26BA0, symSize: 0x64 }
  - { offsetInCU: 0x42D0, offset: 0x139D5C, size: 0x8, addend: 0x0, symName: __ZN4absl12lts_2024011618debugging_internalL13ParseDecltypeEPNS1_5StateE, symObjAddr: 0x1B34, symBinAddr: 0x26C04, symSize: 0xC4 }
  - { offsetInCU: 0x441C, offset: 0x139EA8, size: 0x8, addend: 0x0, symName: __ZN4absl12lts_2024011618debugging_internalL26ParseTemplateTemplateParamEPNS1_5StateE, symObjAddr: 0x1BF8, symBinAddr: 0x26CC8, symSize: 0x7C }
  - { offsetInCU: 0x4666, offset: 0x13A0F2, size: 0x8, addend: 0x0, symName: __ZN4absl12lts_2024011618debugging_internalL16ParseExprPrimaryEPNS1_5StateE, symObjAddr: 0x20CC, symBinAddr: 0x2719C, symSize: 0x100 }
  - { offsetInCU: 0x4808, offset: 0x13A294, size: 0x8, addend: 0x0, symName: __ZN4absl12lts_2024011618debugging_internalL17ParseOperatorNameEPNS1_5StateEPi, symObjAddr: 0x21CC, symBinAddr: 0x2729C, symSize: 0x24C }
  - { offsetInCU: 0x4B12, offset: 0x13A59E, size: 0x8, addend: 0x0, symName: __ZN4absl12lts_2024011618debugging_internalL19ParseUnresolvedNameEPNS1_5StateE, symObjAddr: 0x2418, symBinAddr: 0x274E8, symSize: 0x220 }
  - { offsetInCU: 0x4F36, offset: 0x13A9C2, size: 0x8, addend: 0x0, symName: __ZN4absl12lts_2024011618debugging_internalL18ParseExprCastValueEPNS1_5StateE, symObjAddr: 0x2638, symBinAddr: 0x27708, symSize: 0x12C }
  - { offsetInCU: 0x51B1, offset: 0x13AC3D, size: 0x8, addend: 0x0, symName: __ZN4absl12lts_2024011618debugging_internalL23ParseBaseUnresolvedNameEPNS1_5StateE, symObjAddr: 0x2764, symBinAddr: 0x27834, symSize: 0x11C }
  - { offsetInCU: 0x53FA, offset: 0x13AE86, size: 0x8, addend: 0x0, symName: __ZN4absl12lts_2024011618debugging_internalL20ParseLocalSourceNameEPNS1_5StateE, symObjAddr: 0x2A54, symBinAddr: 0x27B24, symSize: 0xA8 }
  - { offsetInCU: 0x26, offset: 0x13F3C9, size: 0x8, addend: 0x0, symName: __ZN4absl12lts_2024011615random_internal24InitDiscreteDistributionEPNSt3__16vectorIdNS2_9allocatorIdEEEE, symObjAddr: 0x0, symBinAddr: 0x27FC8, symSize: 0x610 }
  - { offsetInCU: 0x543C, offset: 0x1447DF, size: 0x8, addend: 0x0, symName: __ZNSt3__119__allocate_at_leastB7v160006INS_9allocatorINS_4pairIdmEEEEEENS_19__allocation_resultINS_16allocator_traitsIT_E7pointerEEERS7_m, symObjAddr: 0x738, symBinAddr: 0x2868C, symSize: 0x34 }
  - { offsetInCU: 0x54ED, offset: 0x144890, size: 0x8, addend: 0x0, symName: __ZNSt3__119__allocate_at_leastB7v160006INS_9allocatorImEEEENS_19__allocation_resultINS_16allocator_traitsIT_E7pointerEEERS5_m, symObjAddr: 0x7A8, symBinAddr: 0x286D4, symSize: 0x34 }
  - { offsetInCU: 0x558B, offset: 0x14492E, size: 0x8, addend: 0x0, symName: __ZN4absl12lts_2024011615random_internal24InitDiscreteDistributionEPNSt3__16vectorIdNS2_9allocatorIdEEEE.cold.1, symObjAddr: 0x7DC, symBinAddr: 0x6183C, symSize: 0x28 }
  - { offsetInCU: 0x7B91, offset: 0x146F34, size: 0x8, addend: 0x0, symName: __ZN4absl12lts_2024011615random_internal24InitDiscreteDistributionEPNSt3__16vectorIdNS2_9allocatorIdEEEE, symObjAddr: 0x0, symBinAddr: 0x27FC8, symSize: 0x610 }
  - { offsetInCU: 0xA5DA, offset: 0x14997D, size: 0x8, addend: 0x0, symName: __ZNSt3__16vectorINS_4pairIdmEENS_9allocatorIS2_EEE7reserveEm, symObjAddr: 0x610, symBinAddr: 0x285D8, symSize: 0xA0 }
  - { offsetInCU: 0xA8F2, offset: 0x149C95, size: 0x8, addend: 0x0, symName: __ZNKSt3__16vectorINS_4pairIdmEENS_9allocatorIS2_EEE20__throw_length_errorB7v160006Ev, symObjAddr: 0x6B0, symBinAddr: 0x28678, symSize: 0x14 }
  - { offsetInCU: 0xA904, offset: 0x149CA7, size: 0x8, addend: 0x0, symName: __ZN4absl12lts_2024011615random_internal24InitDiscreteDistributionEPNSt3__16vectorIdNS2_9allocatorIdEEEE.cold.1, symObjAddr: 0x7DC, symBinAddr: 0x6183C, symSize: 0x28 }
  - { offsetInCU: 0xA91C, offset: 0x149CBF, size: 0x8, addend: 0x0, symName: __ZN4absl12lts_2024011615random_internal24InitDiscreteDistributionEPNSt3__16vectorIdNS2_9allocatorIdEEEE.cold.2, symObjAddr: 0x804, symBinAddr: 0x61864, symSize: 0x28 }
  - { offsetInCU: 0xA934, offset: 0x149CD7, size: 0x8, addend: 0x0, symName: __ZNKSt3__16vectorINS_4pairIdmEENS_9allocatorIS2_EEE20__throw_length_errorB7v160006Ev, symObjAddr: 0x6B0, symBinAddr: 0x28678, symSize: 0x14 }
  - { offsetInCU: 0xA968, offset: 0x149D0B, size: 0x8, addend: 0x0, symName: __ZNKSt3__16vectorImNS_9allocatorImEEE20__throw_length_errorB7v160006Ev, symObjAddr: 0x794, symBinAddr: 0x286C0, symSize: 0x14 }
  - { offsetInCU: 0xA991, offset: 0x149D34, size: 0x8, addend: 0x0, symName: __ZNSt3__119__allocate_at_leastB7v160006INS_9allocatorImEEEENS_19__allocation_resultINS_16allocator_traitsIT_E7pointerEEERS5_m, symObjAddr: 0x7A8, symBinAddr: 0x286D4, symSize: 0x34 }
  - { offsetInCU: 0x26, offset: 0x149E0D, size: 0x8, addend: 0x0, symName: __ZN4absl12lts_2024011613time_internal12IDivDurationEbNS0_8DurationES2_PS2_, symObjAddr: 0x0, symBinAddr: 0x28708, symSize: 0x3A4 }
  - { offsetInCU: 0x76, offset: 0x149E5D, size: 0x8, addend: 0x0, symName: __ZN4absl12lts_2024011612_GLOBAL__N_112kDisplayNanoE, symObjAddr: 0x1D58, symBinAddr: 0x7D860, symSize: 0x0 }
  - { offsetInCU: 0xC3, offset: 0x149EAA, size: 0x8, addend: 0x0, symName: __ZN4absl12lts_2024011612_GLOBAL__N_113kDisplayMicroE, symObjAddr: 0x1D78, symBinAddr: 0x7D880, symSize: 0x0 }
  - { offsetInCU: 0xDE, offset: 0x149EC5, size: 0x8, addend: 0x0, symName: __ZN4absl12lts_2024011612_GLOBAL__N_113kDisplayMilliE, symObjAddr: 0x1D98, symBinAddr: 0x7D8A0, symSize: 0x0 }
  - { offsetInCU: 0xF9, offset: 0x149EE0, size: 0x8, addend: 0x0, symName: __ZN4absl12lts_2024011612_GLOBAL__N_112kDisplayHourE, symObjAddr: 0x1DB8, symBinAddr: 0x7D8C0, symSize: 0x0 }
  - { offsetInCU: 0x114, offset: 0x149EFB, size: 0x8, addend: 0x0, symName: __ZN4absl12lts_2024011612_GLOBAL__N_111kDisplayMinE, symObjAddr: 0x1DD8, symBinAddr: 0x7D8E0, symSize: 0x0 }
  - { offsetInCU: 0x12F, offset: 0x149F16, size: 0x8, addend: 0x0, symName: __ZN4absl12lts_2024011612_GLOBAL__N_111kDisplaySecE, symObjAddr: 0x1DF8, symBinAddr: 0x7D900, symSize: 0x0 }
  - { offsetInCU: 0x54F, offset: 0x14A336, size: 0x8, addend: 0x0, symName: __ZN4absl12lts_2024011612_GLOBAL__N_116AppendNumberUnitEPNSt3__112basic_stringIcNS2_11char_traitsIcEENS2_9allocatorIcEEEExNS1_11DisplayUnitE, symObjAddr: 0x17A8, symBinAddr: 0x29EB0, symSize: 0x120 }
  - { offsetInCU: 0x618, offset: 0x14A3FF, size: 0x8, addend: 0x0, symName: __ZN4absl12lts_2024011612_GLOBAL__N_116AppendNumberUnitEPNSt3__112basic_stringIcNS2_11char_traitsIcEENS2_9allocatorIcEEEEdNS1_11DisplayUnitE, symObjAddr: 0x15A8, symBinAddr: 0x29CB0, symSize: 0x200 }
  - { offsetInCU: 0x97D, offset: 0x14A764, size: 0x8, addend: 0x0, symName: __ZN4absl12lts_2024011613time_internal12IDivDurationEbNS0_8DurationES2_PS2_, symObjAddr: 0x0, symBinAddr: 0x28708, symSize: 0x3A4 }
  - { offsetInCU: 0x1346, offset: 0x14B12D, size: 0x8, addend: 0x0, symName: __ZN4absl12lts_20240116ngENS0_8DurationE, symObjAddr: 0x3A4, symBinAddr: 0x28AAC, symSize: 0x50 }
  - { offsetInCU: 0x1378, offset: 0x14B15F, size: 0x8, addend: 0x0, symName: __ZN4absl12lts_20240116ngENS0_8DurationE, symObjAddr: 0x3A4, symBinAddr: 0x28AAC, symSize: 0x50 }
  - { offsetInCU: 0x1408, offset: 0x14B1EF, size: 0x8, addend: 0x0, symName: __ZN4absl12lts_2024011612FDivDurationENS0_8DurationES1_, symObjAddr: 0xBD4, symBinAddr: 0x292DC, symSize: 0x68 }
  - { offsetInCU: 0x14BB, offset: 0x14B2A2, size: 0x8, addend: 0x0, symName: __ZN4absl12lts_202401165TruncENS0_8DurationES1_, symObjAddr: 0xC3C, symBinAddr: 0x29344, symSize: 0x70 }
  - { offsetInCU: 0x15F0, offset: 0x14B3D7, size: 0x8, addend: 0x0, symName: __ZN4absl12lts_202401165FloorENS0_8DurationES1_, symObjAddr: 0xCAC, symBinAddr: 0x293B4, symSize: 0xCC }
  - { offsetInCU: 0x17A4, offset: 0x14B58B, size: 0x8, addend: 0x0, symName: __ZN4absl12lts_202401164CeilENS0_8DurationES1_, symObjAddr: 0xD78, symBinAddr: 0x29480, symSize: 0xCC }
  - { offsetInCU: 0x1931, offset: 0x14B718, size: 0x8, addend: 0x0, symName: __ZN4absl12lts_2024011620DurationFromTimespecE8timespec, symObjAddr: 0xE44, symBinAddr: 0x2954C, symSize: 0x70 }
  - { offsetInCU: 0x1A44, offset: 0x14B82B, size: 0x8, addend: 0x0, symName: __ZN4absl12lts_2024011619DurationFromTimevalE7timeval, symObjAddr: 0xEB4, symBinAddr: 0x295BC, symSize: 0x84 }
  - { offsetInCU: 0x1B78, offset: 0x14B95F, size: 0x8, addend: 0x0, symName: __ZN4absl12lts_2024011618ToInt64NanosecondsENS0_8DurationE, symObjAddr: 0xF38, symBinAddr: 0x29640, symSize: 0x54 }
  - { offsetInCU: 0x1BF1, offset: 0x14B9D8, size: 0x8, addend: 0x0, symName: __ZN4absl12lts_2024011619ToInt64MicrosecondsENS0_8DurationE, symObjAddr: 0xF8C, symBinAddr: 0x29694, symSize: 0x64 }
  - { offsetInCU: 0x1C6C, offset: 0x14BA53, size: 0x8, addend: 0x0, symName: __ZN4absl12lts_2024011619ToInt64MillisecondsENS0_8DurationE, symObjAddr: 0xFF0, symBinAddr: 0x296F8, symSize: 0x64 }
  - { offsetInCU: 0x1CE0, offset: 0x14BAC7, size: 0x8, addend: 0x0, symName: __ZN4absl12lts_2024011614ToInt64SecondsENS0_8DurationE, symObjAddr: 0x1054, symBinAddr: 0x2975C, symSize: 0x24 }
  - { offsetInCU: 0x1D3E, offset: 0x14BB25, size: 0x8, addend: 0x0, symName: __ZN4absl12lts_2024011614ToInt64MinutesENS0_8DurationE, symObjAddr: 0x1078, symBinAddr: 0x29780, symSize: 0x38 }
  - { offsetInCU: 0x1D61, offset: 0x14BB48, size: 0x8, addend: 0x0, symName: __ZN4absl12lts_2024011612ToInt64HoursENS0_8DurationE, symObjAddr: 0x10B0, symBinAddr: 0x297B8, symSize: 0x3C }
  - { offsetInCU: 0x1D84, offset: 0x14BB6B, size: 0x8, addend: 0x0, symName: __ZN4absl12lts_2024011619ToDoubleNanosecondsENS0_8DurationE, symObjAddr: 0x10EC, symBinAddr: 0x297F4, symSize: 0x10 }
  - { offsetInCU: 0x1DD2, offset: 0x14BBB9, size: 0x8, addend: 0x0, symName: __ZN4absl12lts_2024011620ToDoubleMicrosecondsENS0_8DurationE, symObjAddr: 0x10FC, symBinAddr: 0x29804, symSize: 0x10 }
  - { offsetInCU: 0x1E22, offset: 0x14BC09, size: 0x8, addend: 0x0, symName: __ZN4absl12lts_2024011620ToDoubleMillisecondsENS0_8DurationE, symObjAddr: 0x110C, symBinAddr: 0x29814, symSize: 0x14 }
  - { offsetInCU: 0x1E6B, offset: 0x14BC52, size: 0x8, addend: 0x0, symName: __ZN4absl12lts_2024011615ToDoubleSecondsENS0_8DurationE, symObjAddr: 0x1120, symBinAddr: 0x29828, symSize: 0x10 }
  - { offsetInCU: 0x1EB9, offset: 0x14BCA0, size: 0x8, addend: 0x0, symName: __ZN4absl12lts_2024011615ToDoubleMinutesENS0_8DurationE, symObjAddr: 0x1130, symBinAddr: 0x29838, symSize: 0x10 }
  - { offsetInCU: 0x1F08, offset: 0x14BCEF, size: 0x8, addend: 0x0, symName: __ZN4absl12lts_2024011613ToDoubleHoursENS0_8DurationE, symObjAddr: 0x1140, symBinAddr: 0x29848, symSize: 0x10 }
  - { offsetInCU: 0x1F58, offset: 0x14BD3F, size: 0x8, addend: 0x0, symName: __ZN4absl12lts_2024011610ToTimespecENS0_8DurationE, symObjAddr: 0x1150, symBinAddr: 0x29858, symSize: 0x6C }
  - { offsetInCU: 0x2003, offset: 0x14BDEA, size: 0x8, addend: 0x0, symName: __ZN4absl12lts_202401169ToTimevalENS0_8DurationE, symObjAddr: 0x11BC, symBinAddr: 0x298C4, symSize: 0x68 }
  - { offsetInCU: 0x2063, offset: 0x14BE4A, size: 0x8, addend: 0x0, symName: __ZN4absl12lts_2024011619ToChronoNanosecondsENS0_8DurationE, symObjAddr: 0x1224, symBinAddr: 0x2992C, symSize: 0x20 }
  - { offsetInCU: 0x20F0, offset: 0x14BED7, size: 0x8, addend: 0x0, symName: __ZN4absl12lts_2024011620ToChronoMicrosecondsENS0_8DurationE, symObjAddr: 0x1244, symBinAddr: 0x2994C, symSize: 0x20 }
  - { offsetInCU: 0x217D, offset: 0x14BF64, size: 0x8, addend: 0x0, symName: __ZN4absl12lts_2024011620ToChronoMillisecondsENS0_8DurationE, symObjAddr: 0x1264, symBinAddr: 0x2996C, symSize: 0x20 }
  - { offsetInCU: 0x220A, offset: 0x14BFF1, size: 0x8, addend: 0x0, symName: __ZN4absl12lts_2024011615ToChronoSecondsENS0_8DurationE, symObjAddr: 0x1284, symBinAddr: 0x2998C, symSize: 0x30 }
  - { offsetInCU: 0x2282, offset: 0x14C069, size: 0x8, addend: 0x0, symName: __ZN4absl12lts_2024011615ToChronoMinutesENS0_8DurationE, symObjAddr: 0x12B4, symBinAddr: 0x299BC, symSize: 0x40 }
  - { offsetInCU: 0x2365, offset: 0x14C14C, size: 0x8, addend: 0x0, symName: __ZN4absl12lts_2024011613ToChronoHoursENS0_8DurationE, symObjAddr: 0x12F4, symBinAddr: 0x299FC, symSize: 0x44 }
  - { offsetInCU: 0x2454, offset: 0x14C23B, size: 0x8, addend: 0x0, symName: __ZN4absl12lts_2024011614FormatDurationENS0_8DurationE, symObjAddr: 0x1338, symBinAddr: 0x29A40, symSize: 0x270 }
  - { offsetInCU: 0x2A4E, offset: 0x14C835, size: 0x8, addend: 0x0, symName: __ZN4absl12lts_2024011613ParseDurationENS0_11string_viewEPNS0_8DurationE, symObjAddr: 0x18C8, symBinAddr: 0x29FD0, symSize: 0x3AC }
  - { offsetInCU: 0x2DB8, offset: 0x14CB9F, size: 0x8, addend: 0x0, symName: __ZN4absl12lts_2024011613AbslParseFlagENS0_11string_viewEPNS0_8DurationEPNSt3__112basic_stringIcNS4_11char_traitsIcEENS4_9allocatorIcEEEE, symObjAddr: 0x1C74, symBinAddr: 0x2A37C, symSize: 0x4 }
  - { offsetInCU: 0x2DFF, offset: 0x14CBE6, size: 0x8, addend: 0x0, symName: __ZN4absl12lts_2024011613AbslParseFlagENS0_11string_viewEPNS0_8DurationEPNSt3__112basic_stringIcNS4_11char_traitsIcEENS4_9allocatorIcEEEE, symObjAddr: 0x1C74, symBinAddr: 0x2A37C, symSize: 0x4 }
  - { offsetInCU: 0x2E1F, offset: 0x14CC06, size: 0x8, addend: 0x0, symName: __ZN4absl12lts_2024011615AbslUnparseFlagENS0_8DurationE, symObjAddr: 0x1C78, symBinAddr: 0x2A380, symSize: 0x8 }
  - { offsetInCU: 0x2E66, offset: 0x14CC4D, size: 0x8, addend: 0x0, symName: __ZN4absl12lts_202401169ParseFlagERKNSt3__112basic_stringIcNS1_11char_traitsIcEENS1_9allocatorIcEEEEPNS0_8DurationEPS7_, symObjAddr: 0x1C80, symBinAddr: 0x2A388, symSize: 0x20 }
  - { offsetInCU: 0x2F3F, offset: 0x14CD26, size: 0x8, addend: 0x0, symName: __ZN4absl12lts_2024011611UnparseFlagENS0_8DurationE, symObjAddr: 0x1CA0, symBinAddr: 0x2A3A8, symSize: 0x8 }
  - { offsetInCU: 0x7BE7, offset: 0x1519CE, size: 0x8, addend: 0x0, symName: __ZN4absl12lts_202401168DurationpLES1_, symObjAddr: 0x3F4, symBinAddr: 0x28AFC, symSize: 0xC4 }
  - { offsetInCU: 0x7CB1, offset: 0x151A98, size: 0x8, addend: 0x0, symName: __ZN4absl12lts_202401168DurationmIES1_, symObjAddr: 0x4B8, symBinAddr: 0x28BC0, symSize: 0xAC }
  - { offsetInCU: 0x7DB6, offset: 0x151B9D, size: 0x8, addend: 0x0, symName: __ZN4absl12lts_202401168DurationmLEx, symObjAddr: 0x564, symBinAddr: 0x28C6C, symSize: 0x20C }
  - { offsetInCU: 0x80F7, offset: 0x151EDE, size: 0x8, addend: 0x0, symName: __ZN4absl12lts_202401168DurationmLEd, symObjAddr: 0x770, symBinAddr: 0x28E78, symSize: 0x174 }
  - { offsetInCU: 0x8102, offset: 0x151EE9, size: 0x8, addend: 0x0, symName: __ZN4absl12lts_202401168DurationmLEx.cold.1, symObjAddr: 0x1CA8, symBinAddr: 0x6188C, symSize: 0x28 }
  - { offsetInCU: 0x81B8, offset: 0x151F9F, size: 0x8, addend: 0x0, symName: __ZN4absl12lts_202401168DurationmLEd, symObjAddr: 0x770, symBinAddr: 0x28E78, symSize: 0x174 }
  - { offsetInCU: 0x8391, offset: 0x152178, size: 0x8, addend: 0x0, symName: __ZN4absl12lts_202401168DurationdVEx, symObjAddr: 0x8E4, symBinAddr: 0x28FEC, symSize: 0x14C }
  - { offsetInCU: 0x8652, offset: 0x152439, size: 0x8, addend: 0x0, symName: __ZN4absl12lts_202401168DurationdVEd, symObjAddr: 0xA30, symBinAddr: 0x29138, symSize: 0x164 }
  - { offsetInCU: 0x8807, offset: 0x1525EE, size: 0x8, addend: 0x0, symName: __ZN4absl12lts_202401168DurationrMES1_, symObjAddr: 0xB94, symBinAddr: 0x2929C, symSize: 0x40 }
  - { offsetInCU: 0x26, offset: 0x152A74, size: 0x8, addend: 0x0, symName: __ZN4absl12lts_202401169CUnescapeENS0_11string_viewEPNSt3__112basic_stringIcNS2_11char_traitsIcEENS2_9allocatorIcEEEES9_, symObjAddr: 0x0, symBinAddr: 0x2A3B0, symSize: 0x838 }
  - { offsetInCU: 0x58, offset: 0x152AA6, size: 0x8, addend: 0x0, symName: __ZN4absl12lts_2024011612_GLOBAL__N_112kCEscapedLenE, symObjAddr: 0x1C42, symBinAddr: 0x6A922, symSize: 0x0 }
  - { offsetInCU: 0x73, offset: 0x152AC1, size: 0x8, addend: 0x0, symName: __ZN4absl12lts_2024011612_GLOBAL__N_19kUnBase64E, symObjAddr: 0x1A42, symBinAddr: 0x6A722, symSize: 0x0 }
  - { offsetInCU: 0x8E, offset: 0x152ADC, size: 0x8, addend: 0x0, symName: __ZN4absl12lts_2024011612_GLOBAL__N_116kUnWebSafeBase64E, symObjAddr: 0x1B42, symBinAddr: 0x6A822, symSize: 0x0 }
  - { offsetInCU: 0xA9, offset: 0x152AF7, size: 0x8, addend: 0x0, symName: __ZN4absl12lts_2024011612_GLOBAL__N_116kHexValueLenientE, symObjAddr: 0x1D42, symBinAddr: 0x6AA22, symSize: 0x0 }
  - { offsetInCU: 0x39E, offset: 0x152DEC, size: 0x8, addend: 0x0, symName: __ZN4absl12lts_2024011612_GLOBAL__N_115CEscapeInternalENS0_11string_viewEbb, symObjAddr: 0xB34, symBinAddr: 0x2AEE4, symSize: 0x220 }
  - { offsetInCU: 0x622, offset: 0x153070, size: 0x8, addend: 0x0, symName: __ZN4absl12lts_2024011612_GLOBAL__N_122Base64UnescapeInternalINSt3__112basic_stringIcNS3_11char_traitsIcEENS3_9allocatorIcEEEEEEbPKcmPT_PKa, symObjAddr: 0xD78, symBinAddr: 0x2B128, symSize: 0x6DC }
  - { offsetInCU: 0xA34, offset: 0x153482, size: 0x8, addend: 0x0, symName: __ZN4absl12lts_2024011621WebSafeBase64UnescapeENS0_11string_viewEPNSt3__112basic_stringIcNS2_11char_traitsIcEENS2_9allocatorIcEEEE, symObjAddr: 0x1454, symBinAddr: 0x2B804, symSize: 0xC }
  - { offsetInCU: 0xC85, offset: 0x1536D3, size: 0x8, addend: 0x0, symName: __ZN4absl12lts_2024011616strings_internal20Base64EscapeInternalINSt3__112basic_stringIcNS3_11char_traitsIcEENS3_9allocatorIcEEEEEEvPKhmPT_bPKc, symObjAddr: 0x1470, symBinAddr: 0x2B820, symSize: 0x9C }
  - { offsetInCU: 0xE19, offset: 0x153867, size: 0x8, addend: 0x0, symName: __ZN4absl12lts_2024011619WebSafeBase64EscapeENS0_11string_viewEPNSt3__112basic_stringIcNS2_11char_traitsIcEENS2_9allocatorIcEEEE, symObjAddr: 0x150C, symBinAddr: 0x2B8BC, symSize: 0x10 }
  - { offsetInCU: 0xE91, offset: 0x1538DF, size: 0x8, addend: 0x0, symName: __ZN4absl12lts_202401169CUnescapeENS0_11string_viewEPNSt3__112basic_stringIcNS2_11char_traitsIcEENS2_9allocatorIcEEEES9_, symObjAddr: 0x0, symBinAddr: 0x2A3B0, symSize: 0x838 }
  - { offsetInCU: 0x1E01, offset: 0x15484F, size: 0x8, addend: 0x0, symName: __ZN4absl12lts_202401167CEscapeENS0_11string_viewE, symObjAddr: 0x838, symBinAddr: 0x2ABE8, symSize: 0x2F0 }
  - { offsetInCU: 0x264C, offset: 0x15509A, size: 0x8, addend: 0x0, symName: __ZN4absl12lts_2024011610CHexEscapeENS0_11string_viewE, symObjAddr: 0xB28, symBinAddr: 0x2AED8, symSize: 0xC }
  - { offsetInCU: 0x26C0, offset: 0x15510E, size: 0x8, addend: 0x0, symName: __ZN4absl12lts_2024011615Utf8SafeCEscapeENS0_11string_viewE, symObjAddr: 0xD54, symBinAddr: 0x2B104, symSize: 0xC }
  - { offsetInCU: 0x2718, offset: 0x155166, size: 0x8, addend: 0x0, symName: __ZN4absl12lts_2024011618Utf8SafeCHexEscapeENS0_11string_viewE, symObjAddr: 0xD60, symBinAddr: 0x2B110, symSize: 0xC }
  - { offsetInCU: 0x2770, offset: 0x1551BE, size: 0x8, addend: 0x0, symName: __ZN4absl12lts_2024011614Base64UnescapeENS0_11string_viewEPNSt3__112basic_stringIcNS2_11char_traitsIcEENS2_9allocatorIcEEEE, symObjAddr: 0xD6C, symBinAddr: 0x2B11C, symSize: 0xC }
  - { offsetInCU: 0x27EC, offset: 0x15523A, size: 0x8, addend: 0x0, symName: __ZN4absl12lts_2024011621WebSafeBase64UnescapeENS0_11string_viewEPNSt3__112basic_stringIcNS2_11char_traitsIcEENS2_9allocatorIcEEEE, symObjAddr: 0x1454, symBinAddr: 0x2B804, symSize: 0xC }
  - { offsetInCU: 0x284C, offset: 0x15529A, size: 0x8, addend: 0x0, symName: __ZN4absl12lts_2024011612Base64EscapeENS0_11string_viewEPNSt3__112basic_stringIcNS2_11char_traitsIcEENS2_9allocatorIcEEEE, symObjAddr: 0x1460, symBinAddr: 0x2B810, symSize: 0x10 }
  - { offsetInCU: 0x28AE, offset: 0x1552FC, size: 0x8, addend: 0x0, symName: __ZN4absl12lts_2024011619WebSafeBase64EscapeENS0_11string_viewEPNSt3__112basic_stringIcNS2_11char_traitsIcEENS2_9allocatorIcEEEE, symObjAddr: 0x150C, symBinAddr: 0x2B8BC, symSize: 0x10 }
  - { offsetInCU: 0x2910, offset: 0x15535E, size: 0x8, addend: 0x0, symName: __ZN4absl12lts_2024011612Base64EscapeENS0_11string_viewE, symObjAddr: 0x151C, symBinAddr: 0x2B8CC, symSize: 0x54 }
  - { offsetInCU: 0x2AD8, offset: 0x155526, size: 0x8, addend: 0x0, symName: __ZN4absl12lts_2024011619WebSafeBase64EscapeENS0_11string_viewE, symObjAddr: 0x1570, symBinAddr: 0x2B920, symSize: 0x54 }
  - { offsetInCU: 0x2CA0, offset: 0x1556EE, size: 0x8, addend: 0x0, symName: __ZN4absl12lts_2024011616HexStringToBytesENS0_11string_viewE, symObjAddr: 0x15C4, symBinAddr: 0x2B974, symSize: 0xAC }
  - { offsetInCU: 0x2F2F, offset: 0x15597D, size: 0x8, addend: 0x0, symName: __ZN4absl12lts_2024011616BytesToHexStringENS0_11string_viewE, symObjAddr: 0x1670, symBinAddr: 0x2BA20, symSize: 0x8C }
  - { offsetInCU: 0x8369, offset: 0x15ADB7, size: 0x8, addend: 0x0, symName: __ZN4absl12lts_2024011612_GLOBAL__N_122Base64UnescapeInternalINSt3__112basic_stringIcNS3_11char_traitsIcEENS3_9allocatorIcEEEEEEbPKcmPT_PKa.cold.2, symObjAddr: 0x19D8, symBinAddr: 0x61900, symSize: 0x28 }
  - { offsetInCU: 0x8381, offset: 0x15ADCF, size: 0x8, addend: 0x0, symName: __ZN4absl12lts_2024011612_GLOBAL__N_122Base64UnescapeInternalINSt3__112basic_stringIcNS3_11char_traitsIcEENS3_9allocatorIcEEEEEEbPKcmPT_PKa.cold.1, symObjAddr: 0x198C, symBinAddr: 0x618B4, symSize: 0x4C }
  - { offsetInCU: 0x83C5, offset: 0x15AE13, size: 0x8, addend: 0x0, symName: __ZN4absl12lts_2024011616strings_internal20Base64EscapeInternalINSt3__112basic_stringIcNS3_11char_traitsIcEENS3_9allocatorIcEEEEEEvPKhmPT_bPKc.cold.1, symObjAddr: 0x1A00, symBinAddr: 0x61928, symSize: 0x28 }
  - { offsetInCU: 0x26, offset: 0x15B0B0, size: 0x8, addend: 0x0, symName: __ZN4absl12lts_2024011616strings_internal33CalculateBase64EscapedLenInternalEmb, symObjAddr: 0x0, symBinAddr: 0x2BAAC, symSize: 0x60 }
  - { offsetInCU: 0x4E, offset: 0x15B0D8, size: 0x8, addend: 0x0, symName: __ZN4absl12lts_2024011616strings_internal12kBase64CharsE, symObjAddr: 0x298, symBinAddr: 0x6AB26, symSize: 0x0 }
  - { offsetInCU: 0x68, offset: 0x15B0F2, size: 0x8, addend: 0x0, symName: __ZN4absl12lts_2024011616strings_internal19kWebSafeBase64CharsE, symObjAddr: 0x2D9, symBinAddr: 0x6AB67, symSize: 0x0 }
  - { offsetInCU: 0x76, offset: 0x15B100, size: 0x8, addend: 0x0, symName: __ZN4absl12lts_2024011616strings_internal20Base64EscapeInternalEPKhmPcmPKcb, symObjAddr: 0x60, symBinAddr: 0x2BB0C, symSize: 0x1C0 }
  - { offsetInCU: 0x326, offset: 0x15B3B0, size: 0x8, addend: 0x0, symName: __ZN4absl12lts_2024011616strings_internal33CalculateBase64EscapedLenInternalEmb.cold.1, symObjAddr: 0x220, symBinAddr: 0x61950, symSize: 0x28 }
  - { offsetInCU: 0x330, offset: 0x15B3BA, size: 0x8, addend: 0x0, symName: __ZN4absl12lts_2024011616strings_internal33CalculateBase64EscapedLenInternalEmb, symObjAddr: 0x0, symBinAddr: 0x2BAAC, symSize: 0x60 }
  - { offsetInCU: 0x382, offset: 0x15B40C, size: 0x8, addend: 0x0, symName: __ZN4absl12lts_2024011616strings_internal20Base64EscapeInternalEPKhmPcmPKcb, symObjAddr: 0x60, symBinAddr: 0x2BB0C, symSize: 0x1C0 }
  - { offsetInCU: 0x2E6C, offset: 0x15DEF6, size: 0x8, addend: 0x0, symName: __ZN4absl12lts_2024011616strings_internal33CalculateBase64EscapedLenInternalEmb.cold.1, symObjAddr: 0x220, symBinAddr: 0x61950, symSize: 0x28 }
  - { offsetInCU: 0x2E84, offset: 0x15DF0E, size: 0x8, addend: 0x0, symName: __ZN4absl12lts_2024011616strings_internal20Base64EscapeInternalEPKhmPcmPKcb.cold.1, symObjAddr: 0x248, symBinAddr: 0x61978, symSize: 0x4C }
  - { offsetInCU: 0x26, offset: 0x15DF65, size: 0x8, addend: 0x0, symName: __ZN4absl12lts_2024011618profiling_internal17ExponentialBiased12GetSkipCountEx, symObjAddr: 0x0, symBinAddr: 0x2BCCC, symSize: 0xE8 }
  - { offsetInCU: 0x10B, offset: 0x15E04A, size: 0x8, addend: 0x0, symName: __ZN4absl12lts_2024011618profiling_internal17ExponentialBiased10InitializeEv, symObjAddr: 0xE8, symBinAddr: 0x2BDB4, symSize: 0x50 }
  - { offsetInCU: 0x12F, offset: 0x15E06E, size: 0x8, addend: 0x0, symName: __ZZN4absl12lts_2024011618profiling_internal17ExponentialBiased10InitializeEvE11global_rand, symObjAddr: 0x8668, symBinAddr: 0x7E994, symSize: 0x0 }
  - { offsetInCU: 0x2C51, offset: 0x160B90, size: 0x8, addend: 0x0, symName: __ZN4absl12lts_2024011618profiling_internal17ExponentialBiased12GetSkipCountEx, symObjAddr: 0x0, symBinAddr: 0x2BCCC, symSize: 0xE8 }
  - { offsetInCU: 0x2DC2, offset: 0x160D01, size: 0x8, addend: 0x0, symName: __ZN4absl12lts_2024011618profiling_internal17ExponentialBiased9GetStrideEx, symObjAddr: 0x138, symBinAddr: 0x2BE04, symSize: 0x1C }
  - { offsetInCU: 0x26, offset: 0x160D74, size: 0x8, addend: 0x0, symName: __ZN4absl12lts_2024011619str_format_internal13FlagsToStringENS1_5FlagsE, symObjAddr: 0x0, symBinAddr: 0x2BE20, symSize: 0xCC }
  - { offsetInCU: 0x5B, offset: 0x160DA9, size: 0x8, addend: 0x0, symName: __ZN4absl12lts_2024011619str_format_internal28FormatConversionCharInternal1cE, symObjAddr: 0x378, symBinAddr: 0x6ABB0, symSize: 0x0 }
  - { offsetInCU: 0x18A, offset: 0x160ED8, size: 0x8, addend: 0x0, symName: __ZN4absl12lts_2024011619str_format_internal28FormatConversionCharInternal1sE, symObjAddr: 0x379, symBinAddr: 0x6ABB1, symSize: 0x0 }
  - { offsetInCU: 0x19E, offset: 0x160EEC, size: 0x8, addend: 0x0, symName: __ZN4absl12lts_2024011619str_format_internal28FormatConversionCharInternal1dE, symObjAddr: 0x37A, symBinAddr: 0x6ABB2, symSize: 0x0 }
  - { offsetInCU: 0x1B2, offset: 0x160F00, size: 0x8, addend: 0x0, symName: __ZN4absl12lts_2024011619str_format_internal28FormatConversionCharInternal1iE, symObjAddr: 0x37B, symBinAddr: 0x6ABB3, symSize: 0x0 }
  - { offsetInCU: 0x1C6, offset: 0x160F14, size: 0x8, addend: 0x0, symName: __ZN4absl12lts_2024011619str_format_internal28FormatConversionCharInternal1oE, symObjAddr: 0x37C, symBinAddr: 0x6ABB4, symSize: 0x0 }
  - { offsetInCU: 0x1DA, offset: 0x160F28, size: 0x8, addend: 0x0, symName: __ZN4absl12lts_2024011619str_format_internal28FormatConversionCharInternal1uE, symObjAddr: 0x37D, symBinAddr: 0x6ABB5, symSize: 0x0 }
  - { offsetInCU: 0x1EE, offset: 0x160F3C, size: 0x8, addend: 0x0, symName: __ZN4absl12lts_2024011619str_format_internal28FormatConversionCharInternal1xE, symObjAddr: 0x37E, symBinAddr: 0x6ABB6, symSize: 0x0 }
  - { offsetInCU: 0x202, offset: 0x160F50, size: 0x8, addend: 0x0, symName: __ZN4absl12lts_2024011619str_format_internal28FormatConversionCharInternal1XE, symObjAddr: 0x37F, symBinAddr: 0x6ABB7, symSize: 0x0 }
  - { offsetInCU: 0x216, offset: 0x160F64, size: 0x8, addend: 0x0, symName: __ZN4absl12lts_2024011619str_format_internal28FormatConversionCharInternal1fE, symObjAddr: 0x380, symBinAddr: 0x6ABB8, symSize: 0x0 }
  - { offsetInCU: 0x22A, offset: 0x160F78, size: 0x8, addend: 0x0, symName: __ZN4absl12lts_2024011619str_format_internal28FormatConversionCharInternal1FE, symObjAddr: 0x381, symBinAddr: 0x6ABB9, symSize: 0x0 }
  - { offsetInCU: 0x23E, offset: 0x160F8C, size: 0x8, addend: 0x0, symName: __ZN4absl12lts_2024011619str_format_internal28FormatConversionCharInternal1eE, symObjAddr: 0x382, symBinAddr: 0x6ABBA, symSize: 0x0 }
  - { offsetInCU: 0x252, offset: 0x160FA0, size: 0x8, addend: 0x0, symName: __ZN4absl12lts_2024011619str_format_internal28FormatConversionCharInternal1EE, symObjAddr: 0x383, symBinAddr: 0x6ABBB, symSize: 0x0 }
  - { offsetInCU: 0x266, offset: 0x160FB4, size: 0x8, addend: 0x0, symName: __ZN4absl12lts_2024011619str_format_internal28FormatConversionCharInternal1gE, symObjAddr: 0x384, symBinAddr: 0x6ABBC, symSize: 0x0 }
  - { offsetInCU: 0x27A, offset: 0x160FC8, size: 0x8, addend: 0x0, symName: __ZN4absl12lts_2024011619str_format_internal28FormatConversionCharInternal1GE, symObjAddr: 0x385, symBinAddr: 0x6ABBD, symSize: 0x0 }
  - { offsetInCU: 0x28E, offset: 0x160FDC, size: 0x8, addend: 0x0, symName: __ZN4absl12lts_2024011619str_format_internal28FormatConversionCharInternal1aE, symObjAddr: 0x386, symBinAddr: 0x6ABBE, symSize: 0x0 }
  - { offsetInCU: 0x2A2, offset: 0x160FF0, size: 0x8, addend: 0x0, symName: __ZN4absl12lts_2024011619str_format_internal28FormatConversionCharInternal1AE, symObjAddr: 0x387, symBinAddr: 0x6ABBF, symSize: 0x0 }
  - { offsetInCU: 0x2B6, offset: 0x161004, size: 0x8, addend: 0x0, symName: __ZN4absl12lts_2024011619str_format_internal28FormatConversionCharInternal1nE, symObjAddr: 0x388, symBinAddr: 0x6ABC0, symSize: 0x0 }
  - { offsetInCU: 0x2CA, offset: 0x161018, size: 0x8, addend: 0x0, symName: __ZN4absl12lts_2024011619str_format_internal28FormatConversionCharInternal1pE, symObjAddr: 0x389, symBinAddr: 0x6ABC1, symSize: 0x0 }
  - { offsetInCU: 0x2DE, offset: 0x16102C, size: 0x8, addend: 0x0, symName: __ZN4absl12lts_2024011619str_format_internal28FormatConversionCharInternal1vE, symObjAddr: 0x38A, symBinAddr: 0x6ABC2, symSize: 0x0 }
  - { offsetInCU: 0x2F2, offset: 0x161040, size: 0x8, addend: 0x0, symName: __ZN4absl12lts_2024011619str_format_internal28FormatConversionCharInternal5kNoneE, symObjAddr: 0x38B, symBinAddr: 0x6ABC3, symSize: 0x0 }
  - { offsetInCU: 0x306, offset: 0x161054, size: 0x8, addend: 0x0, symName: __ZN4absl12lts_2024011619str_format_internal31FormatConversionCharSetInternal1cE, symObjAddr: 0x390, symBinAddr: 0x6ABC8, symSize: 0x0 }
  - { offsetInCU: 0x491, offset: 0x1611DF, size: 0x8, addend: 0x0, symName: __ZN4absl12lts_2024011619str_format_internal31FormatConversionCharSetInternal1sE, symObjAddr: 0x398, symBinAddr: 0x6ABD0, symSize: 0x0 }
  - { offsetInCU: 0x4A5, offset: 0x1611F3, size: 0x8, addend: 0x0, symName: __ZN4absl12lts_2024011619str_format_internal31FormatConversionCharSetInternal1dE, symObjAddr: 0x3A0, symBinAddr: 0x6ABD8, symSize: 0x0 }
  - { offsetInCU: 0x4B9, offset: 0x161207, size: 0x8, addend: 0x0, symName: __ZN4absl12lts_2024011619str_format_internal31FormatConversionCharSetInternal1iE, symObjAddr: 0x3A8, symBinAddr: 0x6ABE0, symSize: 0x0 }
  - { offsetInCU: 0x4CD, offset: 0x16121B, size: 0x8, addend: 0x0, symName: __ZN4absl12lts_2024011619str_format_internal31FormatConversionCharSetInternal1oE, symObjAddr: 0x3B0, symBinAddr: 0x6ABE8, symSize: 0x0 }
  - { offsetInCU: 0x4E1, offset: 0x16122F, size: 0x8, addend: 0x0, symName: __ZN4absl12lts_2024011619str_format_internal31FormatConversionCharSetInternal1uE, symObjAddr: 0x3B8, symBinAddr: 0x6ABF0, symSize: 0x0 }
  - { offsetInCU: 0x4F5, offset: 0x161243, size: 0x8, addend: 0x0, symName: __ZN4absl12lts_2024011619str_format_internal31FormatConversionCharSetInternal1xE, symObjAddr: 0x3C0, symBinAddr: 0x6ABF8, symSize: 0x0 }
  - { offsetInCU: 0x509, offset: 0x161257, size: 0x8, addend: 0x0, symName: __ZN4absl12lts_2024011619str_format_internal31FormatConversionCharSetInternal1XE, symObjAddr: 0x3C8, symBinAddr: 0x6AC00, symSize: 0x0 }
  - { offsetInCU: 0x51D, offset: 0x16126B, size: 0x8, addend: 0x0, symName: __ZN4absl12lts_2024011619str_format_internal31FormatConversionCharSetInternal1fE, symObjAddr: 0x3D0, symBinAddr: 0x6AC08, symSize: 0x0 }
  - { offsetInCU: 0x531, offset: 0x16127F, size: 0x8, addend: 0x0, symName: __ZN4absl12lts_2024011619str_format_internal31FormatConversionCharSetInternal1FE, symObjAddr: 0x3D8, symBinAddr: 0x6AC10, symSize: 0x0 }
  - { offsetInCU: 0x545, offset: 0x161293, size: 0x8, addend: 0x0, symName: __ZN4absl12lts_2024011619str_format_internal31FormatConversionCharSetInternal1eE, symObjAddr: 0x3E0, symBinAddr: 0x6AC18, symSize: 0x0 }
  - { offsetInCU: 0x559, offset: 0x1612A7, size: 0x8, addend: 0x0, symName: __ZN4absl12lts_2024011619str_format_internal31FormatConversionCharSetInternal1EE, symObjAddr: 0x3E8, symBinAddr: 0x6AC20, symSize: 0x0 }
  - { offsetInCU: 0x56D, offset: 0x1612BB, size: 0x8, addend: 0x0, symName: __ZN4absl12lts_2024011619str_format_internal31FormatConversionCharSetInternal1gE, symObjAddr: 0x3F0, symBinAddr: 0x6AC28, symSize: 0x0 }
  - { offsetInCU: 0x581, offset: 0x1612CF, size: 0x8, addend: 0x0, symName: __ZN4absl12lts_2024011619str_format_internal31FormatConversionCharSetInternal1GE, symObjAddr: 0x3F8, symBinAddr: 0x6AC30, symSize: 0x0 }
  - { offsetInCU: 0x595, offset: 0x1612E3, size: 0x8, addend: 0x0, symName: __ZN4absl12lts_2024011619str_format_internal31FormatConversionCharSetInternal1aE, symObjAddr: 0x400, symBinAddr: 0x6AC38, symSize: 0x0 }
  - { offsetInCU: 0x5A9, offset: 0x1612F7, size: 0x8, addend: 0x0, symName: __ZN4absl12lts_2024011619str_format_internal31FormatConversionCharSetInternal1AE, symObjAddr: 0x408, symBinAddr: 0x6AC40, symSize: 0x0 }
  - { offsetInCU: 0x5BD, offset: 0x16130B, size: 0x8, addend: 0x0, symName: __ZN4absl12lts_2024011619str_format_internal31FormatConversionCharSetInternal1nE, symObjAddr: 0x410, symBinAddr: 0x6AC48, symSize: 0x0 }
  - { offsetInCU: 0x5D1, offset: 0x16131F, size: 0x8, addend: 0x0, symName: __ZN4absl12lts_2024011619str_format_internal31FormatConversionCharSetInternal1pE, symObjAddr: 0x418, symBinAddr: 0x6AC50, symSize: 0x0 }
  - { offsetInCU: 0x5E5, offset: 0x161333, size: 0x8, addend: 0x0, symName: __ZN4absl12lts_2024011619str_format_internal31FormatConversionCharSetInternal1vE, symObjAddr: 0x420, symBinAddr: 0x6AC58, symSize: 0x0 }
  - { offsetInCU: 0x5F9, offset: 0x161347, size: 0x8, addend: 0x0, symName: __ZN4absl12lts_2024011619str_format_internal31FormatConversionCharSetInternal5kStarE, symObjAddr: 0x428, symBinAddr: 0x6AC60, symSize: 0x0 }
  - { offsetInCU: 0x60D, offset: 0x16135B, size: 0x8, addend: 0x0, symName: __ZN4absl12lts_2024011619str_format_internal31FormatConversionCharSetInternal9kIntegralE, symObjAddr: 0x430, symBinAddr: 0x6AC68, symSize: 0x0 }
  - { offsetInCU: 0x621, offset: 0x16136F, size: 0x8, addend: 0x0, symName: __ZN4absl12lts_2024011619str_format_internal31FormatConversionCharSetInternal9kFloatingE, symObjAddr: 0x438, symBinAddr: 0x6AC70, symSize: 0x0 }
  - { offsetInCU: 0x635, offset: 0x161383, size: 0x8, addend: 0x0, symName: __ZN4absl12lts_2024011619str_format_internal31FormatConversionCharSetInternal8kNumericE, symObjAddr: 0x440, symBinAddr: 0x6AC78, symSize: 0x0 }
  - { offsetInCU: 0x649, offset: 0x161397, size: 0x8, addend: 0x0, symName: __ZN4absl12lts_2024011619str_format_internal31FormatConversionCharSetInternal8kPointerE, symObjAddr: 0x448, symBinAddr: 0x6AC80, symSize: 0x0 }
  - { offsetInCU: 0x657, offset: 0x1613A5, size: 0x8, addend: 0x0, symName: __ZN4absl12lts_2024011619str_format_internal13FlagsToStringENS1_5FlagsE, symObjAddr: 0x0, symBinAddr: 0x2BE20, symSize: 0xCC }
  - { offsetInCU: 0x4AF7, offset: 0x165845, size: 0x8, addend: 0x0, symName: __ZN4absl12lts_2024011619str_format_internal14FormatSinkImpl15PutPaddedStringENS0_11string_viewEiib, symObjAddr: 0xCC, symBinAddr: 0x2BEEC, symSize: 0x9C }
  - { offsetInCU: 0x4D96, offset: 0x165AE4, size: 0x8, addend: 0x0, symName: __ZN4absl12lts_2024011619str_format_internal14FormatSinkImpl15PutPaddedStringENS0_11string_viewEiib.cold.1, symObjAddr: 0x2D8, symBinAddr: 0x619C4, symSize: 0x28 }
  - { offsetInCU: 0x4ED1, offset: 0x165C1F, size: 0x8, addend: 0x0, symName: __ZN4absl12lts_2024011619str_format_internal14FormatSinkImpl15PutPaddedStringENS0_11string_viewEiib.cold.1, symObjAddr: 0x2D8, symBinAddr: 0x619C4, symSize: 0x28 }
  - { offsetInCU: 0x4F, offset: 0x165CD1, size: 0x8, addend: 0x0, symName: __ZN4absl12lts_2024011614flags_internal17kStrippedFlagHelpE, symObjAddr: 0x2A80, symBinAddr: 0x6AC88, symSize: 0x0 }
  - { offsetInCU: 0xCB3, offset: 0x166935, size: 0x8, addend: 0x0, symName: __ZN4absl12lts_2024011613base_internal11FastTypeTagIbE9dummy_varE, symObjAddr: 0x2AC3, symBinAddr: 0x6ACCB, symSize: 0x0 }
  - { offsetInCU: 0xCE7, offset: 0x166969, size: 0x8, addend: 0x0, symName: __ZN4absl12lts_2024011613base_internal11FastTypeTagIsE9dummy_varE, symObjAddr: 0x2AC4, symBinAddr: 0x6ACCC, symSize: 0x0 }
  - { offsetInCU: 0xD1B, offset: 0x16699D, size: 0x8, addend: 0x0, symName: __ZN4absl12lts_2024011613base_internal11FastTypeTagItE9dummy_varE, symObjAddr: 0x2AC5, symBinAddr: 0x6ACCD, symSize: 0x0 }
  - { offsetInCU: 0xD4F, offset: 0x1669D1, size: 0x8, addend: 0x0, symName: __ZN4absl12lts_2024011613base_internal11FastTypeTagIiE9dummy_varE, symObjAddr: 0x2AC6, symBinAddr: 0x6ACCE, symSize: 0x0 }
  - { offsetInCU: 0xD83, offset: 0x166A05, size: 0x8, addend: 0x0, symName: __ZN4absl12lts_2024011613base_internal11FastTypeTagIjE9dummy_varE, symObjAddr: 0x2AC7, symBinAddr: 0x6ACCF, symSize: 0x0 }
  - { offsetInCU: 0xDB7, offset: 0x166A39, size: 0x8, addend: 0x0, symName: __ZN4absl12lts_2024011613base_internal11FastTypeTagIlE9dummy_varE, symObjAddr: 0x2AC8, symBinAddr: 0x6ACD0, symSize: 0x0 }
  - { offsetInCU: 0xDEB, offset: 0x166A6D, size: 0x8, addend: 0x0, symName: __ZN4absl12lts_2024011613base_internal11FastTypeTagImE9dummy_varE, symObjAddr: 0x2AC9, symBinAddr: 0x6ACD1, symSize: 0x0 }
  - { offsetInCU: 0xE1F, offset: 0x166AA1, size: 0x8, addend: 0x0, symName: __ZN4absl12lts_2024011613base_internal11FastTypeTagIxE9dummy_varE, symObjAddr: 0x2ACA, symBinAddr: 0x6ACD2, symSize: 0x0 }
  - { offsetInCU: 0xE53, offset: 0x166AD5, size: 0x8, addend: 0x0, symName: __ZN4absl12lts_2024011613base_internal11FastTypeTagIyE9dummy_varE, symObjAddr: 0x2ACB, symBinAddr: 0x6ACD3, symSize: 0x0 }
  - { offsetInCU: 0xE87, offset: 0x166B09, size: 0x8, addend: 0x0, symName: __ZN4absl12lts_2024011613base_internal11FastTypeTagIdE9dummy_varE, symObjAddr: 0x2ACC, symBinAddr: 0x6ACD4, symSize: 0x0 }
  - { offsetInCU: 0xEBB, offset: 0x166B3D, size: 0x8, addend: 0x0, symName: __ZN4absl12lts_2024011613base_internal11FastTypeTagIfE9dummy_varE, symObjAddr: 0x2ACD, symBinAddr: 0x6ACD5, symSize: 0x0 }
  - { offsetInCU: 0xEEF, offset: 0x166B71, size: 0x8, addend: 0x0, symName: __ZN4absl12lts_2024011613base_internal11FastTypeTagINSt3__112basic_stringIcNS3_11char_traitsIcEENS3_9allocatorIcEEEEE9dummy_varE, symObjAddr: 0x2ACE, symBinAddr: 0x6ACD6, symSize: 0x0 }
  - { offsetInCU: 0xF23, offset: 0x166BA5, size: 0x8, addend: 0x0, symName: __ZN4absl12lts_2024011613base_internal11FastTypeTagINSt3__16vectorINS3_12basic_stringIcNS3_11char_traitsIcEENS3_9allocatorIcEEEENS8_ISA_EEEEE9dummy_varE, symObjAddr: 0x2ACF, symBinAddr: 0x6ACD7, symSize: 0x0 }
  - { offsetInCU: 0xF51, offset: 0x166BD3, size: 0x8, addend: 0x0, symName: __ZN4absl12lts_2024011613base_internal12CallOnceImplIMNS0_14flags_internal8FlagImplEFvvEJPS4_EEEvPNSt3__16atomicIjEENS1_14SchedulingModeEOT_DpOT0_, symObjAddr: 0x204C, symBinAddr: 0x2DFC8, symSize: 0x144 }
  - { offsetInCU: 0xF77, offset: 0x166BF9, size: 0x8, addend: 0x0, symName: __ZZN4absl12lts_2024011613base_internal12CallOnceImplIMNS0_14flags_internal8FlagImplEFvvEJPS4_EEEvPNSt3__16atomicIjEENS1_14SchedulingModeEOT_DpOT0_E5trans, symObjAddr: 0x2AD0, symBinAddr: 0x6ACD8, symSize: 0x0 }
  - { offsetInCU: 0x1673, offset: 0x1672F5, size: 0x8, addend: 0x0, symName: __ZN4absl12lts_202401166StrCatIJNSt3__112basic_stringIcNS2_11char_traitsIcEENS2_9allocatorIcEEEEA30_cS8_EEES8_RKNS0_8AlphaNumESC_SC_SC_SC_DpRKT_, symObjAddr: 0x1E68, symBinAddr: 0x2DDF0, symSize: 0xD4 }
  - { offsetInCU: 0x6075, offset: 0x16BCF7, size: 0x8, addend: 0x0, symName: __ZNSt3__125__throw_bad_function_callB7v160006Ev, symObjAddr: 0x2190, symBinAddr: 0x2E10C, symSize: 0x34 }
  - { offsetInCU: 0x8B9A, offset: 0x16E81C, size: 0x8, addend: 0x0, symName: __ZN4absl12lts_2024011614flags_internal15DynValueDeleterC2EPFPvNS1_6FlagOpEPKvS3_S3_E, symObjAddr: 0x0, symBinAddr: 0x2BF88, symSize: 0x8 }
  - { offsetInCU: 0x8BED, offset: 0x16E86F, size: 0x8, addend: 0x0, symName: __ZN4absl12lts_2024011614flags_internal15DynValueDeleterC1EPFPvNS1_6FlagOpEPKvS3_S3_E, symObjAddr: 0x8, symBinAddr: 0x2BF90, symSize: 0x8 }
  - { offsetInCU: 0x8C16, offset: 0x16E898, size: 0x8, addend: 0x0, symName: __ZN4absl12lts_2024011614flags_internal15DynValueDeleterC1EPFPvNS1_6FlagOpEPKvS3_S3_E, symObjAddr: 0x8, symBinAddr: 0x2BF90, symSize: 0x8 }
  - { offsetInCU: 0x8C37, offset: 0x16E8B9, size: 0x8, addend: 0x0, symName: __ZNK4absl12lts_2024011614flags_internal15DynValueDeleterclEPv, symObjAddr: 0x10, symBinAddr: 0x2BF98, symSize: 0x20 }
  - { offsetInCU: 0x8EA1, offset: 0x16EB23, size: 0x8, addend: 0x0, symName: __ZN4absl12lts_2024011614flags_internal8FlagImpl4InitEv, symObjAddr: 0x30, symBinAddr: 0x2BFB8, symSize: 0x158 }
  - { offsetInCU: 0x92A5, offset: 0x16EF27, size: 0x8, addend: 0x0, symName: __ZNK4absl12lts_2024011614flags_internal8FlagImpl17AtomicBufferValueEv, symObjAddr: 0x1CC, symBinAddr: 0x2C154, symSize: 0x4C }
  - { offsetInCU: 0x935A, offset: 0x16EFDC, size: 0x8, addend: 0x0, symName: __ZNK4absl12lts_2024011614flags_internal8FlagImpl18AlignedBufferValueEv, symObjAddr: 0x218, symBinAddr: 0x2C1A0, symSize: 0x4C }
  - { offsetInCU: 0x9364, offset: 0x16EFE6, size: 0x8, addend: 0x0, symName: __ZNK4absl12lts_2024011614flags_internal8FlagImpl12OneWordValueEv, symObjAddr: 0x188, symBinAddr: 0x2C110, symSize: 0x44 }
  - { offsetInCU: 0x9419, offset: 0x16F09B, size: 0x8, addend: 0x0, symName: __ZNK4absl12lts_2024011614flags_internal8FlagImpl17AtomicBufferValueEv, symObjAddr: 0x1CC, symBinAddr: 0x2C154, symSize: 0x4C }
  - { offsetInCU: 0x9423, offset: 0x16F0A5, size: 0x8, addend: 0x0, symName: __ZNK4absl12lts_2024011614flags_internal8FlagImpl18AlignedBufferValueEv, symObjAddr: 0x218, symBinAddr: 0x2C1A0, symSize: 0x4C }
  - { offsetInCU: 0x94D8, offset: 0x16F15A, size: 0x8, addend: 0x0, symName: __ZNK4absl12lts_2024011614flags_internal8FlagImpl9DataGuardEv, symObjAddr: 0x264, symBinAddr: 0x2C1EC, symSize: 0x5C }
  - { offsetInCU: 0x94E2, offset: 0x16F164, size: 0x8, addend: 0x0, symName: __ZN4absl12lts_2024011614flags_internal8FlagImpl4InitEv.cold.1, symObjAddr: 0x24D4, symBinAddr: 0x619EC, symSize: 0x28 }
  - { offsetInCU: 0x950F, offset: 0x16F191, size: 0x8, addend: 0x0, symName: __ZN4absl12lts_2024011614flags_internal8FlagImpl4InitEv.cold.3, symObjAddr: 0x2524, symBinAddr: 0x61A3C, symSize: 0x28 }
  - { offsetInCU: 0x9527, offset: 0x16F1A9, size: 0x8, addend: 0x0, symName: __ZN4absl12lts_2024011614flags_internal8FlagImpl4InitEv.cold.2, symObjAddr: 0x24FC, symBinAddr: 0x61A14, symSize: 0x28 }
  - { offsetInCU: 0x953F, offset: 0x16F1C1, size: 0x8, addend: 0x0, symName: __ZN4absl12lts_2024011614flags_internal8FlagImpl4InitEv.cold.4, symObjAddr: 0x254C, symBinAddr: 0x61A64, symSize: 0x28 }
  - { offsetInCU: 0x958E, offset: 0x16F210, size: 0x8, addend: 0x0, symName: __ZNK4absl12lts_2024011614flags_internal8FlagImpl12OneWordValueEv.cold.1, symObjAddr: 0x2574, symBinAddr: 0x61A8C, symSize: 0x28 }
  - { offsetInCU: 0x95DD, offset: 0x16F25F, size: 0x8, addend: 0x0, symName: __ZNK4absl12lts_2024011614flags_internal8FlagImpl17AtomicBufferValueEv.cold.1, symObjAddr: 0x259C, symBinAddr: 0x61AB4, symSize: 0x28 }
  - { offsetInCU: 0x9629, offset: 0x16F2AB, size: 0x8, addend: 0x0, symName: __ZNK4absl12lts_2024011614flags_internal8FlagImpl18AlignedBufferValueEv.cold.1, symObjAddr: 0x25C4, symBinAddr: 0x61ADC, symSize: 0x28 }
  - { offsetInCU: 0x9695, offset: 0x16F317, size: 0x8, addend: 0x0, symName: __ZNK4absl12lts_2024011614flags_internal8FlagImpl9DataGuardEv, symObjAddr: 0x264, symBinAddr: 0x2C1EC, symSize: 0x5C }
  - { offsetInCU: 0x9A15, offset: 0x16F697, size: 0x8, addend: 0x0, symName: __ZNK4absl12lts_2024011614flags_internal8FlagImpl15AssertValidTypeEPKvPFPKSt9type_infovE, symObjAddr: 0x2C0, symBinAddr: 0x2C248, symSize: 0x170 }
  - { offsetInCU: 0x9E87, offset: 0x16FB09, size: 0x8, addend: 0x0, symName: __ZNKSt9type_infoeqB7v160006ERKS_, symObjAddr: 0x430, symBinAddr: 0x2C3B8, symSize: 0x48 }
  - { offsetInCU: 0x9F43, offset: 0x16FBC5, size: 0x8, addend: 0x0, symName: __ZNK4absl12lts_2024011614flags_internal8FlagImpl4NameEv, symObjAddr: 0x478, symBinAddr: 0x2C400, symSize: 0x38 }
  - { offsetInCU: 0xA0F1, offset: 0x16FD73, size: 0x8, addend: 0x0, symName: __ZNK4absl12lts_2024011614flags_internal8FlagImpl13MakeInitValueEv, symObjAddr: 0x4B0, symBinAddr: 0x2C438, symSize: 0xB4 }
  - { offsetInCU: 0xA273, offset: 0x16FEF5, size: 0x8, addend: 0x0, symName: __ZN4absl12lts_2024011614flags_internal8FlagImpl10StoreValueEPKv, symObjAddr: 0x564, symBinAddr: 0x2C4EC, symSize: 0x128 }
  - { offsetInCU: 0xA5AD, offset: 0x17022F, size: 0x8, addend: 0x0, symName: __ZN4absl12lts_2024011614flags_internal12SequenceLock5WriteEPNSt3__16atomicIyEEPKvm, symObjAddr: 0x68C, symBinAddr: 0x2C614, symSize: 0x8C }
  - { offsetInCU: 0xA5B7, offset: 0x170239, size: 0x8, addend: 0x0, symName: __ZN4absl12lts_2024011614flags_internal8FlagImpl10StoreValueEPKv.cold.1, symObjAddr: 0x25EC, symBinAddr: 0x61B04, symSize: 0x28 }
  - { offsetInCU: 0xA5E4, offset: 0x170266, size: 0x8, addend: 0x0, symName: __ZN4absl12lts_2024011614flags_internal12SequenceLock5WriteEPNSt3__16atomicIyEEPKvm, symObjAddr: 0x68C, symBinAddr: 0x2C614, symSize: 0x8C }
  - { offsetInCU: 0xA877, offset: 0x1704F9, size: 0x8, addend: 0x0, symName: __ZNK4absl12lts_2024011614flags_internal8FlagImpl14InvokeCallbackEv, symObjAddr: 0x718, symBinAddr: 0x2C6A0, symSize: 0x98 }
  - { offsetInCU: 0xA881, offset: 0x170503, size: 0x8, addend: 0x0, symName: __ZNK4absl12lts_2024011614flags_internal8FlagImpl14InvokeCallbackEv, symObjAddr: 0x718, symBinAddr: 0x2C6A0, symSize: 0x98 }
  - { offsetInCU: 0xA9F3, offset: 0x170675, size: 0x8, addend: 0x0, symName: __ZN4absl12lts_2024011614flags_internal8FlagImpl10StoreValueEPKv.cold.2, symObjAddr: 0x2614, symBinAddr: 0x61B2C, symSize: 0x28 }
  - { offsetInCU: 0xAAA6, offset: 0x170728, size: 0x8, addend: 0x0, symName: __ZN4absl12lts_2024011614flags_internal12SequenceLock5WriteEPNSt3__16atomicIyEEPKvm.cold.1, symObjAddr: 0x263C, symBinAddr: 0x61B54, symSize: 0x28 }
  - { offsetInCU: 0xAF3C, offset: 0x170BBE, size: 0x8, addend: 0x0, symName: __ZNK4absl12lts_2024011614flags_internal8FlagImpl8FilenameEv, symObjAddr: 0x7B0, symBinAddr: 0x2C738, symSize: 0x1B8 }
  - { offsetInCU: 0xB316, offset: 0x170F98, size: 0x8, addend: 0x0, symName: __ZN4absl12lts_2024011616FlagsUsageConfigD1Ev, symObjAddr: 0x968, symBinAddr: 0x2C8F0, symSize: 0x10C }
  - { offsetInCU: 0xB635, offset: 0x1712B7, size: 0x8, addend: 0x0, symName: __ZNK4absl12lts_2024011614flags_internal8FlagImpl4HelpEv, symObjAddr: 0xA74, symBinAddr: 0x2C9FC, symSize: 0x18 }
  - { offsetInCU: 0xB661, offset: 0x1712E3, size: 0x8, addend: 0x0, symName: __ZNK4absl12lts_2024011614flags_internal8FlagImpl4HelpEv, symObjAddr: 0xA74, symBinAddr: 0x2C9FC, symSize: 0x18 }
  - { offsetInCU: 0xB8AA, offset: 0x17152C, size: 0x8, addend: 0x0, symName: __ZNK4absl12lts_2024011614flags_internal8FlagImpl6TypeIdEv, symObjAddr: 0xA8C, symBinAddr: 0x2CA14, symSize: 0x18 }
  - { offsetInCU: 0xB938, offset: 0x1715BA, size: 0x8, addend: 0x0, symName: __ZNK4absl12lts_2024011614flags_internal8FlagImpl17ModificationCountEv, symObjAddr: 0xAA4, symBinAddr: 0x2CA2C, symSize: 0x28 }
  - { offsetInCU: 0xB9C6, offset: 0x171648, size: 0x8, addend: 0x0, symName: __ZNK4absl12lts_2024011614flags_internal8FlagImpl24IsSpecifiedOnCommandLineEv, symObjAddr: 0xACC, symBinAddr: 0x2CA54, symSize: 0x3C }
  - { offsetInCU: 0xB9D0, offset: 0x171652, size: 0x8, addend: 0x0, symName: __ZNK4absl12lts_2024011614flags_internal8FlagImpl17ModificationCountEv.cold.1, symObjAddr: 0x2664, symBinAddr: 0x61B7C, symSize: 0x28 }
  - { offsetInCU: 0xB9FE, offset: 0x171680, size: 0x8, addend: 0x0, symName: __ZNK4absl12lts_2024011614flags_internal8FlagImpl24IsSpecifiedOnCommandLineEv, symObjAddr: 0xACC, symBinAddr: 0x2CA54, symSize: 0x3C }
  - { offsetInCU: 0xBB92, offset: 0x171814, size: 0x8, addend: 0x0, symName: __ZNK4absl12lts_2024011614flags_internal8FlagImpl12DefaultValueEv, symObjAddr: 0xB08, symBinAddr: 0x2CA90, symSize: 0xD8 }
  - { offsetInCU: 0xBF5F, offset: 0x171BE1, size: 0x8, addend: 0x0, symName: __ZNSt3__110unique_ptrIvN4absl12lts_2024011614flags_internal15DynValueDeleterEE5resetB7v160006EPv, symObjAddr: 0x1B7C, symBinAddr: 0x2DB04, symSize: 0x38 }
  - { offsetInCU: 0xBFF8, offset: 0x171C7A, size: 0x8, addend: 0x0, symName: __ZNK4absl12lts_2024011614flags_internal8FlagImpl12CurrentValueEv, symObjAddr: 0xBE0, symBinAddr: 0x2CB68, symSize: 0x1D0 }
  - { offsetInCU: 0xC8AA, offset: 0x17252C, size: 0x8, addend: 0x0, symName: __ZNK4absl12lts_2024011614flags_internal8FlagImpl22ReadSequenceLockedDataEPv, symObjAddr: 0xDB0, symBinAddr: 0x2CD38, symSize: 0xEC }
  - { offsetInCU: 0xCAF2, offset: 0x172774, size: 0x8, addend: 0x0, symName: __ZNK4absl12lts_2024011614flags_internal12SequenceLock7TryReadEPvPKNSt3__16atomicIyEEm, symObjAddr: 0x1158, symBinAddr: 0x2D0E0, symSize: 0x80 }
  - { offsetInCU: 0xCD51, offset: 0x1729D3, size: 0x8, addend: 0x0, symName: __ZN4absl12lts_2024011614flags_internal8FlagImpl11SetCallbackEPFvvE, symObjAddr: 0xE9C, symBinAddr: 0x2CE24, symSize: 0x7C }
  - { offsetInCU: 0xCFE5, offset: 0x172C67, size: 0x8, addend: 0x0, symName: __ZN4absl12lts_2024011614flags_internal8FlagImpl9SaveStateEv, symObjAddr: 0xF18, symBinAddr: 0x2CEA0, symSize: 0x240 }
  - { offsetInCU: 0xD53F, offset: 0x1731C1, size: 0x8, addend: 0x0, symName: __ZN4absl12lts_2024011614flags_internal8FlagImpl12RestoreStateERKNS1_9FlagStateE, symObjAddr: 0x11D8, symBinAddr: 0x2D160, symSize: 0xF4 }
  - { offsetInCU: 0xDA7A, offset: 0x1736FC, size: 0x8, addend: 0x0, symName: __ZNK4absl12lts_2024011614flags_internal8FlagImpl8TryParseENS0_11string_viewERNSt3__112basic_stringIcNS4_11char_traitsIcEENS4_9allocatorIcEEEE, symObjAddr: 0x12CC, symBinAddr: 0x2D254, symSize: 0x200 }
  - { offsetInCU: 0xE3F3, offset: 0x174075, size: 0x8, addend: 0x0, symName: __ZNK4absl12lts_2024011614flags_internal8FlagImpl4ReadEPv, symObjAddr: 0x14CC, symBinAddr: 0x2D454, symSize: 0xF0 }
  - { offsetInCU: 0xE638, offset: 0x1742BA, size: 0x8, addend: 0x0, symName: __ZNK4absl12lts_2024011614flags_internal8FlagImpl11ReadOneWordEv, symObjAddr: 0x15BC, symBinAddr: 0x2D544, symSize: 0x38 }
  - { offsetInCU: 0xE6F5, offset: 0x174377, size: 0x8, addend: 0x0, symName: __ZNK4absl12lts_2024011614flags_internal8FlagImpl11ReadOneBoolEv, symObjAddr: 0x15F4, symBinAddr: 0x2D57C, symSize: 0x40 }
  - { offsetInCU: 0xE6FF, offset: 0x174381, size: 0x8, addend: 0x0, symName: __ZNK4absl12lts_2024011614flags_internal8FlagImpl11ReadOneWordEv.cold.1, symObjAddr: 0x268C, symBinAddr: 0x61BA4, symSize: 0x28 }
  - { offsetInCU: 0xE717, offset: 0x174399, size: 0x8, addend: 0x0, symName: __ZNK4absl12lts_2024011614flags_internal8FlagImpl11ReadOneBoolEv, symObjAddr: 0x15F4, symBinAddr: 0x2D57C, symSize: 0x40 }
  - { offsetInCU: 0xE7D4, offset: 0x174456, size: 0x8, addend: 0x0, symName: __ZN4absl12lts_2024011614flags_internal8FlagImpl5WriteEPKv, symObjAddr: 0x1634, symBinAddr: 0x2D5BC, symSize: 0x334 }
  - { offsetInCU: 0xE7DE, offset: 0x174460, size: 0x8, addend: 0x0, symName: __ZNK4absl12lts_2024011614flags_internal8FlagImpl11ReadOneBoolEv.cold.1, symObjAddr: 0x26B4, symBinAddr: 0x61BCC, symSize: 0x28 }
  - { offsetInCU: 0xE86C, offset: 0x1744EE, size: 0x8, addend: 0x0, symName: __ZN4absl12lts_2024011614flags_internal8FlagImpl5WriteEPKv, symObjAddr: 0x1634, symBinAddr: 0x2D5BC, symSize: 0x334 }
  - { offsetInCU: 0xF7A4, offset: 0x175426, size: 0x8, addend: 0x0, symName: __ZN4absl12lts_2024011614flags_internal8FlagImpl9ParseFromENS0_11string_viewENS1_15FlagSettingModeENS1_11ValueSourceERNSt3__112basic_stringIcNS6_11char_traitsIcEENS6_9allocatorIcEEEE, symObjAddr: 0x1968, symBinAddr: 0x2D8F0, symSize: 0x214 }
  - { offsetInCU: 0xFCF3, offset: 0x175975, size: 0x8, addend: 0x0, symName: __ZNK4absl12lts_2024011614flags_internal8FlagImpl33CheckDefaultValueParsingRoundtripEv, symObjAddr: 0x1BB4, symBinAddr: 0x2DB3C, symSize: 0x2B4 }
  - { offsetInCU: 0x10DF0, offset: 0x176A72, size: 0x8, addend: 0x0, symName: __ZNK4absl12lts_2024011614flags_internal8FlagImpl18ValidateInputValueENS0_11string_viewE, symObjAddr: 0x1F3C, symBinAddr: 0x2DEC4, symSize: 0x104 }
  - { offsetInCU: 0x1143D, offset: 0x1770BF, size: 0x8, addend: 0x0, symName: __ZNSt3__117bad_function_callD1Ev, symObjAddr: 0x21C4, symBinAddr: 0x2E140, symSize: 0x4 }
  - { offsetInCU: 0x1145F, offset: 0x1770E1, size: 0x8, addend: 0x0, symName: __ZNSt3__117bad_function_callD1Ev, symObjAddr: 0x21C4, symBinAddr: 0x2E140, symSize: 0x4 }
  - { offsetInCU: 0x11493, offset: 0x177115, size: 0x8, addend: 0x0, symName: __ZNSt3__117bad_function_callD0Ev, symObjAddr: 0x21C8, symBinAddr: 0x2E144, symSize: 0x14 }
  - { offsetInCU: 0x11721, offset: 0x1773A3, size: 0x8, addend: 0x0, symName: __ZN4absl12lts_2024011614flags_internal9FlagStateD1Ev, symObjAddr: 0x2300, symBinAddr: 0x2E158, symSize: 0x4 }
  - { offsetInCU: 0x11743, offset: 0x1773C5, size: 0x8, addend: 0x0, symName: __ZN4absl12lts_2024011614flags_internal9FlagStateD1Ev, symObjAddr: 0x2300, symBinAddr: 0x2E158, symSize: 0x4 }
  - { offsetInCU: 0x11756, offset: 0x1773D8, size: 0x8, addend: 0x0, symName: __ZN4absl12lts_2024011614flags_internal9FlagStateD2Ev, symObjAddr: 0x247C, symBinAddr: 0x2E2D4, symSize: 0x58 }
  - { offsetInCU: 0x117F6, offset: 0x177478, size: 0x8, addend: 0x0, symName: __ZN4absl12lts_2024011614flags_internal9FlagStateD0Ev, symObjAddr: 0x2304, symBinAddr: 0x2E15C, symSize: 0x14 }
  - { offsetInCU: 0x11850, offset: 0x1774D2, size: 0x8, addend: 0x0, symName: __ZNK4absl12lts_2024011614flags_internal9FlagState7RestoreEv, symObjAddr: 0x2318, symBinAddr: 0x2E170, symSize: 0x164 }
  - { offsetInCU: 0x1C5, offset: 0x177F1B, size: 0x8, addend: 0x0, symName: __ZN4absl12lts_2024011619str_format_internal12_GLOBAL__N_122FormatFPositiveExpSlowENS0_7uint128EiRKNS2_11FormatStateE, symObjAddr: 0x1A70, symBinAddr: 0x2FD90, symSize: 0xA4 }
  - { offsetInCU: 0x412, offset: 0x178168, size: 0x8, addend: 0x0, symName: __ZN4absl12lts_2024011619str_format_internal12_GLOBAL__N_122FormatFNegativeExpSlowENS0_7uint128EiRKNS2_11FormatStateE, symObjAddr: 0x1B14, symBinAddr: 0x2FE34, symSize: 0x1C8 }
  - { offsetInCU: 0xEC6, offset: 0x178C1C, size: 0x8, addend: 0x0, symName: __ZN4absl12lts_2024011619str_format_internal12_GLOBAL__N_113FloatToBufferILNS2_11FormatStyleE1EeEEbNS2_10DecomposedIT0_EEmPNS2_6BufferEPi, symObjAddr: 0x1154, symBinAddr: 0x2F480, symSize: 0x4D8 }
  - { offsetInCU: 0x128D, offset: 0x178FE3, size: 0x8, addend: 0x0, symName: __ZN4absl12lts_2024011619str_format_internal12_GLOBAL__N_118FallbackToSnprintfIeEEbT_RKNS1_24FormatConversionSpecImplEPNS1_14FormatSinkImplE, symObjAddr: 0x162C, symBinAddr: 0x2F958, symSize: 0x220 }
  - { offsetInCU: 0x12AA, offset: 0x179000, size: 0x8, addend: 0x0, symName: __ZN4absl12lts_2024011619str_format_internal12_GLOBAL__N_118FallbackToSnprintfIeEEbT_RKNS1_24FormatConversionSpecImplEPNS1_14FormatSinkImplE, symObjAddr: 0x162C, symBinAddr: 0x2F958, symSize: 0x220 }
  - { offsetInCU: 0x1AF0, offset: 0x179846, size: 0x8, addend: 0x0, symName: __ZN4absl12lts_2024011619str_format_internal12_GLOBAL__N_132PrintIntegralDigitsFromRightFastENS0_7uint128EPc, symObjAddr: 0x2938, symBinAddr: 0x30AE8, symSize: 0xC8 }
  - { offsetInCU: 0x1C53, offset: 0x1799A9, size: 0x8, addend: 0x0, symName: __ZN4absl12lts_2024011619str_format_internal12_GLOBAL__N_125PrintFractionalDigitsFastENS0_7uint128EPcim, symObjAddr: 0x2A00, symBinAddr: 0x30BB0, symSize: 0x14C }
  - { offsetInCU: 0x1E75, offset: 0x179BCB, size: 0x8, addend: 0x0, symName: __ZN4absl12lts_2024011619str_format_internal12_GLOBAL__N_113PrintExponentEicPNS2_6BufferE, symObjAddr: 0x184C, symBinAddr: 0x2FB78, symSize: 0x158 }
  - { offsetInCU: 0x2002, offset: 0x179D58, size: 0x8, addend: 0x0, symName: __ZN4absl12lts_2024011619str_format_internal12_GLOBAL__N_117WriteBufferToSinkEcNS0_11string_viewERKNS1_24FormatConversionSpecImplEPNS1_14FormatSinkImplE, symObjAddr: 0x19A4, symBinAddr: 0x2FCD0, symSize: 0xC0 }
  - { offsetInCU: 0x200C, offset: 0x179D62, size: 0x8, addend: 0x0, symName: __ZN4absl12lts_2024011619str_format_internal12_GLOBAL__N_117WriteBufferToSinkEcNS0_11string_viewERKNS1_24FormatConversionSpecImplEPNS1_14FormatSinkImplE, symObjAddr: 0x19A4, symBinAddr: 0x2FCD0, symSize: 0xC0 }
  - { offsetInCU: 0x2172, offset: 0x179EC8, size: 0x8, addend: 0x0, symName: __ZN4absl12lts_2024011619str_format_internal12_GLOBAL__N_110FinalPrintERKNS2_11FormatStateENS0_11string_viewEmmS6_, symObjAddr: 0x2B4C, symBinAddr: 0x30CFC, symSize: 0x1D0 }
  - { offsetInCU: 0x23A7, offset: 0x17A0FD, size: 0x8, addend: 0x0, symName: __ZN4absl12lts_2024011619str_format_internal12_GLOBAL__N_111FloatToSinkIdEEbT_RKNS1_24FormatConversionSpecImplEPNS1_14FormatSinkImplE, symObjAddr: 0x8D8, symBinAddr: 0x2EC04, symSize: 0x878 }
  - { offsetInCU: 0x36B7, offset: 0x17B40D, size: 0x8, addend: 0x0, symName: __ZN4absl12lts_2024011619str_format_internal12_GLOBAL__N_113FloatToBufferILNS2_11FormatStyleE1EdEEbNS2_10DecomposedIT0_EEmPNS2_6BufferEPi, symObjAddr: 0x2FE4, symBinAddr: 0x31150, symSize: 0x4A0 }
  - { offsetInCU: 0x3A57, offset: 0x17B7AD, size: 0x8, addend: 0x0, symName: __ZN4absl12lts_2024011619str_format_internal12_GLOBAL__N_118FallbackToSnprintfIdEEbT_RKNS1_24FormatConversionSpecImplEPNS1_14FormatSinkImplE, symObjAddr: 0x3484, symBinAddr: 0x315F0, symSize: 0x20C }
  - { offsetInCU: 0x3A74, offset: 0x17B7CA, size: 0x8, addend: 0x0, symName: __ZN4absl12lts_2024011619str_format_internal12_GLOBAL__N_118FallbackToSnprintfIdEEbT_RKNS1_24FormatConversionSpecImplEPNS1_14FormatSinkImplE, symObjAddr: 0x3484, symBinAddr: 0x315F0, symSize: 0x20C }
  - { offsetInCU: 0x44DE, offset: 0x17C234, size: 0x8, addend: 0x0, symName: __ZN4absl12lts_2024011619str_format_internal12_GLOBAL__N_119PrintIntegralDigitsILNS2_11FormatStyleE1EoEEmT0_PNS2_6BufferE, symObjAddr: 0x2F10, symBinAddr: 0x3107C, symSize: 0xD4 }
  - { offsetInCU: 0x4592, offset: 0x17C2E8, size: 0x8, addend: 0x0, symName: __ZN4absl12lts_2024011619str_format_internal12_GLOBAL__N_113FloatToBufferILNS2_11FormatStyleE1EdEEbNS2_10DecomposedIT0_EEmPNS2_6BufferEPi, symObjAddr: 0x2FE4, symBinAddr: 0x31150, symSize: 0x4A0 }
  - { offsetInCU: 0x45AF, offset: 0x17C305, size: 0x8, addend: 0x0, symName: __ZN4absl12lts_2024011619str_format_internal12_GLOBAL__N_119PrintIntegralDigitsILNS2_11FormatStyleE1EyEEmT0_PNS2_6BufferE, symObjAddr: 0x2D60, symBinAddr: 0x30ECC, symSize: 0x8C }
  - { offsetInCU: 0x4663, offset: 0x17C3B9, size: 0x8, addend: 0x0, symName: __ZN4absl12lts_2024011619str_format_internal12_GLOBAL__N_120RemoveExtraPrecisionEmbPNS2_6BufferEPi, symObjAddr: 0x2DEC, symBinAddr: 0x30F58, symSize: 0x7C }
  - { offsetInCU: 0x4680, offset: 0x17C3D6, size: 0x8, addend: 0x0, symName: __ZN4absl12lts_2024011619str_format_internal12_GLOBAL__N_120RemoveExtraPrecisionEmbPNS2_6BufferEPi, symObjAddr: 0x2DEC, symBinAddr: 0x30F58, symSize: 0x7C }
  - { offsetInCU: 0x4787, offset: 0x17C4DD, size: 0x8, addend: 0x0, symName: __ZN4absl12lts_2024011619str_format_internal12_GLOBAL__N_17RoundUpILNS2_11FormatStyleE1EEEvPNS2_6BufferEPi, symObjAddr: 0x2E68, symBinAddr: 0x30FD4, symSize: 0xA8 }
  - { offsetInCU: 0x4840, offset: 0x17C596, size: 0x8, addend: 0x0, symName: __ZN4absl12lts_2024011619str_format_internal12_GLOBAL__N_119PrintIntegralDigitsILNS2_11FormatStyleE1EoEEmT0_PNS2_6BufferE, symObjAddr: 0x2F10, symBinAddr: 0x3107C, symSize: 0xD4 }
  - { offsetInCU: 0x4B89, offset: 0x17C8DF, size: 0x8, addend: 0x0, symName: __ZN4absl12lts_2024011619str_format_internal16ConvertFloatImplEeRKNS1_24FormatConversionSpecImplEPNS1_14FormatSinkImplE, symObjAddr: 0x0, symBinAddr: 0x2E32C, symSize: 0x8D0 }
  - { offsetInCU: 0x5A5E, offset: 0x17D7B4, size: 0x8, addend: 0x0, symName: __ZN4absl12lts_2024011619str_format_internal16ConvertFloatImplEfRKNS1_24FormatConversionSpecImplEPNS1_14FormatSinkImplE, symObjAddr: 0x8D0, symBinAddr: 0x2EBFC, symSize: 0x8 }
  - { offsetInCU: 0x5AC5, offset: 0x17D81B, size: 0x8, addend: 0x0, symName: __ZN4absl12lts_2024011619str_format_internal16ConvertFloatImplEdRKNS1_24FormatConversionSpecImplEPNS1_14FormatSinkImplE, symObjAddr: 0x1150, symBinAddr: 0x2F47C, symSize: 0x4 }
  - { offsetInCU: 0x5B12, offset: 0x17D868, size: 0x8, addend: 0x0, symName: __ZN4absl12lts_2024011619str_format_internal16ConvertFloatImplEdRKNS1_24FormatConversionSpecImplEPNS1_14FormatSinkImplE, symObjAddr: 0x1150, symBinAddr: 0x2F47C, symSize: 0x4 }
  - { offsetInCU: 0x5F15, offset: 0x17DC6B, size: 0x8, addend: 0x0, symName: __ZN4absl12lts_2024011619functional_internal12InvokeObjectIZNS0_19str_format_internal12_GLOBAL__N_115BinaryToDecimal13RunConversionENS0_7uint128EiNS0_11FunctionRefIFvS5_EEEEUlNS0_4SpanIjEEE_vJSB_EEET0_NS1_7VoidPtrEDpNS1_8ForwardTIT1_E4typeE, symObjAddr: 0x1FF0, symBinAddr: 0x30310, symSize: 0x248 }
  - { offsetInCU: 0x628A, offset: 0x17DFE0, size: 0x8, addend: 0x0, symName: '__ZN4absl12lts_2024011619functional_internal12InvokeObjectIZNS0_19str_format_internal12_GLOBAL__N_122FormatFPositiveExpSlowENS0_7uint128EiRKNS4_11FormatStateEE3$_0vJNS4_15BinaryToDecimalEEEET0_NS1_7VoidPtrEDpNS1_8ForwardTIT1_E4typeE', symObjAddr: 0x2284, symBinAddr: 0x305A4, symSize: 0x22C }
  - { offsetInCU: 0x663F, offset: 0x17E395, size: 0x8, addend: 0x0, symName: __ZN4absl12lts_2024011619functional_internal12InvokeObjectIZNS0_19str_format_internal12_GLOBAL__N_124FractionalDigitGenerator13RunConversionENS0_7uint128EiNS0_11FunctionRefIFvS5_EEEEUlNS0_4SpanIjEEE_vJSB_EEET0_NS1_7VoidPtrEDpNS1_8ForwardTIT1_E4typeE, symObjAddr: 0x2620, symBinAddr: 0x307D0, symSize: 0x100 }
  - { offsetInCU: 0x690B, offset: 0x17E661, size: 0x8, addend: 0x0, symName: '__ZN4absl12lts_2024011619functional_internal12InvokeObjectIZNS0_19str_format_internal12_GLOBAL__N_122FormatFNegativeExpSlowENS0_7uint128EiRKNS4_11FormatStateEE3$_1vJNS4_24FractionalDigitGeneratorEEEET0_NS1_7VoidPtrEDpNS1_8ForwardTIT1_E4typeE', symObjAddr: 0x27BC, symBinAddr: 0x3096C, symSize: 0x17C }
  - { offsetInCU: 0xBC30, offset: 0x183986, size: 0x8, addend: 0x0, symName: __ZN4absl12lts_2024011619str_format_internal16ConvertFloatImplEeRKNS1_24FormatConversionSpecImplEPNS1_14FormatSinkImplE.cold.4, symObjAddr: 0x36FC, symBinAddr: 0x61C60, symSize: 0x24 }
  - { offsetInCU: 0xBC74, offset: 0x1839CA, size: 0x8, addend: 0x0, symName: __ZN4absl12lts_2024011619str_format_internal16ConvertFloatImplEeRKNS1_24FormatConversionSpecImplEPNS1_14FormatSinkImplE.cold.7, symObjAddr: 0x376C, symBinAddr: 0x61CD0, symSize: 0x24 }
  - { offsetInCU: 0xBD0E, offset: 0x183A64, size: 0x8, addend: 0x0, symName: __ZN4absl12lts_2024011619str_format_internal16ConvertFloatImplEeRKNS1_24FormatConversionSpecImplEPNS1_14FormatSinkImplE.cold.1, symObjAddr: 0x3690, symBinAddr: 0x61BF4, symSize: 0x24 }
  - { offsetInCU: 0xBDBE, offset: 0x183B14, size: 0x8, addend: 0x0, symName: __ZN4absl12lts_2024011619str_format_internal16ConvertFloatImplEeRKNS1_24FormatConversionSpecImplEPNS1_14FormatSinkImplE.cold.6, symObjAddr: 0x3748, symBinAddr: 0x61CAC, symSize: 0x24 }
  - { offsetInCU: 0xBE58, offset: 0x183BAE, size: 0x8, addend: 0x0, symName: __ZN4absl12lts_2024011619str_format_internal16ConvertFloatImplEeRKNS1_24FormatConversionSpecImplEPNS1_14FormatSinkImplE.cold.2, symObjAddr: 0x36B4, symBinAddr: 0x61C18, symSize: 0x24 }
  - { offsetInCU: 0xBEDC, offset: 0x183C32, size: 0x8, addend: 0x0, symName: __ZN4absl12lts_2024011619str_format_internal16ConvertFloatImplEeRKNS1_24FormatConversionSpecImplEPNS1_14FormatSinkImplE.cold.5, symObjAddr: 0x3720, symBinAddr: 0x61C84, symSize: 0x28 }
  - { offsetInCU: 0xBF20, offset: 0x183C76, size: 0x8, addend: 0x0, symName: __ZN4absl12lts_2024011619str_format_internal16ConvertFloatImplEeRKNS1_24FormatConversionSpecImplEPNS1_14FormatSinkImplE.cold.3, symObjAddr: 0x36D8, symBinAddr: 0x61C3C, symSize: 0x24 }
  - { offsetInCU: 0xBFB4, offset: 0x183D0A, size: 0x8, addend: 0x0, symName: __ZN4absl12lts_2024011619str_format_internal12_GLOBAL__N_111FloatToSinkIdEEbT_RKNS1_24FormatConversionSpecImplEPNS1_14FormatSinkImplE.cold.4, symObjAddr: 0x37FC, symBinAddr: 0x61D60, symSize: 0x24 }
  - { offsetInCU: 0xBFE2, offset: 0x183D38, size: 0x8, addend: 0x0, symName: __ZN4absl12lts_2024011619str_format_internal12_GLOBAL__N_111FloatToSinkIdEEbT_RKNS1_24FormatConversionSpecImplEPNS1_14FormatSinkImplE.cold.7, symObjAddr: 0x386C, symBinAddr: 0x61DD0, symSize: 0x24 }
  - { offsetInCU: 0xC066, offset: 0x183DBC, size: 0x8, addend: 0x0, symName: __ZN4absl12lts_2024011619str_format_internal12_GLOBAL__N_111FloatToSinkIdEEbT_RKNS1_24FormatConversionSpecImplEPNS1_14FormatSinkImplE.cold.6, symObjAddr: 0x3848, symBinAddr: 0x61DAC, symSize: 0x24 }
  - { offsetInCU: 0xC0EA, offset: 0x183E40, size: 0x8, addend: 0x0, symName: __ZN4absl12lts_2024011619str_format_internal12_GLOBAL__N_111FloatToSinkIdEEbT_RKNS1_24FormatConversionSpecImplEPNS1_14FormatSinkImplE.cold.1, symObjAddr: 0x3790, symBinAddr: 0x61CF4, symSize: 0x24 }
  - { offsetInCU: 0xC184, offset: 0x183EDA, size: 0x8, addend: 0x0, symName: __ZN4absl12lts_2024011619str_format_internal12_GLOBAL__N_111FloatToSinkIdEEbT_RKNS1_24FormatConversionSpecImplEPNS1_14FormatSinkImplE.cold.2, symObjAddr: 0x37B4, symBinAddr: 0x61D18, symSize: 0x24 }
  - { offsetInCU: 0xC1F2, offset: 0x183F48, size: 0x8, addend: 0x0, symName: __ZN4absl12lts_2024011619str_format_internal12_GLOBAL__N_111FloatToSinkIdEEbT_RKNS1_24FormatConversionSpecImplEPNS1_14FormatSinkImplE.cold.5, symObjAddr: 0x3820, symBinAddr: 0x61D84, symSize: 0x28 }
  - { offsetInCU: 0xC220, offset: 0x183F76, size: 0x8, addend: 0x0, symName: __ZN4absl12lts_2024011619str_format_internal12_GLOBAL__N_111FloatToSinkIdEEbT_RKNS1_24FormatConversionSpecImplEPNS1_14FormatSinkImplE.cold.3, symObjAddr: 0x37D8, symBinAddr: 0x61D3C, symSize: 0x24 }
  - { offsetInCU: 0xC34F, offset: 0x1840A5, size: 0x8, addend: 0x0, symName: __ZN4absl12lts_2024011619str_format_internal12_GLOBAL__N_113FloatToBufferILNS2_11FormatStyleE1EeEEbNS2_10DecomposedIT0_EEmPNS2_6BufferEPi.cold.2, symObjAddr: 0x38B4, symBinAddr: 0x61E18, symSize: 0x24 }
  - { offsetInCU: 0xC393, offset: 0x1840E9, size: 0x8, addend: 0x0, symName: __ZN4absl12lts_2024011619str_format_internal12_GLOBAL__N_113FloatToBufferILNS2_11FormatStyleE1EeEEbNS2_10DecomposedIT0_EEmPNS2_6BufferEPi.cold.6, symObjAddr: 0x3944, symBinAddr: 0x61EA8, symSize: 0x24 }
  - { offsetInCU: 0xC3D7, offset: 0x18412D, size: 0x8, addend: 0x0, symName: __ZN4absl12lts_2024011619str_format_internal12_GLOBAL__N_113FloatToBufferILNS2_11FormatStyleE1EeEEbNS2_10DecomposedIT0_EEmPNS2_6BufferEPi.cold.1, symObjAddr: 0x3890, symBinAddr: 0x61DF4, symSize: 0x24 }
  - { offsetInCU: 0xC41B, offset: 0x184171, size: 0x8, addend: 0x0, symName: __ZN4absl12lts_2024011619str_format_internal12_GLOBAL__N_113FloatToBufferILNS2_11FormatStyleE1EeEEbNS2_10DecomposedIT0_EEmPNS2_6BufferEPi.cold.3, symObjAddr: 0x38D8, symBinAddr: 0x61E3C, symSize: 0x24 }
  - { offsetInCU: 0xC45F, offset: 0x1841B5, size: 0x8, addend: 0x0, symName: __ZN4absl12lts_2024011619str_format_internal12_GLOBAL__N_113FloatToBufferILNS2_11FormatStyleE1EeEEbNS2_10DecomposedIT0_EEmPNS2_6BufferEPi.cold.8, symObjAddr: 0x398C, symBinAddr: 0x61EF0, symSize: 0x24 }
  - { offsetInCU: 0xC4A3, offset: 0x1841F9, size: 0x8, addend: 0x0, symName: __ZN4absl12lts_2024011619str_format_internal12_GLOBAL__N_113FloatToBufferILNS2_11FormatStyleE1EeEEbNS2_10DecomposedIT0_EEmPNS2_6BufferEPi.cold.7, symObjAddr: 0x3968, symBinAddr: 0x61ECC, symSize: 0x24 }
  - { offsetInCU: 0xC4E7, offset: 0x18423D, size: 0x8, addend: 0x0, symName: __ZN4absl12lts_2024011619str_format_internal12_GLOBAL__N_113FloatToBufferILNS2_11FormatStyleE1EeEEbNS2_10DecomposedIT0_EEmPNS2_6BufferEPi.cold.5, symObjAddr: 0x3920, symBinAddr: 0x61E84, symSize: 0x24 }
  - { offsetInCU: 0xC52B, offset: 0x184281, size: 0x8, addend: 0x0, symName: __ZN4absl12lts_2024011619str_format_internal12_GLOBAL__N_113FloatToBufferILNS2_11FormatStyleE1EeEEbNS2_10DecomposedIT0_EEmPNS2_6BufferEPi.cold.4, symObjAddr: 0x38FC, symBinAddr: 0x61E60, symSize: 0x24 }
  - { offsetInCU: 0xC8E8, offset: 0x18463E, size: 0x8, addend: 0x0, symName: __ZN4absl12lts_2024011619str_format_internal12_GLOBAL__N_118FallbackToSnprintfIeEEbT_RKNS1_24FormatConversionSpecImplEPNS1_14FormatSinkImplE.cold.1, symObjAddr: 0x39B0, symBinAddr: 0x61F14, symSize: 0x28 }
  - { offsetInCU: 0xC900, offset: 0x184656, size: 0x8, addend: 0x0, symName: __ZN4absl12lts_2024011619str_format_internal12_GLOBAL__N_113PrintExponentEicPNS2_6BufferE.cold.8, symObjAddr: 0x3AD4, symBinAddr: 0x62038, symSize: 0x24 }
  - { offsetInCU: 0xC92E, offset: 0x184684, size: 0x8, addend: 0x0, symName: __ZN4absl12lts_2024011619str_format_internal12_GLOBAL__N_113PrintExponentEicPNS2_6BufferE.cold.7, symObjAddr: 0x3AB0, symBinAddr: 0x62014, symSize: 0x24 }
  - { offsetInCU: 0xC95C, offset: 0x1846B2, size: 0x8, addend: 0x0, symName: __ZN4absl12lts_2024011619str_format_internal12_GLOBAL__N_113PrintExponentEicPNS2_6BufferE.cold.3, symObjAddr: 0x3A20, symBinAddr: 0x61F84, symSize: 0x24 }
  - { offsetInCU: 0xC98A, offset: 0x1846E0, size: 0x8, addend: 0x0, symName: __ZN4absl12lts_2024011619str_format_internal12_GLOBAL__N_113PrintExponentEicPNS2_6BufferE.cold.2, symObjAddr: 0x39FC, symBinAddr: 0x61F60, symSize: 0x24 }
  - { offsetInCU: 0xC9B8, offset: 0x18470E, size: 0x8, addend: 0x0, symName: __ZN4absl12lts_2024011619str_format_internal12_GLOBAL__N_113PrintExponentEicPNS2_6BufferE.cold.1, symObjAddr: 0x39D8, symBinAddr: 0x61F3C, symSize: 0x24 }
  - { offsetInCU: 0xC9E6, offset: 0x18473C, size: 0x8, addend: 0x0, symName: __ZN4absl12lts_2024011619str_format_internal12_GLOBAL__N_113PrintExponentEicPNS2_6BufferE.cold.5, symObjAddr: 0x3A68, symBinAddr: 0x61FCC, symSize: 0x24 }
  - { offsetInCU: 0xCA14, offset: 0x18476A, size: 0x8, addend: 0x0, symName: __ZN4absl12lts_2024011619str_format_internal12_GLOBAL__N_113PrintExponentEicPNS2_6BufferE.cold.4, symObjAddr: 0x3A44, symBinAddr: 0x61FA8, symSize: 0x24 }
  - { offsetInCU: 0xCA42, offset: 0x184798, size: 0x8, addend: 0x0, symName: __ZN4absl12lts_2024011619str_format_internal12_GLOBAL__N_113PrintExponentEicPNS2_6BufferE.cold.6, symObjAddr: 0x3A8C, symBinAddr: 0x61FF0, symSize: 0x24 }
  - { offsetInCU: 0xCB54, offset: 0x1848AA, size: 0x8, addend: 0x0, symName: __ZN4absl12lts_2024011619str_format_internal12_GLOBAL__N_110StackArray15RunWithCapacityEmNS0_11FunctionRefIFvNS0_4SpanIjEEEEE, symObjAddr: 0x1CDC, symBinAddr: 0x2FFFC, symSize: 0x94 }
  - { offsetInCU: 0xCBE2, offset: 0x184938, size: 0x8, addend: 0x0, symName: __ZN4absl12lts_2024011619str_format_internal12_GLOBAL__N_110StackArray19RunWithCapacityImplILm1EEEvNS0_11FunctionRefIFvNS0_4SpanIjEEEEE, symObjAddr: 0x1D70, symBinAddr: 0x30090, symSize: 0xA0 }
  - { offsetInCU: 0xCBED, offset: 0x184943, size: 0x8, addend: 0x0, symName: __ZN4absl12lts_2024011619str_format_internal12_GLOBAL__N_122FormatFPositiveExpSlowENS0_7uint128EiRKNS2_11FormatStateE.cold.1, symObjAddr: 0x3AF8, symBinAddr: 0x6205C, symSize: 0x28 }
  - { offsetInCU: 0xCC1B, offset: 0x184971, size: 0x8, addend: 0x0, symName: __ZN4absl12lts_2024011619str_format_internal12_GLOBAL__N_122FormatFPositiveExpSlowENS0_7uint128EiRKNS2_11FormatStateE.cold.2, symObjAddr: 0x3B20, symBinAddr: 0x62084, symSize: 0x28 }
  - { offsetInCU: 0xCC72, offset: 0x1849C8, size: 0x8, addend: 0x0, symName: __ZN4absl12lts_2024011619str_format_internal12_GLOBAL__N_122FormatFNegativeExpSlowENS0_7uint128EiRKNS2_11FormatStateE.cold.1, symObjAddr: 0x3B48, symBinAddr: 0x620AC, symSize: 0x28 }
  - { offsetInCU: 0xCCA0, offset: 0x1849F6, size: 0x8, addend: 0x0, symName: __ZN4absl12lts_2024011619str_format_internal12_GLOBAL__N_110StackArray19RunWithCapacityImplILm1EEEvNS0_11FunctionRefIFvNS0_4SpanIjEEEEE, symObjAddr: 0x1D70, symBinAddr: 0x30090, symSize: 0xA0 }
  - { offsetInCU: 0xCD12, offset: 0x184A68, size: 0x8, addend: 0x0, symName: __ZN4absl12lts_2024011619str_format_internal12_GLOBAL__N_110StackArray19RunWithCapacityImplILm2EEEvNS0_11FunctionRefIFvNS0_4SpanIjEEEEE, symObjAddr: 0x1E10, symBinAddr: 0x30130, symSize: 0x78 }
  - { offsetInCU: 0xCD83, offset: 0x184AD9, size: 0x8, addend: 0x0, symName: __ZN4absl12lts_2024011619str_format_internal12_GLOBAL__N_110StackArray19RunWithCapacityImplILm3EEEvNS0_11FunctionRefIFvNS0_4SpanIjEEEEE, symObjAddr: 0x1E88, symBinAddr: 0x301A8, symSize: 0x78 }
  - { offsetInCU: 0xCDF4, offset: 0x184B4A, size: 0x8, addend: 0x0, symName: __ZN4absl12lts_2024011619str_format_internal12_GLOBAL__N_110StackArray19RunWithCapacityImplILm4EEEvNS0_11FunctionRefIFvNS0_4SpanIjEEEEE, symObjAddr: 0x1F00, symBinAddr: 0x30220, symSize: 0x78 }
  - { offsetInCU: 0xCE65, offset: 0x184BBB, size: 0x8, addend: 0x0, symName: __ZN4absl12lts_2024011619str_format_internal12_GLOBAL__N_110StackArray19RunWithCapacityImplILm5EEEvNS0_11FunctionRefIFvNS0_4SpanIjEEEEE, symObjAddr: 0x1F78, symBinAddr: 0x30298, symSize: 0x78 }
  - { offsetInCU: 0xCED6, offset: 0x184C2C, size: 0x8, addend: 0x0, symName: __ZN4absl12lts_2024011619str_format_internal12_GLOBAL__N_110StackArray15RunWithCapacityEmNS0_11FunctionRefIFvNS0_4SpanIjEEEEE.cold.1, symObjAddr: 0x3B70, symBinAddr: 0x620D4, symSize: 0x28 }
  - { offsetInCU: 0xCEEE, offset: 0x184C44, size: 0x8, addend: 0x0, symName: __ZN4absl12lts_2024011619str_format_internal12_GLOBAL__N_110StackArray15RunWithCapacityEmNS0_11FunctionRefIFvNS0_4SpanIjEEEEE.cold.2, symObjAddr: 0x3B98, symBinAddr: 0x620FC, symSize: 0x28 }
  - { offsetInCU: 0xD127, offset: 0x184E7D, size: 0x8, addend: 0x0, symName: __ZNK4absl12lts_202401164SpanIjEixEm, symObjAddr: 0x2238, symBinAddr: 0x30558, symSize: 0x4C }
  - { offsetInCU: 0xD1A7, offset: 0x184EFD, size: 0x8, addend: 0x0, symName: __ZN4absl12lts_2024011619functional_internal12InvokeObjectIZNS0_19str_format_internal12_GLOBAL__N_115BinaryToDecimal13RunConversionENS0_7uint128EiNS0_11FunctionRefIFvS5_EEEEUlNS0_4SpanIjEEE_vJSB_EEET0_NS1_7VoidPtrEDpNS1_8ForwardTIT1_E4typeE.cold.1, symObjAddr: 0x3BC0, symBinAddr: 0x62124, symSize: 0x28 }
  - { offsetInCU: 0xD33E, offset: 0x185094, size: 0x8, addend: 0x0, symName: '__ZN4absl12lts_2024011619functional_internal12InvokeObjectIZNS0_19str_format_internal12_GLOBAL__N_122FormatFPositiveExpSlowENS0_7uint128EiRKNS4_11FormatStateEE3$_0vJNS4_15BinaryToDecimalEEEET0_NS1_7VoidPtrEDpNS1_8ForwardTIT1_E4typeE.cold.1', symObjAddr: 0x3BE8, symBinAddr: 0x6214C, symSize: 0x24 }
  - { offsetInCU: 0xD400, offset: 0x185156, size: 0x8, addend: 0x0, symName: '__ZN4absl12lts_2024011619functional_internal12InvokeObjectIZNS0_19str_format_internal12_GLOBAL__N_122FormatFPositiveExpSlowENS0_7uint128EiRKNS4_11FormatStateEE3$_0vJNS4_15BinaryToDecimalEEEET0_NS1_7VoidPtrEDpNS1_8ForwardTIT1_E4typeE.cold.2', symObjAddr: 0x3C0C, symBinAddr: 0x62170, symSize: 0x24 }
  - { offsetInCU: 0xD59F, offset: 0x1852F5, size: 0x8, addend: 0x0, symName: __ZN4absl12lts_2024011619functional_internal12InvokeObjectIZNS0_19str_format_internal12_GLOBAL__N_124FractionalDigitGenerator13RunConversionENS0_7uint128EiNS0_11FunctionRefIFvS5_EEEEUlNS0_4SpanIjEEE_vJSB_EEET0_NS1_7VoidPtrEDpNS1_8ForwardTIT1_E4typeE, symObjAddr: 0x2620, symBinAddr: 0x307D0, symSize: 0x100 }
  - { offsetInCU: 0xD729, offset: 0x18547F, size: 0x8, addend: 0x0, symName: __ZN4absl12lts_2024011619str_format_internal12_GLOBAL__N_124FractionalDigitGenerator11GetOneDigitEv, symObjAddr: 0x2720, symBinAddr: 0x308D0, symSize: 0x9C }
  - { offsetInCU: 0xD937, offset: 0x18568D, size: 0x8, addend: 0x0, symName: __ZN4absl12lts_2024011619str_format_internal12_GLOBAL__N_119PrintIntegralDigitsILNS2_11FormatStyleE1EyEEmT0_PNS2_6BufferE, symObjAddr: 0x2D60, symBinAddr: 0x30ECC, symSize: 0x8C }
  - { offsetInCU: 0xD9AC, offset: 0x185702, size: 0x8, addend: 0x0, symName: __ZN4absl12lts_2024011619str_format_internal12_GLOBAL__N_119PrintIntegralDigitsILNS2_11FormatStyleE1EyEEmT0_PNS2_6BufferE.cold.2, symObjAddr: 0x3C9C, symBinAddr: 0x621B8, symSize: 0x24 }
  - { offsetInCU: 0xD9DA, offset: 0x185730, size: 0x8, addend: 0x0, symName: __ZN4absl12lts_2024011619str_format_internal12_GLOBAL__N_119PrintIntegralDigitsILNS2_11FormatStyleE1EyEEmT0_PNS2_6BufferE.cold.1, symObjAddr: 0x3C78, symBinAddr: 0x62194, symSize: 0x24 }
  - { offsetInCU: 0xDA5D, offset: 0x1857B3, size: 0x8, addend: 0x0, symName: __ZN4absl12lts_2024011619str_format_internal12_GLOBAL__N_17RoundUpILNS2_11FormatStyleE1EEEvPNS2_6BufferEPi.cold.2, symObjAddr: 0x3CE8, symBinAddr: 0x62204, symSize: 0x24 }
  - { offsetInCU: 0xDA8B, offset: 0x1857E1, size: 0x8, addend: 0x0, symName: __ZN4absl12lts_2024011619str_format_internal12_GLOBAL__N_17RoundUpILNS2_11FormatStyleE1EEEvPNS2_6BufferEPi.cold.1, symObjAddr: 0x3CC0, symBinAddr: 0x621DC, symSize: 0x28 }
  - { offsetInCU: 0xDAB9, offset: 0x18580F, size: 0x8, addend: 0x0, symName: __ZN4absl12lts_2024011619str_format_internal12_GLOBAL__N_119PrintIntegralDigitsILNS2_11FormatStyleE1EoEEmT0_PNS2_6BufferE.cold.2, symObjAddr: 0x3D30, symBinAddr: 0x6224C, symSize: 0x24 }
  - { offsetInCU: 0xDAE7, offset: 0x18583D, size: 0x8, addend: 0x0, symName: __ZN4absl12lts_2024011619str_format_internal12_GLOBAL__N_119PrintIntegralDigitsILNS2_11FormatStyleE1EoEEmT0_PNS2_6BufferE.cold.1, symObjAddr: 0x3D0C, symBinAddr: 0x62228, symSize: 0x24 }
  - { offsetInCU: 0xDB7F, offset: 0x1858D5, size: 0x8, addend: 0x0, symName: __ZN4absl12lts_2024011619str_format_internal12_GLOBAL__N_113FloatToBufferILNS2_11FormatStyleE1EdEEbNS2_10DecomposedIT0_EEmPNS2_6BufferEPi.cold.2, symObjAddr: 0x3D78, symBinAddr: 0x62294, symSize: 0x24 }
  - { offsetInCU: 0xDBC3, offset: 0x185919, size: 0x8, addend: 0x0, symName: __ZN4absl12lts_2024011619str_format_internal12_GLOBAL__N_113FloatToBufferILNS2_11FormatStyleE1EdEEbNS2_10DecomposedIT0_EEmPNS2_6BufferEPi.cold.6, symObjAddr: 0x3E08, symBinAddr: 0x62324, symSize: 0x24 }
  - { offsetInCU: 0xDC07, offset: 0x18595D, size: 0x8, addend: 0x0, symName: __ZN4absl12lts_2024011619str_format_internal12_GLOBAL__N_113FloatToBufferILNS2_11FormatStyleE1EdEEbNS2_10DecomposedIT0_EEmPNS2_6BufferEPi.cold.1, symObjAddr: 0x3D54, symBinAddr: 0x62270, symSize: 0x24 }
  - { offsetInCU: 0xDC4B, offset: 0x1859A1, size: 0x8, addend: 0x0, symName: __ZN4absl12lts_2024011619str_format_internal12_GLOBAL__N_113FloatToBufferILNS2_11FormatStyleE1EdEEbNS2_10DecomposedIT0_EEmPNS2_6BufferEPi.cold.3, symObjAddr: 0x3D9C, symBinAddr: 0x622B8, symSize: 0x24 }
  - { offsetInCU: 0xDC8F, offset: 0x1859E5, size: 0x8, addend: 0x0, symName: __ZN4absl12lts_2024011619str_format_internal12_GLOBAL__N_113FloatToBufferILNS2_11FormatStyleE1EdEEbNS2_10DecomposedIT0_EEmPNS2_6BufferEPi.cold.8, symObjAddr: 0x3E50, symBinAddr: 0x6236C, symSize: 0x24 }
  - { offsetInCU: 0xDCD3, offset: 0x185A29, size: 0x8, addend: 0x0, symName: __ZN4absl12lts_2024011619str_format_internal12_GLOBAL__N_113FloatToBufferILNS2_11FormatStyleE1EdEEbNS2_10DecomposedIT0_EEmPNS2_6BufferEPi.cold.7, symObjAddr: 0x3E2C, symBinAddr: 0x62348, symSize: 0x24 }
  - { offsetInCU: 0xDD17, offset: 0x185A6D, size: 0x8, addend: 0x0, symName: __ZN4absl12lts_2024011619str_format_internal12_GLOBAL__N_113FloatToBufferILNS2_11FormatStyleE1EdEEbNS2_10DecomposedIT0_EEmPNS2_6BufferEPi.cold.5, symObjAddr: 0x3DE4, symBinAddr: 0x62300, symSize: 0x24 }
  - { offsetInCU: 0xDD5B, offset: 0x185AB1, size: 0x8, addend: 0x0, symName: __ZN4absl12lts_2024011619str_format_internal12_GLOBAL__N_113FloatToBufferILNS2_11FormatStyleE1EdEEbNS2_10DecomposedIT0_EEmPNS2_6BufferEPi.cold.4, symObjAddr: 0x3DC0, symBinAddr: 0x622DC, symSize: 0x24 }
  - { offsetInCU: 0xDD9F, offset: 0x185AF5, size: 0x8, addend: 0x0, symName: __ZN4absl12lts_2024011619str_format_internal12_GLOBAL__N_118FallbackToSnprintfIdEEbT_RKNS1_24FormatConversionSpecImplEPNS1_14FormatSinkImplE.cold.1, symObjAddr: 0x3E74, symBinAddr: 0x62390, symSize: 0x28 }
  - { offsetInCU: 0xDDB7, offset: 0x185B0D, size: 0x8, addend: 0x0, symName: _OUTLINED_FUNCTION_0, symObjAddr: 0x3E9C, symBinAddr: 0x317FC, symSize: 0x8 }
  - { offsetInCU: 0xDDCF, offset: 0x185B25, size: 0x8, addend: 0x0, symName: _OUTLINED_FUNCTION_1, symObjAddr: 0x3EA4, symBinAddr: 0x31804, symSize: 0x8 }
  - { offsetInCU: 0xDDE7, offset: 0x185B3D, size: 0x8, addend: 0x0, symName: _OUTLINED_FUNCTION_2, symObjAddr: 0x3EAC, symBinAddr: 0x3180C, symSize: 0x8 }
  - { offsetInCU: 0xDDFF, offset: 0x185B55, size: 0x8, addend: 0x0, symName: _OUTLINED_FUNCTION_3, symObjAddr: 0x3EB4, symBinAddr: 0x31814, symSize: 0x8 }
  - { offsetInCU: 0x26, offset: 0x185BF4, size: 0x8, addend: 0x0, symName: __ZN4absl12lts_2024011610FormatTimeENS0_11string_viewENS0_4TimeENS0_8TimeZoneE, symObjAddr: 0x0, symBinAddr: 0x3181C, symSize: 0x150 }
  - { offsetInCU: 0x49, offset: 0x185C17, size: 0x8, addend: 0x0, symName: __ZN4absl12lts_2024011612RFC3339_fullE, symObjAddr: 0x878, symBinAddr: 0x6AD90, symSize: 0x0 }
  - { offsetInCU: 0x63, offset: 0x185C31, size: 0x8, addend: 0x0, symName: __ZN4absl12lts_2024011611RFC3339_secE, symObjAddr: 0x891, symBinAddr: 0x6ADA9, symSize: 0x0 }
  - { offsetInCU: 0x7D, offset: 0x185C4B, size: 0x8, addend: 0x0, symName: __ZN4absl12lts_2024011612RFC1123_fullE, symObjAddr: 0x8A8, symBinAddr: 0x6ADC0, symSize: 0x0 }
  - { offsetInCU: 0x97, offset: 0x185C65, size: 0x8, addend: 0x0, symName: __ZN4absl12lts_2024011615RFC1123_no_wdayE, symObjAddr: 0x8C3, symBinAddr: 0x6ADDB, symSize: 0x0 }
  - { offsetInCU: 0xA5, offset: 0x185C73, size: 0x8, addend: 0x0, symName: __ZN4absl12lts_202401169ParseTimeENS0_11string_viewES1_NS0_8TimeZoneEPNS0_4TimeEPNSt3__112basic_stringIcNS5_11char_traitsIcEENS5_9allocatorIcEEEE, symObjAddr: 0x218, symBinAddr: 0x31A34, symSize: 0x2BC }
  - { offsetInCU: 0xCF, offset: 0x185C9D, size: 0x8, addend: 0x0, symName: __ZZN4absl12lts_202401169ParseTimeENS0_11string_viewES1_NS0_8TimeZoneEPNS0_4TimeEPNSt3__112basic_stringIcNS5_11char_traitsIcEENS5_9allocatorIcEEEEE8literals, symObjAddr: 0x8F8, symBinAddr: 0x7DA30, symSize: 0x0 }
  - { offsetInCU: 0x12E2, offset: 0x186EB0, size: 0x8, addend: 0x0, symName: __ZN4absl12lts_2024011612_GLOBAL__N_118kInfiniteFutureStrE, symObjAddr: 0x8DA, symBinAddr: 0x6ADF2, symSize: 0x0 }
  - { offsetInCU: 0x12FC, offset: 0x186ECA, size: 0x8, addend: 0x0, symName: __ZN4absl12lts_2024011612_GLOBAL__N_116kInfinitePastStrE, symObjAddr: 0x8EA, symBinAddr: 0x6AE02, symSize: 0x0 }
  - { offsetInCU: 0x13FF, offset: 0x186FCD, size: 0x8, addend: 0x0, symName: __ZN4absl12lts_2024011610FormatTimeENS0_11string_viewENS0_4TimeENS0_8TimeZoneE, symObjAddr: 0x0, symBinAddr: 0x3181C, symSize: 0x150 }
  - { offsetInCU: 0x188F, offset: 0x18745D, size: 0x8, addend: 0x0, symName: __ZN4absl12lts_2024011610FormatTimeENS0_4TimeENS0_8TimeZoneE, symObjAddr: 0x150, symBinAddr: 0x3196C, symSize: 0x1C }
  - { offsetInCU: 0x1905, offset: 0x1874D3, size: 0x8, addend: 0x0, symName: __ZN4absl12lts_2024011610FormatTimeENS0_4TimeE, symObjAddr: 0x16C, symBinAddr: 0x31988, symSize: 0x4C }
  - { offsetInCU: 0x1985, offset: 0x187553, size: 0x8, addend: 0x0, symName: __ZN4absl12lts_202401169ParseTimeENS0_11string_viewES1_PNS0_4TimeEPNSt3__112basic_stringIcNS4_11char_traitsIcEENS4_9allocatorIcEEEE, symObjAddr: 0x1B8, symBinAddr: 0x319D4, symSize: 0x60 }
  - { offsetInCU: 0x1A52, offset: 0x187620, size: 0x8, addend: 0x0, symName: __ZN4absl12lts_2024011613AbslParseFlagENS0_11string_viewEPNS0_4TimeEPNSt3__112basic_stringIcNS4_11char_traitsIcEENS4_9allocatorIcEEEE, symObjAddr: 0x4D4, symBinAddr: 0x31CF0, symSize: 0x54 }
  - { offsetInCU: 0x1AE6, offset: 0x1876B4, size: 0x8, addend: 0x0, symName: __ZN4absl12lts_2024011615AbslUnparseFlagENS0_4TimeE, symObjAddr: 0x528, symBinAddr: 0x31D44, symSize: 0x4C }
  - { offsetInCU: 0x1B54, offset: 0x187722, size: 0x8, addend: 0x0, symName: __ZN4absl12lts_202401169ParseFlagERKNSt3__112basic_stringIcNS1_11char_traitsIcEENS1_9allocatorIcEEEEPNS0_4TimeEPS7_, symObjAddr: 0x574, symBinAddr: 0x31D90, symSize: 0x64 }
  - { offsetInCU: 0x1C5E, offset: 0x18782C, size: 0x8, addend: 0x0, symName: __ZN4absl12lts_2024011611UnparseFlagENS0_4TimeE, symObjAddr: 0x5D8, symBinAddr: 0x31DF4, symSize: 0x4C }
  - { offsetInCU: 0x6A58, offset: 0x18C626, size: 0x8, addend: 0x0, symName: __ZN4absl12lts_202401169ParseTimeENS0_11string_viewES1_NS0_8TimeZoneEPNS0_4TimeEPNSt3__112basic_stringIcNS5_11char_traitsIcEENS5_9allocatorIcEEEE.cold.1, symObjAddr: 0x7DC, symBinAddr: 0x623B8, symSize: 0x28 }
  - { offsetInCU: 0x6EC2, offset: 0x18CA90, size: 0x8, addend: 0x0, symName: __ZN4absl12lts_202401169ParseTimeENS0_11string_viewES1_NS0_8TimeZoneEPNS0_4TimeEPNSt3__112basic_stringIcNS5_11char_traitsIcEENS5_9allocatorIcEEEE.cold.2, symObjAddr: 0x804, symBinAddr: 0x623E0, symSize: 0x28 }
  - { offsetInCU: 0x6F2F, offset: 0x18CAFD, size: 0x8, addend: 0x0, symName: __ZN4absl12lts_202401169ParseTimeENS0_11string_viewES1_NS0_8TimeZoneEPNS0_4TimeEPNSt3__112basic_stringIcNS5_11char_traitsIcEENS5_9allocatorIcEEEE.cold.1, symObjAddr: 0x7DC, symBinAddr: 0x623B8, symSize: 0x28 }
  - { offsetInCU: 0x3C, offset: 0x18CE1D, size: 0x8, addend: 0x0, symName: __ZN4absl12lts_2024011615random_internal26gaussian_distribution_base3zg_E, symObjAddr: 0x0, symBinAddr: 0x6AE10, symSize: 0x0 }
  - { offsetInCU: 0x63, offset: 0x18F94A, size: 0x8, addend: 0x0, symName: __ZN4absl12lts_2024011624synchronization_internal12_GLOBAL__N_18arena_muE, symObjAddr: 0x23200, symBinAddr: 0x7E9A0, symSize: 0x0 }
  - { offsetInCU: 0x7D, offset: 0x18F964, size: 0x8, addend: 0x0, symName: __ZN4absl12lts_2024011624synchronization_internal12_GLOBAL__N_15arenaE, symObjAddr: 0x231F8, symBinAddr: 0x7E998, symSize: 0x0 }
  - { offsetInCU: 0xBD0, offset: 0x1904B7, size: 0x8, addend: 0x0, symName: __ZN4absl12lts_2024011624synchronization_internalL10MoveToListEPNS1_11GraphCycles3RepEPNS1_12_GLOBAL__N_13VecIiEES8_, symObjAddr: 0x1590, symBinAddr: 0x333C4, symSize: 0x70 }
  - { offsetInCU: 0xE50, offset: 0x190737, size: 0x8, addend: 0x0, symName: __ZNSt3__111__introsortINS_17_ClassicAlgPolicyERZN4absl12lts_2024011624synchronization_internalL4SortERKNS4_12_GLOBAL__N_13VecIPNS5_4NodeEEEPNS6_IiEEE6ByRankPiEEvT1_SH_T0_NS_15iterator_traitsISH_E15difference_typeE, symObjAddr: 0x1600, symBinAddr: 0x33434, symSize: 0x690 }
  - { offsetInCU: 0x19D9, offset: 0x1912C0, size: 0x8, addend: 0x0, symName: __ZNSt3__127__insertion_sort_incompleteIRZN4absl12lts_2024011624synchronization_internalL4SortERKNS3_12_GLOBAL__N_13VecIPNS4_4NodeEEEPNS5_IiEEE6ByRankPiEEbT0_SG_T_, symObjAddr: 0x1E60, symBinAddr: 0x33C94, symSize: 0x1AC }
  - { offsetInCU: 0x3C51, offset: 0x193538, size: 0x8, addend: 0x0, symName: __ZNSt3__119__sort5_wrap_policyB7v160006INS_17_ClassicAlgPolicyERZN4absl12lts_2024011624synchronization_internalL4SortERKNS4_12_GLOBAL__N_13VecIPNS5_4NodeEEEPNS6_IiEEE6ByRankPiEEjT1_SH_SH_SH_SH_T0_, symObjAddr: 0x1C90, symBinAddr: 0x33AC4, symSize: 0x10C }
  - { offsetInCU: 0x3F5F, offset: 0x193846, size: 0x8, addend: 0x0, symName: __ZNSt3__17__sort3B7v160006INS_17_ClassicAlgPolicyERZN4absl12lts_2024011624synchronization_internalL4SortERKNS4_12_GLOBAL__N_13VecIPNS5_4NodeEEEPNS6_IiEEE6ByRankPiEEjT1_SH_SH_T0_, symObjAddr: 0x1D9C, symBinAddr: 0x33BD0, symSize: 0xC4 }
  - { offsetInCU: 0x423A, offset: 0x193B21, size: 0x8, addend: 0x0, symName: __ZNSt3__17__sort4B7v160006INS_17_ClassicAlgPolicyERZN4absl12lts_2024011624synchronization_internalL4SortERKNS4_12_GLOBAL__N_13VecIPNS5_4NodeEEEPNS6_IiEEE6ByRankPiEEjT1_SH_SH_SH_T0_, symObjAddr: 0x200C, symBinAddr: 0x33E40, symSize: 0xD8 }
  - { offsetInCU: 0x6722, offset: 0x196009, size: 0x8, addend: 0x0, symName: __ZN4absl12lts_2024011624synchronization_internal11GraphCyclesC2Ev, symObjAddr: 0x0, symBinAddr: 0x31E40, symSize: 0xC8 }
  - { offsetInCU: 0x68ED, offset: 0x1961D4, size: 0x8, addend: 0x0, symName: __ZN4absl12lts_2024011624synchronization_internal11GraphCycles3RepC2Ev, symObjAddr: 0x1368, symBinAddr: 0x3319C, symSize: 0xB0 }
  - { offsetInCU: 0x6C36, offset: 0x19651D, size: 0x8, addend: 0x0, symName: __ZN4absl12lts_2024011624synchronization_internal11GraphCyclesC1Ev, symObjAddr: 0xC8, symBinAddr: 0x31F08, symSize: 0x4 }
  - { offsetInCU: 0x6C64, offset: 0x19654B, size: 0x8, addend: 0x0, symName: __ZN4absl12lts_2024011624synchronization_internal11GraphCyclesC1Ev, symObjAddr: 0xC8, symBinAddr: 0x31F08, symSize: 0x4 }
  - { offsetInCU: 0x6D8D, offset: 0x196674, size: 0x8, addend: 0x0, symName: __ZN4absl12lts_2024011624synchronization_internal11GraphCyclesD2Ev, symObjAddr: 0xCC, symBinAddr: 0x31F0C, symSize: 0xD0 }
  - { offsetInCU: 0x6FCA, offset: 0x1968B1, size: 0x8, addend: 0x0, symName: __ZN4absl12lts_2024011624synchronization_internal12_GLOBAL__N_13VecIiED1Ev, symObjAddr: 0x1418, symBinAddr: 0x3324C, symSize: 0x38 }
  - { offsetInCU: 0x7027, offset: 0x19690E, size: 0x8, addend: 0x0, symName: __ZN4absl12lts_2024011624synchronization_internal11GraphCyclesD1Ev, symObjAddr: 0x1A8, symBinAddr: 0x31FDC, symSize: 0x4 }
  - { offsetInCU: 0x7055, offset: 0x19693C, size: 0x8, addend: 0x0, symName: __ZN4absl12lts_2024011624synchronization_internal11GraphCyclesD1Ev, symObjAddr: 0x1A8, symBinAddr: 0x31FDC, symSize: 0x4 }
  - { offsetInCU: 0x715C, offset: 0x196A43, size: 0x8, addend: 0x0, symName: __ZNK4absl12lts_2024011624synchronization_internal11GraphCycles15CheckInvariantsEv, symObjAddr: 0x1AC, symBinAddr: 0x31FE0, symSize: 0x294 }
  - { offsetInCU: 0x74E3, offset: 0x196DCA, size: 0x8, addend: 0x0, symName: __ZN4absl12lts_2024011624synchronization_internal12_GLOBAL__N_17NodeSetC1Ev, symObjAddr: 0x440, symBinAddr: 0x32274, symSize: 0x4C }
  - { offsetInCU: 0x75A1, offset: 0x196E88, size: 0x8, addend: 0x0, symName: __ZN4absl12lts_2024011624synchronization_internal12_GLOBAL__N_17NodeSet6insertEi, symObjAddr: 0x48C, symBinAddr: 0x322C0, symSize: 0x19C }
  - { offsetInCU: 0x79C1, offset: 0x1972A8, size: 0x8, addend: 0x0, symName: __ZN4absl12lts_2024011624synchronization_internal12_GLOBAL__N_17NodeSet4InitEv, symObjAddr: 0x1450, symBinAddr: 0x33284, symSize: 0x5C }
  - { offsetInCU: 0x7C19, offset: 0x197500, size: 0x8, addend: 0x0, symName: __ZNK4absl12lts_2024011624synchronization_internal12_GLOBAL__N_17NodeSet9FindIndexEi, symObjAddr: 0x1520, symBinAddr: 0x33354, symSize: 0x70 }
  - { offsetInCU: 0x7C8B, offset: 0x197572, size: 0x8, addend: 0x0, symName: __ZNK4absl12lts_2024011624synchronization_internal12_GLOBAL__N_17NodeSet9FindIndexEi, symObjAddr: 0x1520, symBinAddr: 0x33354, symSize: 0x70 }
  - { offsetInCU: 0x7CD6, offset: 0x1975BD, size: 0x8, addend: 0x0, symName: __ZN4absl12lts_2024011624synchronization_internal12_GLOBAL__N_13VecIiE4GrowEj, symObjAddr: 0x14AC, symBinAddr: 0x332E0, symSize: 0x74 }
  - { offsetInCU: 0x803B, offset: 0x197922, size: 0x8, addend: 0x0, symName: __ZN4absl12lts_2024011624synchronization_internal11GraphCycles5GetIdEPv, symObjAddr: 0x628, symBinAddr: 0x3245C, symSize: 0x208 }
  - { offsetInCU: 0x8605, offset: 0x197EEC, size: 0x8, addend: 0x0, symName: __ZN4absl12lts_2024011624synchronization_internal11GraphCycles10RemoveNodeEPv, symObjAddr: 0x830, symBinAddr: 0x32664, symSize: 0x1EC }
  - { offsetInCU: 0x8906, offset: 0x1981ED, size: 0x8, addend: 0x0, symName: __ZN4absl12lts_2024011624synchronization_internal12_GLOBAL__N_13VecIiE9push_backERKi, symObjAddr: 0xA1C, symBinAddr: 0x32850, symSize: 0x54 }
  - { offsetInCU: 0x8950, offset: 0x198237, size: 0x8, addend: 0x0, symName: __ZN4absl12lts_2024011624synchronization_internal11GraphCycles3PtrENS1_7GraphIdE, symObjAddr: 0xA70, symBinAddr: 0x328A4, symSize: 0x44 }
  - { offsetInCU: 0x8A21, offset: 0x198308, size: 0x8, addend: 0x0, symName: __ZN4absl12lts_2024011624synchronization_internal11GraphCycles7HasNodeENS1_7GraphIdE, symObjAddr: 0xAB4, symBinAddr: 0x328E8, symSize: 0x24 }
  - { offsetInCU: 0x8B10, offset: 0x1983F7, size: 0x8, addend: 0x0, symName: __ZNK4absl12lts_2024011624synchronization_internal11GraphCycles7HasEdgeENS1_7GraphIdES3_, symObjAddr: 0xAD8, symBinAddr: 0x3290C, symSize: 0x78 }
  - { offsetInCU: 0x8C76, offset: 0x19855D, size: 0x8, addend: 0x0, symName: __ZN4absl12lts_2024011624synchronization_internal11GraphCycles10RemoveEdgeENS1_7GraphIdES3_, symObjAddr: 0xB50, symBinAddr: 0x32984, symSize: 0xB4 }
  - { offsetInCU: 0x8EEC, offset: 0x1987D3, size: 0x8, addend: 0x0, symName: __ZN4absl12lts_2024011624synchronization_internal11GraphCycles10InsertEdgeENS1_7GraphIdES3_, symObjAddr: 0xC04, symBinAddr: 0x32A38, symSize: 0x4D8 }
  - { offsetInCU: 0x9DB0, offset: 0x199697, size: 0x8, addend: 0x0, symName: __ZNK4absl12lts_2024011624synchronization_internal11GraphCycles8FindPathENS1_7GraphIdES3_iPS3_, symObjAddr: 0x10DC, symBinAddr: 0x32F10, symSize: 0x1D4 }
  - { offsetInCU: 0xA1CF, offset: 0x199AB6, size: 0x8, addend: 0x0, symName: __ZNK4absl12lts_2024011624synchronization_internal11GraphCycles11IsReachableENS1_7GraphIdES3_, symObjAddr: 0x12B0, symBinAddr: 0x330E4, symSize: 0x24 }
  - { offsetInCU: 0xA246, offset: 0x199B2D, size: 0x8, addend: 0x0, symName: __ZN4absl12lts_2024011624synchronization_internal11GraphCycles16UpdateStackTraceENS1_7GraphIdEiPFiPPviE, symObjAddr: 0x12D4, symBinAddr: 0x33108, symSize: 0x58 }
  - { offsetInCU: 0xA336, offset: 0x199C1D, size: 0x8, addend: 0x0, symName: __ZN4absl12lts_2024011624synchronization_internal11GraphCycles13GetStackTraceENS1_7GraphIdEPPPv, symObjAddr: 0x132C, symBinAddr: 0x33160, symSize: 0x3C }
  - { offsetInCU: 0x26, offset: 0x199E78, size: 0x8, addend: 0x0, symName: __ZN4absl12lts_2024011613hash_internal15MixingHashState28CombineLargeContiguousImpl32EyPKhm, symObjAddr: 0x0, symBinAddr: 0x33F18, symSize: 0x100 }
  - { offsetInCU: 0x48, offset: 0x199E9A, size: 0x8, addend: 0x0, symName: __ZN4absl12lts_2024011613hash_internal15MixingHashState5kSeedE, symObjAddr: 0x2D8, symBinAddr: 0x7DA70, symSize: 0x0 }
  - { offsetInCU: 0x29C, offset: 0x19A0EE, size: 0x8, addend: 0x0, symName: __ZN4absl12lts_2024011613hash_internalL9kHashSaltE, symObjAddr: 0x2E0, symBinAddr: 0x6B638, symSize: 0x0 }
  - { offsetInCU: 0x2FF0, offset: 0x19CE42, size: 0x8, addend: 0x0, symName: __ZN4absl12lts_2024011613hash_internal15MixingHashState28CombineLargeContiguousImpl32EyPKhm, symObjAddr: 0x0, symBinAddr: 0x33F18, symSize: 0x100 }
  - { offsetInCU: 0x31B4, offset: 0x19D006, size: 0x8, addend: 0x0, symName: __ZN4absl12lts_2024011613hash_internal15MixingHashState28CombineLargeContiguousImpl64EyPKhm, symObjAddr: 0x100, symBinAddr: 0x34018, symSize: 0x9C }
  - { offsetInCU: 0x32B7, offset: 0x19D109, size: 0x8, addend: 0x0, symName: __ZN4absl12lts_2024011613hash_internal15MixingHashState21CombineContiguousImplEyPKhmNSt3__117integral_constantIiLi8EEE, symObjAddr: 0x19C, symBinAddr: 0x340B4, symSize: 0x124 }
  - { offsetInCU: 0x3589, offset: 0x19D3DB, size: 0x8, addend: 0x0, symName: __ZN4absl12lts_2024011613hash_internal15MixingHashState16LowLevelHashImplEPKhm, symObjAddr: 0x2C0, symBinAddr: 0x341D8, symSize: 0x14 }
  - { offsetInCU: 0x49, offset: 0x19D46D, size: 0x8, addend: 0x0, symName: __ZN4absl12lts_2024011618container_internal14HashtablezInfo14kMaxStackDepthE, symObjAddr: 0x870, symBinAddr: 0x6B660, symSize: 0x0 }
  - { offsetInCU: 0x182, offset: 0x19D5A6, size: 0x8, addend: 0x0, symName: __ZN4absl12lts_2024011618container_internal23GlobalHashtablezSamplerEv, symObjAddr: 0x0, symBinAddr: 0x341EC, symSize: 0x8C }
  - { offsetInCU: 0x1AC, offset: 0x19D5D0, size: 0x8, addend: 0x0, symName: __ZZN4absl12lts_2024011618container_internal23GlobalHashtablezSamplerEvE7sampler, symObjAddr: 0x2DB68, symBinAddr: 0x7E9A8, symSize: 0x0 }
  - { offsetInCU: 0x1F9, offset: 0x19D61D, size: 0x8, addend: 0x0, symName: __ZZN4absl12lts_2024011618container_internalL19ShouldForceSamplingEvE12global_state.0, symObjAddr: 0x930, symBinAddr: 0x7E790, symSize: 0x0 }
  - { offsetInCU: 0x231, offset: 0x19D655, size: 0x8, addend: 0x0, symName: __ZN4absl12lts_2024011618container_internal12_GLOBAL__N_128g_hashtablez_config_listenerE.0, symObjAddr: 0x2DB78, symBinAddr: 0x7E9B8, symSize: 0x0 }
  - { offsetInCU: 0x24B, offset: 0x19D66F, size: 0x8, addend: 0x0, symName: __ZN4absl12lts_2024011618container_internal12_GLOBAL__N_120g_hashtablez_enabledE.0, symObjAddr: 0x2DB80, symBinAddr: 0x7E9C0, symSize: 0x0 }
  - { offsetInCU: 0x265, offset: 0x19D689, size: 0x8, addend: 0x0, symName: __ZN4absl12lts_2024011618container_internal12_GLOBAL__N_129g_hashtablez_sample_parameterE.0, symObjAddr: 0x934, symBinAddr: 0x7E794, symSize: 0x0 }
  - { offsetInCU: 0x2A8, offset: 0x19D6CC, size: 0x8, addend: 0x0, symName: __ZN4absl12lts_2024011618container_internal10SampleSlowERNS1_13SamplingStateEm, symObjAddr: 0x13C, symBinAddr: 0x34328, symSize: 0x84 }
  - { offsetInCU: 0x3FE, offset: 0x19D822, size: 0x8, addend: 0x0, symName: __ZN4absl12lts_2024011618container_internal12UnsampleSlowEPNS1_14HashtablezInfoE, symObjAddr: 0x310, symBinAddr: 0x344FC, symSize: 0x40 }
  - { offsetInCU: 0x4BD, offset: 0x19D8E1, size: 0x8, addend: 0x0, symName: __ZN4absl12lts_2024011618container_internal16RecordRehashSlowEPNS1_14HashtablezInfoEm, symObjAddr: 0x350, symBinAddr: 0x3453C, symSize: 0x1C }
  - { offsetInCU: 0x642, offset: 0x19DA66, size: 0x8, addend: 0x0, symName: __ZN4absl12lts_2024011618container_internal21RecordReservationSlowEPNS1_14HashtablezInfoEm, symObjAddr: 0x36C, symBinAddr: 0x34558, symSize: 0x14 }
  - { offsetInCU: 0x67A, offset: 0x19DA9E, size: 0x8, addend: 0x0, symName: __ZN4absl12lts_2024011618container_internal21RecordReservationSlowEPNS1_14HashtablezInfoEm, symObjAddr: 0x36C, symBinAddr: 0x34558, symSize: 0x14 }
  - { offsetInCU: 0x69E, offset: 0x19DAC2, size: 0x8, addend: 0x0, symName: __ZN4absl12lts_2024011618container_internal21RecordReservationSlowEPNS1_14HashtablezInfoEm, symObjAddr: 0x36C, symBinAddr: 0x34558, symSize: 0x14 }
  - { offsetInCU: 0x71B, offset: 0x19DB3F, size: 0x8, addend: 0x0, symName: __ZN4absl12lts_2024011618container_internal28RecordClearedReservationSlowEPNS1_14HashtablezInfoE, symObjAddr: 0x380, symBinAddr: 0x3456C, symSize: 0x8 }
  - { offsetInCU: 0x746, offset: 0x19DB6A, size: 0x8, addend: 0x0, symName: __ZN4absl12lts_2024011618container_internal28RecordClearedReservationSlowEPNS1_14HashtablezInfoE, symObjAddr: 0x380, symBinAddr: 0x3456C, symSize: 0x8 }
  - { offsetInCU: 0x770, offset: 0x19DB94, size: 0x8, addend: 0x0, symName: __ZN4absl12lts_2024011618container_internal28RecordClearedReservationSlowEPNS1_14HashtablezInfoE, symObjAddr: 0x380, symBinAddr: 0x3456C, symSize: 0x8 }
  - { offsetInCU: 0x79A, offset: 0x19DBBE, size: 0x8, addend: 0x0, symName: __ZN4absl12lts_2024011618container_internal24RecordStorageChangedSlowEPNS1_14HashtablezInfoEmm, symObjAddr: 0x388, symBinAddr: 0x34574, symSize: 0x1C }
  - { offsetInCU: 0x7DF, offset: 0x19DC03, size: 0x8, addend: 0x0, symName: __ZN4absl12lts_2024011618container_internal24RecordStorageChangedSlowEPNS1_14HashtablezInfoEmm, symObjAddr: 0x388, symBinAddr: 0x34574, symSize: 0x1C }
  - { offsetInCU: 0x809, offset: 0x19DC2D, size: 0x8, addend: 0x0, symName: __ZN4absl12lts_2024011618container_internal24RecordStorageChangedSlowEPNS1_14HashtablezInfoEmm, symObjAddr: 0x388, symBinAddr: 0x34574, symSize: 0x1C }
  - { offsetInCU: 0x936, offset: 0x19DD5A, size: 0x8, addend: 0x0, symName: __ZN4absl12lts_2024011618container_internal16RecordInsertSlowEPNS1_14HashtablezInfoEmm, symObjAddr: 0x3A4, symBinAddr: 0x34590, symSize: 0x7C }
  - { offsetInCU: 0xBBA, offset: 0x19DFDE, size: 0x8, addend: 0x0, symName: __ZN4absl12lts_2024011618container_internal15RecordEraseSlowEPNS1_14HashtablezInfoE, symObjAddr: 0x420, symBinAddr: 0x3460C, symSize: 0x24 }
  - { offsetInCU: 0xCD3, offset: 0x19E0F7, size: 0x8, addend: 0x0, symName: __ZN4absl12lts_2024011618container_internal27SetHashtablezConfigListenerEPFvvE, symObjAddr: 0x444, symBinAddr: 0x34630, symSize: 0x10 }
  - { offsetInCU: 0xCFE, offset: 0x19E122, size: 0x8, addend: 0x0, symName: __ZN4absl12lts_2024011618container_internal27SetHashtablezConfigListenerEPFvvE, symObjAddr: 0x444, symBinAddr: 0x34630, symSize: 0x10 }
  - { offsetInCU: 0xD1F, offset: 0x19E143, size: 0x8, addend: 0x0, symName: __ZN4absl12lts_2024011618container_internal27SetHashtablezConfigListenerEPFvvE, symObjAddr: 0x444, symBinAddr: 0x34630, symSize: 0x10 }
  - { offsetInCU: 0xD40, offset: 0x19E164, size: 0x8, addend: 0x0, symName: __ZN4absl12lts_2024011618container_internal19IsHashtablezEnabledEv, symObjAddr: 0x454, symBinAddr: 0x34640, symSize: 0x14 }
  - { offsetInCU: 0xD61, offset: 0x19E185, size: 0x8, addend: 0x0, symName: __ZN4absl12lts_2024011618container_internal19IsHashtablezEnabledEv, symObjAddr: 0x454, symBinAddr: 0x34640, symSize: 0x14 }
  - { offsetInCU: 0xD7B, offset: 0x19E19F, size: 0x8, addend: 0x0, symName: __ZN4absl12lts_2024011618container_internal19IsHashtablezEnabledEv, symObjAddr: 0x454, symBinAddr: 0x34640, symSize: 0x14 }
  - { offsetInCU: 0xDAE, offset: 0x19E1D2, size: 0x8, addend: 0x0, symName: __ZN4absl12lts_2024011618container_internal20SetHashtablezEnabledEb, symObjAddr: 0x468, symBinAddr: 0x34654, symSize: 0x24 }
  - { offsetInCU: 0xDDB, offset: 0x19E1FF, size: 0x8, addend: 0x0, symName: __ZN4absl12lts_2024011618container_internal20SetHashtablezEnabledEb, symObjAddr: 0x468, symBinAddr: 0x34654, symSize: 0x24 }
  - { offsetInCU: 0xDFB, offset: 0x19E21F, size: 0x8, addend: 0x0, symName: __ZN4absl12lts_2024011618container_internal20SetHashtablezEnabledEb, symObjAddr: 0x468, symBinAddr: 0x34654, symSize: 0x24 }
  - { offsetInCU: 0xE21, offset: 0x19E245, size: 0x8, addend: 0x0, symName: __ZN4absl12lts_2024011618container_internal20SetHashtablezEnabledEb, symObjAddr: 0x468, symBinAddr: 0x34654, symSize: 0x24 }
  - { offsetInCU: 0xEA4, offset: 0x19E2C8, size: 0x8, addend: 0x0, symName: __ZN4absl12lts_2024011618container_internal28SetHashtablezEnabledInternalEb, symObjAddr: 0x48C, symBinAddr: 0x34678, symSize: 0x10 }
  - { offsetInCU: 0xEC8, offset: 0x19E2EC, size: 0x8, addend: 0x0, symName: __ZN4absl12lts_2024011618container_internal28SetHashtablezEnabledInternalEb, symObjAddr: 0x48C, symBinAddr: 0x34678, symSize: 0x10 }
  - { offsetInCU: 0xEEE, offset: 0x19E312, size: 0x8, addend: 0x0, symName: __ZN4absl12lts_2024011618container_internal28SetHashtablezEnabledInternalEb, symObjAddr: 0x48C, symBinAddr: 0x34678, symSize: 0x10 }
  - { offsetInCU: 0xF0F, offset: 0x19E333, size: 0x8, addend: 0x0, symName: __ZN4absl12lts_2024011618container_internal28GetHashtablezSampleParameterEv, symObjAddr: 0x49C, symBinAddr: 0x34688, symSize: 0x10 }
  - { offsetInCU: 0xF30, offset: 0x19E354, size: 0x8, addend: 0x0, symName: __ZN4absl12lts_2024011618container_internal28GetHashtablezSampleParameterEv, symObjAddr: 0x49C, symBinAddr: 0x34688, symSize: 0x10 }
  - { offsetInCU: 0xF4A, offset: 0x19E36E, size: 0x8, addend: 0x0, symName: __ZN4absl12lts_2024011618container_internal28GetHashtablezSampleParameterEv, symObjAddr: 0x49C, symBinAddr: 0x34688, symSize: 0x10 }
  - { offsetInCU: 0xF8D, offset: 0x19E3B1, size: 0x8, addend: 0x0, symName: __ZN4absl12lts_2024011618container_internal28SetHashtablezSampleParameterEi, symObjAddr: 0x4AC, symBinAddr: 0x34698, symSize: 0x70 }
  - { offsetInCU: 0x1096, offset: 0x19E4BA, size: 0x8, addend: 0x0, symName: __ZN4absl12lts_2024011618container_internal36SetHashtablezSampleParameterInternalEi, symObjAddr: 0x51C, symBinAddr: 0x34708, symSize: 0x54 }
  - { offsetInCU: 0x1126, offset: 0x19E54A, size: 0x8, addend: 0x0, symName: __ZN4absl12lts_2024011618container_internal23GetHashtablezMaxSamplesEv, symObjAddr: 0x570, symBinAddr: 0x3475C, symSize: 0x1C }
  - { offsetInCU: 0x11B4, offset: 0x19E5D8, size: 0x8, addend: 0x0, symName: __ZN4absl12lts_2024011618container_internal23SetHashtablezMaxSamplesEm, symObjAddr: 0x58C, symBinAddr: 0x34778, symSize: 0x2C }
  - { offsetInCU: 0x1257, offset: 0x19E67B, size: 0x8, addend: 0x0, symName: __ZN4absl12lts_2024011618container_internal31SetHashtablezMaxSamplesInternalEm, symObjAddr: 0x5B8, symBinAddr: 0x347A4, symSize: 0x48 }
  - { offsetInCU: 0x64F8, offset: 0x1A391C, size: 0x8, addend: 0x0, symName: __ZN4absl12lts_2024011618profiling_internal14SampleRecorderINS0_18container_internal14HashtablezInfoEEC2Ev, symObjAddr: 0x600, symBinAddr: 0x347EC, symSize: 0x74 }
  - { offsetInCU: 0x6B22, offset: 0x1A3F46, size: 0x8, addend: 0x0, symName: __ZN4absl12lts_2024011618container_internal14HashtablezInfoC2Ev, symObjAddr: 0x8C, symBinAddr: 0x34278, symSize: 0x14 }
  - { offsetInCU: 0x6B44, offset: 0x1A3F68, size: 0x8, addend: 0x0, symName: __ZN4absl12lts_2024011618container_internal14HashtablezInfoC2Ev, symObjAddr: 0x8C, symBinAddr: 0x34278, symSize: 0x14 }
  - { offsetInCU: 0x6C6D, offset: 0x1A4091, size: 0x8, addend: 0x0, symName: __ZN4absl12lts_2024011618container_internal14HashtablezInfoC1Ev, symObjAddr: 0xA0, symBinAddr: 0x3428C, symSize: 0x14 }
  - { offsetInCU: 0x6C8F, offset: 0x1A40B3, size: 0x8, addend: 0x0, symName: __ZN4absl12lts_2024011618container_internal14HashtablezInfoC1Ev, symObjAddr: 0xA0, symBinAddr: 0x3428C, symSize: 0x14 }
  - { offsetInCU: 0x6CAA, offset: 0x1A40CE, size: 0x8, addend: 0x0, symName: __ZN4absl12lts_2024011618container_internal14HashtablezInfoC1Ev, symObjAddr: 0xA0, symBinAddr: 0x3428C, symSize: 0x14 }
  - { offsetInCU: 0x6DD4, offset: 0x1A41F8, size: 0x8, addend: 0x0, symName: __ZN4absl12lts_2024011618container_internal14HashtablezInfoD2Ev, symObjAddr: 0xB4, symBinAddr: 0x342A0, symSize: 0x4 }
  - { offsetInCU: 0x6DF6, offset: 0x1A421A, size: 0x8, addend: 0x0, symName: __ZN4absl12lts_2024011618container_internal14HashtablezInfoD2Ev, symObjAddr: 0xB4, symBinAddr: 0x342A0, symSize: 0x4 }
  - { offsetInCU: 0x6E2C, offset: 0x1A4250, size: 0x8, addend: 0x0, symName: __ZN4absl12lts_2024011618container_internal14HashtablezInfoD1Ev, symObjAddr: 0xB8, symBinAddr: 0x342A4, symSize: 0x4 }
  - { offsetInCU: 0x6E4E, offset: 0x1A4272, size: 0x8, addend: 0x0, symName: __ZN4absl12lts_2024011618container_internal14HashtablezInfoD1Ev, symObjAddr: 0xB8, symBinAddr: 0x342A4, symSize: 0x4 }
  - { offsetInCU: 0x6E69, offset: 0x1A428D, size: 0x8, addend: 0x0, symName: __ZN4absl12lts_2024011618container_internal14HashtablezInfoD1Ev, symObjAddr: 0xB8, symBinAddr: 0x342A4, symSize: 0x4 }
  - { offsetInCU: 0x6EBC, offset: 0x1A42E0, size: 0x8, addend: 0x0, symName: __ZN4absl12lts_2024011618container_internal14HashtablezInfo18PrepareForSamplingExm, symObjAddr: 0xBC, symBinAddr: 0x342A8, symSize: 0x80 }
  - { offsetInCU: 0x7331, offset: 0x1A4755, size: 0x8, addend: 0x0, symName: __ZN4absl12lts_2024011618profiling_internal14SampleRecorderINS0_18container_internal14HashtablezInfoEE8RegisterIJRKxRmEEEPS4_DpOT_, symObjAddr: 0x1C0, symBinAddr: 0x343AC, symSize: 0x150 }
  - { offsetInCU: 0x7950, offset: 0x1A4D74, size: 0x8, addend: 0x0, symName: __ZN4absl12lts_2024011618profiling_internal14SampleRecorderINS0_18container_internal14HashtablezInfoEE7PopDeadIJxmEEEPS4_DpT_, symObjAddr: 0x680, symBinAddr: 0x34860, symSize: 0xC0 }
  - { offsetInCU: 0x7B11, offset: 0x1A4F35, size: 0x8, addend: 0x0, symName: __ZN4absl12lts_2024011618profiling_internal14SampleRecorderINS0_18container_internal14HashtablezInfoEE8PushDeadEPS4_, symObjAddr: 0x740, symBinAddr: 0x34920, symSize: 0x88 }
  - { offsetInCU: 0x26, offset: 0x1A5561, size: 0x8, addend: 0x0, symName: _AbslContainerInternalSampleEverything_lts_20240116, symObjAddr: 0x0, symBinAddr: 0x349A8, symSize: 0x8 }
  - { offsetInCU: 0x2AB1, offset: 0x1A7FEC, size: 0x8, addend: 0x0, symName: _AbslContainerInternalSampleEverything_lts_20240116, symObjAddr: 0x0, symBinAddr: 0x349A8, symSize: 0x8 }
  - { offsetInCU: 0x4A, offset: 0x1A8050, size: 0x8, addend: 0x0, symName: __ZN4absl12lts_2024011611kuint128maxE, symObjAddr: 0x1C80, symBinAddr: 0x6B670, symSize: 0x0 }
  - { offsetInCU: 0x59, offset: 0x1A805F, size: 0x8, addend: 0x0, symName: __ZN4absl12lts_2024011612_GLOBAL__N_120MakeUint128FromFloatIfEENS0_7uint128ET_, symObjAddr: 0x28, symBinAddr: 0x349D8, symSize: 0x94 }
  - { offsetInCU: 0x132, offset: 0x1A8138, size: 0x8, addend: 0x0, symName: __ZN4absl12lts_2024011612_GLOBAL__N_120MakeUint128FromFloatIdEENS0_7uint128ET_, symObjAddr: 0x10C, symBinAddr: 0x34ABC, symSize: 0xAC }
  - { offsetInCU: 0x18B, offset: 0x1A8191, size: 0x8, addend: 0x0, symName: __ZN4absl12lts_202401167uint128C1Ed, symObjAddr: 0x1B8, symBinAddr: 0x34B68, symSize: 0x28 }
  - { offsetInCU: 0x19E, offset: 0x1A81A4, size: 0x8, addend: 0x0, symName: __ZN4absl12lts_2024011612_GLOBAL__N_120MakeUint128FromFloatIeEENS0_7uint128ET_, symObjAddr: 0x208, symBinAddr: 0x34BB8, symSize: 0xAC }
  - { offsetInCU: 0x292, offset: 0x1A8298, size: 0x8, addend: 0x0, symName: __ZN4absl12lts_202401167uint128C1Ee, symObjAddr: 0x2B4, symBinAddr: 0x34C64, symSize: 0x28 }
  - { offsetInCU: 0x2A5, offset: 0x1A82AB, size: 0x8, addend: 0x0, symName: __ZN4absl12lts_2024011612_GLOBAL__N_124Uint128ToFormattedStringENS0_7uint128Ej, symObjAddr: 0x2E8, symBinAddr: 0x34C98, symSize: 0x424 }
  - { offsetInCU: 0xCFE, offset: 0x1A8D04, size: 0x8, addend: 0x0, symName: __ZN4absl12lts_20240116lsERNSt3__113basic_ostreamIcNS1_11char_traitsIcEEEENS0_7uint128E, symObjAddr: 0x70C, symBinAddr: 0x350BC, symSize: 0x260 }
  - { offsetInCU: 0x12E8, offset: 0x1A92EE, size: 0x8, addend: 0x0, symName: __ZN4absl12lts_20240116lsERNSt3__113basic_ostreamIcNS1_11char_traitsIcEEEENS0_6int128E, symObjAddr: 0xA48, symBinAddr: 0x353F8, symSize: 0x3F0 }
  - { offsetInCU: 0x591E, offset: 0x1AD924, size: 0x8, addend: 0x0, symName: __ZNSt3__114numeric_limitsIN4absl12lts_202401167uint128EE14is_specializedE, symObjAddr: 0x1C90, symBinAddr: 0x6B680, symSize: 0x0 }
  - { offsetInCU: 0x5932, offset: 0x1AD938, size: 0x8, addend: 0x0, symName: __ZNSt3__114numeric_limitsIN4absl12lts_202401167uint128EE9is_signedE, symObjAddr: 0x1C91, symBinAddr: 0x6B681, symSize: 0x0 }
  - { offsetInCU: 0x5946, offset: 0x1AD94C, size: 0x8, addend: 0x0, symName: __ZNSt3__114numeric_limitsIN4absl12lts_202401167uint128EE10is_integerE, symObjAddr: 0x1C92, symBinAddr: 0x6B682, symSize: 0x0 }
  - { offsetInCU: 0x595A, offset: 0x1AD960, size: 0x8, addend: 0x0, symName: __ZNSt3__114numeric_limitsIN4absl12lts_202401167uint128EE8is_exactE, symObjAddr: 0x1C93, symBinAddr: 0x6B683, symSize: 0x0 }
  - { offsetInCU: 0x596E, offset: 0x1AD974, size: 0x8, addend: 0x0, symName: __ZNSt3__114numeric_limitsIN4absl12lts_202401167uint128EE12has_infinityE, symObjAddr: 0x1C94, symBinAddr: 0x6B684, symSize: 0x0 }
  - { offsetInCU: 0x5982, offset: 0x1AD988, size: 0x8, addend: 0x0, symName: __ZNSt3__114numeric_limitsIN4absl12lts_202401167uint128EE13has_quiet_NaNE, symObjAddr: 0x1C95, symBinAddr: 0x6B685, symSize: 0x0 }
  - { offsetInCU: 0x5996, offset: 0x1AD99C, size: 0x8, addend: 0x0, symName: __ZNSt3__114numeric_limitsIN4absl12lts_202401167uint128EE17has_signaling_NaNE, symObjAddr: 0x1C96, symBinAddr: 0x6B686, symSize: 0x0 }
  - { offsetInCU: 0x59AA, offset: 0x1AD9B0, size: 0x8, addend: 0x0, symName: __ZNSt3__114numeric_limitsIN4absl12lts_202401167uint128EE10has_denormE, symObjAddr: 0x1C98, symBinAddr: 0x6B688, symSize: 0x0 }
  - { offsetInCU: 0x59BE, offset: 0x1AD9C4, size: 0x8, addend: 0x0, symName: __ZNSt3__114numeric_limitsIN4absl12lts_202401167uint128EE15has_denorm_lossE, symObjAddr: 0x1C9C, symBinAddr: 0x6B68C, symSize: 0x0 }
  - { offsetInCU: 0x59D2, offset: 0x1AD9D8, size: 0x8, addend: 0x0, symName: __ZNSt3__114numeric_limitsIN4absl12lts_202401167uint128EE11round_styleE, symObjAddr: 0x1CA0, symBinAddr: 0x6B690, symSize: 0x0 }
  - { offsetInCU: 0x59E6, offset: 0x1AD9EC, size: 0x8, addend: 0x0, symName: __ZNSt3__114numeric_limitsIN4absl12lts_202401167uint128EE9is_iec559E, symObjAddr: 0x1CA4, symBinAddr: 0x6B694, symSize: 0x0 }
  - { offsetInCU: 0x59FA, offset: 0x1ADA00, size: 0x8, addend: 0x0, symName: __ZNSt3__114numeric_limitsIN4absl12lts_202401167uint128EE10is_boundedE, symObjAddr: 0x1CA5, symBinAddr: 0x6B695, symSize: 0x0 }
  - { offsetInCU: 0x5A0E, offset: 0x1ADA14, size: 0x8, addend: 0x0, symName: __ZNSt3__114numeric_limitsIN4absl12lts_202401167uint128EE9is_moduloE, symObjAddr: 0x1CA6, symBinAddr: 0x6B696, symSize: 0x0 }
  - { offsetInCU: 0x5A22, offset: 0x1ADA28, size: 0x8, addend: 0x0, symName: __ZNSt3__114numeric_limitsIN4absl12lts_202401167uint128EE6digitsE, symObjAddr: 0x1CA8, symBinAddr: 0x6B698, symSize: 0x0 }
  - { offsetInCU: 0x5A36, offset: 0x1ADA3C, size: 0x8, addend: 0x0, symName: __ZNSt3__114numeric_limitsIN4absl12lts_202401167uint128EE8digits10E, symObjAddr: 0x1CAC, symBinAddr: 0x6B69C, symSize: 0x0 }
  - { offsetInCU: 0x5A4A, offset: 0x1ADA50, size: 0x8, addend: 0x0, symName: __ZNSt3__114numeric_limitsIN4absl12lts_202401167uint128EE12max_digits10E, symObjAddr: 0x1CB0, symBinAddr: 0x6B6A0, symSize: 0x0 }
  - { offsetInCU: 0x5A5E, offset: 0x1ADA64, size: 0x8, addend: 0x0, symName: __ZNSt3__114numeric_limitsIN4absl12lts_202401167uint128EE5radixE, symObjAddr: 0x1CB4, symBinAddr: 0x6B6A4, symSize: 0x0 }
  - { offsetInCU: 0x5A72, offset: 0x1ADA78, size: 0x8, addend: 0x0, symName: __ZNSt3__114numeric_limitsIN4absl12lts_202401167uint128EE12min_exponentE, symObjAddr: 0x1CB8, symBinAddr: 0x6B6A8, symSize: 0x0 }
  - { offsetInCU: 0x5A86, offset: 0x1ADA8C, size: 0x8, addend: 0x0, symName: __ZNSt3__114numeric_limitsIN4absl12lts_202401167uint128EE14min_exponent10E, symObjAddr: 0x1CBC, symBinAddr: 0x6B6AC, symSize: 0x0 }
  - { offsetInCU: 0x5A9A, offset: 0x1ADAA0, size: 0x8, addend: 0x0, symName: __ZNSt3__114numeric_limitsIN4absl12lts_202401167uint128EE12max_exponentE, symObjAddr: 0x1CC0, symBinAddr: 0x6B6B0, symSize: 0x0 }
  - { offsetInCU: 0x5AAE, offset: 0x1ADAB4, size: 0x8, addend: 0x0, symName: __ZNSt3__114numeric_limitsIN4absl12lts_202401167uint128EE14max_exponent10E, symObjAddr: 0x1CC4, symBinAddr: 0x6B6B4, symSize: 0x0 }
  - { offsetInCU: 0x5AC2, offset: 0x1ADAC8, size: 0x8, addend: 0x0, symName: __ZNSt3__114numeric_limitsIN4absl12lts_202401167uint128EE5trapsE, symObjAddr: 0x1CC8, symBinAddr: 0x6B6B8, symSize: 0x0 }
  - { offsetInCU: 0x5AD6, offset: 0x1ADADC, size: 0x8, addend: 0x0, symName: __ZNSt3__114numeric_limitsIN4absl12lts_202401167uint128EE15tinyness_beforeE, symObjAddr: 0x1CC9, symBinAddr: 0x6B6B9, symSize: 0x0 }
  - { offsetInCU: 0x5AEA, offset: 0x1ADAF0, size: 0x8, addend: 0x0, symName: __ZNSt3__114numeric_limitsIN4absl12lts_202401166int128EE14is_specializedE, symObjAddr: 0x1CCA, symBinAddr: 0x6B6BA, symSize: 0x0 }
  - { offsetInCU: 0x5AFE, offset: 0x1ADB04, size: 0x8, addend: 0x0, symName: __ZNSt3__114numeric_limitsIN4absl12lts_202401166int128EE9is_signedE, symObjAddr: 0x1CCB, symBinAddr: 0x6B6BB, symSize: 0x0 }
  - { offsetInCU: 0x5B12, offset: 0x1ADB18, size: 0x8, addend: 0x0, symName: __ZNSt3__114numeric_limitsIN4absl12lts_202401166int128EE10is_integerE, symObjAddr: 0x1CCC, symBinAddr: 0x6B6BC, symSize: 0x0 }
  - { offsetInCU: 0x5B26, offset: 0x1ADB2C, size: 0x8, addend: 0x0, symName: __ZNSt3__114numeric_limitsIN4absl12lts_202401166int128EE8is_exactE, symObjAddr: 0x1CCD, symBinAddr: 0x6B6BD, symSize: 0x0 }
  - { offsetInCU: 0x5B3A, offset: 0x1ADB40, size: 0x8, addend: 0x0, symName: __ZNSt3__114numeric_limitsIN4absl12lts_202401166int128EE12has_infinityE, symObjAddr: 0x1CCE, symBinAddr: 0x6B6BE, symSize: 0x0 }
  - { offsetInCU: 0x5B4E, offset: 0x1ADB54, size: 0x8, addend: 0x0, symName: __ZNSt3__114numeric_limitsIN4absl12lts_202401166int128EE13has_quiet_NaNE, symObjAddr: 0x1CCF, symBinAddr: 0x6B6BF, symSize: 0x0 }
  - { offsetInCU: 0x5B62, offset: 0x1ADB68, size: 0x8, addend: 0x0, symName: __ZNSt3__114numeric_limitsIN4absl12lts_202401166int128EE17has_signaling_NaNE, symObjAddr: 0x1CD0, symBinAddr: 0x6B6C0, symSize: 0x0 }
  - { offsetInCU: 0x5B76, offset: 0x1ADB7C, size: 0x8, addend: 0x0, symName: __ZNSt3__114numeric_limitsIN4absl12lts_202401166int128EE10has_denormE, symObjAddr: 0x1CD4, symBinAddr: 0x6B6C4, symSize: 0x0 }
  - { offsetInCU: 0x5B8A, offset: 0x1ADB90, size: 0x8, addend: 0x0, symName: __ZNSt3__114numeric_limitsIN4absl12lts_202401166int128EE15has_denorm_lossE, symObjAddr: 0x1CD8, symBinAddr: 0x6B6C8, symSize: 0x0 }
  - { offsetInCU: 0x5B9E, offset: 0x1ADBA4, size: 0x8, addend: 0x0, symName: __ZNSt3__114numeric_limitsIN4absl12lts_202401166int128EE11round_styleE, symObjAddr: 0x1CDC, symBinAddr: 0x6B6CC, symSize: 0x0 }
  - { offsetInCU: 0x5BB2, offset: 0x1ADBB8, size: 0x8, addend: 0x0, symName: __ZNSt3__114numeric_limitsIN4absl12lts_202401166int128EE9is_iec559E, symObjAddr: 0x1CE0, symBinAddr: 0x6B6D0, symSize: 0x0 }
  - { offsetInCU: 0x5BC6, offset: 0x1ADBCC, size: 0x8, addend: 0x0, symName: __ZNSt3__114numeric_limitsIN4absl12lts_202401166int128EE10is_boundedE, symObjAddr: 0x1CE1, symBinAddr: 0x6B6D1, symSize: 0x0 }
  - { offsetInCU: 0x5BDA, offset: 0x1ADBE0, size: 0x8, addend: 0x0, symName: __ZNSt3__114numeric_limitsIN4absl12lts_202401166int128EE9is_moduloE, symObjAddr: 0x1CE2, symBinAddr: 0x6B6D2, symSize: 0x0 }
  - { offsetInCU: 0x5BEE, offset: 0x1ADBF4, size: 0x8, addend: 0x0, symName: __ZNSt3__114numeric_limitsIN4absl12lts_202401166int128EE6digitsE, symObjAddr: 0x1CE4, symBinAddr: 0x6B6D4, symSize: 0x0 }
  - { offsetInCU: 0x5C02, offset: 0x1ADC08, size: 0x8, addend: 0x0, symName: __ZNSt3__114numeric_limitsIN4absl12lts_202401166int128EE8digits10E, symObjAddr: 0x1CE8, symBinAddr: 0x6B6D8, symSize: 0x0 }
  - { offsetInCU: 0x5C16, offset: 0x1ADC1C, size: 0x8, addend: 0x0, symName: __ZNSt3__114numeric_limitsIN4absl12lts_202401166int128EE12max_digits10E, symObjAddr: 0x1CEC, symBinAddr: 0x6B6DC, symSize: 0x0 }
  - { offsetInCU: 0x5C2A, offset: 0x1ADC30, size: 0x8, addend: 0x0, symName: __ZNSt3__114numeric_limitsIN4absl12lts_202401166int128EE5radixE, symObjAddr: 0x1CF0, symBinAddr: 0x6B6E0, symSize: 0x0 }
  - { offsetInCU: 0x5C3E, offset: 0x1ADC44, size: 0x8, addend: 0x0, symName: __ZNSt3__114numeric_limitsIN4absl12lts_202401166int128EE12min_exponentE, symObjAddr: 0x1CF4, symBinAddr: 0x6B6E4, symSize: 0x0 }
  - { offsetInCU: 0x5C52, offset: 0x1ADC58, size: 0x8, addend: 0x0, symName: __ZNSt3__114numeric_limitsIN4absl12lts_202401166int128EE14min_exponent10E, symObjAddr: 0x1CF8, symBinAddr: 0x6B6E8, symSize: 0x0 }
  - { offsetInCU: 0x5C66, offset: 0x1ADC6C, size: 0x8, addend: 0x0, symName: __ZNSt3__114numeric_limitsIN4absl12lts_202401166int128EE12max_exponentE, symObjAddr: 0x1CFC, symBinAddr: 0x6B6EC, symSize: 0x0 }
  - { offsetInCU: 0x5C7A, offset: 0x1ADC80, size: 0x8, addend: 0x0, symName: __ZNSt3__114numeric_limitsIN4absl12lts_202401166int128EE14max_exponent10E, symObjAddr: 0x1D00, symBinAddr: 0x6B6F0, symSize: 0x0 }
  - { offsetInCU: 0x5C8E, offset: 0x1ADC94, size: 0x8, addend: 0x0, symName: __ZNSt3__114numeric_limitsIN4absl12lts_202401166int128EE5trapsE, symObjAddr: 0x1D04, symBinAddr: 0x6B6F4, symSize: 0x0 }
  - { offsetInCU: 0x5CA2, offset: 0x1ADCA8, size: 0x8, addend: 0x0, symName: __ZNSt3__114numeric_limitsIN4absl12lts_202401166int128EE15tinyness_beforeE, symObjAddr: 0x1D05, symBinAddr: 0x6B6F5, symSize: 0x0 }
  - { offsetInCU: 0x7CC8, offset: 0x1AFCCE, size: 0x8, addend: 0x0, symName: __ZN4absl12lts_202401167uint128C2Ef, symObjAddr: 0x0, symBinAddr: 0x349B0, symSize: 0x28 }
  - { offsetInCU: 0x7D45, offset: 0x1AFD4B, size: 0x8, addend: 0x0, symName: __ZN4absl12lts_2024011612_GLOBAL__N_120MakeUint128FromFloatIfEENS0_7uint128ET_.cold.1, symObjAddr: 0x1A68, symBinAddr: 0x62408, symSize: 0x24 }
  - { offsetInCU: 0x7D5D, offset: 0x1AFD63, size: 0x8, addend: 0x0, symName: __ZN4absl12lts_202401167uint128C1Ef, symObjAddr: 0xBC, symBinAddr: 0x34A6C, symSize: 0x28 }
  - { offsetInCU: 0x7DB0, offset: 0x1AFDB6, size: 0x8, addend: 0x0, symName: __ZN4absl12lts_202401167uint128C2Ed, symObjAddr: 0xE4, symBinAddr: 0x34A94, symSize: 0x28 }
  - { offsetInCU: 0x7E03, offset: 0x1AFE09, size: 0x8, addend: 0x0, symName: __ZN4absl12lts_2024011612_GLOBAL__N_120MakeUint128FromFloatIdEENS0_7uint128ET_.cold.1, symObjAddr: 0x1A8C, symBinAddr: 0x6242C, symSize: 0x24 }
  - { offsetInCU: 0x7E1B, offset: 0x1AFE21, size: 0x8, addend: 0x0, symName: __ZN4absl12lts_202401167uint128C1Ed, symObjAddr: 0x1B8, symBinAddr: 0x34B68, symSize: 0x28 }
  - { offsetInCU: 0x7E6E, offset: 0x1AFE74, size: 0x8, addend: 0x0, symName: __ZN4absl12lts_202401167uint128C2Ee, symObjAddr: 0x1E0, symBinAddr: 0x34B90, symSize: 0x28 }
  - { offsetInCU: 0x7EEB, offset: 0x1AFEF1, size: 0x8, addend: 0x0, symName: __ZN4absl12lts_2024011612_GLOBAL__N_120MakeUint128FromFloatIeEENS0_7uint128ET_.cold.1, symObjAddr: 0x1AB0, symBinAddr: 0x62450, symSize: 0x24 }
  - { offsetInCU: 0x7F03, offset: 0x1AFF09, size: 0x8, addend: 0x0, symName: __ZN4absl12lts_202401167uint128C1Ee, symObjAddr: 0x2B4, symBinAddr: 0x34C64, symSize: 0x28 }
  - { offsetInCU: 0x7F56, offset: 0x1AFF5C, size: 0x8, addend: 0x0, symName: __ZNK4absl12lts_202401167uint1288ToStringEv, symObjAddr: 0x2DC, symBinAddr: 0x34C8C, symSize: 0xC }
  - { offsetInCU: 0x85FC, offset: 0x1B0602, size: 0x8, addend: 0x0, symName: __ZNK4absl12lts_202401166int1288ToStringEv, symObjAddr: 0x96C, symBinAddr: 0x3531C, symSize: 0xDC }
  - { offsetInCU: 0x9269, offset: 0x1B126F, size: 0x8, addend: 0x0, symName: __ZN4absl12lts_2024011612_GLOBAL__N_120MakeUint128FromFloatIfEENS0_7uint128ET_.cold.1, symObjAddr: 0x1A68, symBinAddr: 0x62408, symSize: 0x24 }
  - { offsetInCU: 0x92ED, offset: 0x1B12F3, size: 0x8, addend: 0x0, symName: _OUTLINED_FUNCTION_0, symObjAddr: 0x1AD4, symBinAddr: 0x357E8, symSize: 0x8 }
  - { offsetInCU: 0x26, offset: 0x1B1350, size: 0x8, addend: 0x0, symName: __ZN4absl12lts_2024011624synchronization_internal13KernelTimeout14SteadyClockNowEv, symObjAddr: 0x0, symBinAddr: 0x357F0, symSize: 0x4 }
  - { offsetInCU: 0x48, offset: 0x1B1372, size: 0x8, addend: 0x0, symName: __ZN4absl12lts_2024011624synchronization_internal13KernelTimeout10kNoTimeoutE, symObjAddr: 0x4A0, symBinAddr: 0x6B740, symSize: 0x0 }
  - { offsetInCU: 0x5C, offset: 0x1B1386, size: 0x8, addend: 0x0, symName: __ZN4absl12lts_2024011624synchronization_internal13KernelTimeout9kMaxNanosE, symObjAddr: 0x4A8, symBinAddr: 0x6B748, symSize: 0x0 }
  - { offsetInCU: 0x2E33, offset: 0x1B415D, size: 0x8, addend: 0x0, symName: __ZN4absl12lts_2024011624synchronization_internal13KernelTimeout14SteadyClockNowEv, symObjAddr: 0x0, symBinAddr: 0x357F0, symSize: 0x4 }
  - { offsetInCU: 0x2E47, offset: 0x1B4171, size: 0x8, addend: 0x0, symName: __ZN4absl12lts_2024011624synchronization_internal13KernelTimeoutC2ENS0_4TimeE, symObjAddr: 0x4, symBinAddr: 0x357F4, symSize: 0x68 }
  - { offsetInCU: 0x2EFC, offset: 0x1B4226, size: 0x8, addend: 0x0, symName: __ZN4absl12lts_2024011624synchronization_internal13KernelTimeoutC1ENS0_4TimeE, symObjAddr: 0x6C, symBinAddr: 0x3585C, symSize: 0x8 }
  - { offsetInCU: 0x2F57, offset: 0x1B4281, size: 0x8, addend: 0x0, symName: __ZN4absl12lts_2024011624synchronization_internal13KernelTimeoutC2ENS0_8DurationE, symObjAddr: 0x74, symBinAddr: 0x35864, symSize: 0x78 }
  - { offsetInCU: 0x3007, offset: 0x1B4331, size: 0x8, addend: 0x0, symName: __ZN4absl12lts_2024011624synchronization_internal13KernelTimeoutC1ENS0_8DurationE, symObjAddr: 0xEC, symBinAddr: 0x358DC, symSize: 0x8 }
  - { offsetInCU: 0x308B, offset: 0x1B43B5, size: 0x8, addend: 0x0, symName: __ZNK4absl12lts_2024011624synchronization_internal13KernelTimeout12MakeAbsNanosEv, symObjAddr: 0xF4, symBinAddr: 0x358E4, symSize: 0x68 }
  - { offsetInCU: 0x3131, offset: 0x1B445B, size: 0x8, addend: 0x0, symName: __ZNK4absl12lts_2024011624synchronization_internal13KernelTimeout20InNanosecondsFromNowEv, symObjAddr: 0x15C, symBinAddr: 0x3594C, symSize: 0x4C }
  - { offsetInCU: 0x31BA, offset: 0x1B44E4, size: 0x8, addend: 0x0, symName: __ZNK4absl12lts_2024011624synchronization_internal13KernelTimeout15MakeAbsTimespecEv, symObjAddr: 0x1A8, symBinAddr: 0x35998, symSize: 0x5C }
  - { offsetInCU: 0x3268, offset: 0x1B4592, size: 0x8, addend: 0x0, symName: __ZNK4absl12lts_2024011624synchronization_internal13KernelTimeout20MakeRelativeTimespecEv, symObjAddr: 0x204, symBinAddr: 0x359F4, symSize: 0x5C }
  - { offsetInCU: 0x3316, offset: 0x1B4640, size: 0x8, addend: 0x0, symName: __ZNK4absl12lts_2024011624synchronization_internal13KernelTimeout25MakeClockAbsoluteTimespecE9clockid_t, symObjAddr: 0x260, symBinAddr: 0x35A50, symSize: 0x128 }
  - { offsetInCU: 0x34BF, offset: 0x1B47E9, size: 0x8, addend: 0x0, symName: __ZNK4absl12lts_2024011624synchronization_internal13KernelTimeout21InMillisecondsFromNowEv, symObjAddr: 0x388, symBinAddr: 0x35B78, symSize: 0x4C }
  - { offsetInCU: 0x34E6, offset: 0x1B4810, size: 0x8, addend: 0x0, symName: __ZNK4absl12lts_2024011624synchronization_internal13KernelTimeout25MakeClockAbsoluteTimespecE9clockid_t.cold.1, symObjAddr: 0x444, symBinAddr: 0x62474, symSize: 0x5C }
  - { offsetInCU: 0x34FE, offset: 0x1B4828, size: 0x8, addend: 0x0, symName: __ZNK4absl12lts_2024011624synchronization_internal13KernelTimeout21InMillisecondsFromNowEv, symObjAddr: 0x388, symBinAddr: 0x35B78, symSize: 0x4C }
  - { offsetInCU: 0x35CA, offset: 0x1B48F4, size: 0x8, addend: 0x0, symName: __ZNK4absl12lts_2024011624synchronization_internal13KernelTimeout17ToChronoTimePointEv, symObjAddr: 0x3D4, symBinAddr: 0x35BC4, symSize: 0x58 }
  - { offsetInCU: 0x367D, offset: 0x1B49A7, size: 0x8, addend: 0x0, symName: __ZNK4absl12lts_2024011624synchronization_internal13KernelTimeout16ToChronoDurationEv, symObjAddr: 0x42C, symBinAddr: 0x35C1C, symSize: 0x18 }
  - { offsetInCU: 0x36A8, offset: 0x1B49D2, size: 0x8, addend: 0x0, symName: __ZNK4absl12lts_2024011624synchronization_internal13KernelTimeout16ToChronoDurationEv, symObjAddr: 0x42C, symBinAddr: 0x35C1C, symSize: 0x18 }
  - { offsetInCU: 0x33E2, offset: 0x1B7DE9, size: 0x8, addend: 0x0, symName: __ZN4absl12lts_20240116lsERNSt3__113basic_ostreamIcNS1_11char_traitsIcEEEENS0_11LogSeverityE, symObjAddr: 0x0, symBinAddr: 0x35C34, symSize: 0x9C }
  - { offsetInCU: 0x352E, offset: 0x1B7F35, size: 0x8, addend: 0x0, symName: __ZN4absl12lts_20240116lsERNSt3__113basic_ostreamIcNS1_11char_traitsIcEEEENS0_18LogSeverityAtLeastE, symObjAddr: 0x9C, symBinAddr: 0x35CD0, symSize: 0x64 }
  - { offsetInCU: 0x35EF, offset: 0x1B7FF6, size: 0x8, addend: 0x0, symName: __ZN4absl12lts_20240116lsERNSt3__113basic_ostreamIcNS1_11char_traitsIcEEEENS0_17LogSeverityAtMostE, symObjAddr: 0x100, symBinAddr: 0x35D34, symSize: 0x64 }
  - { offsetInCU: 0x67, offset: 0x1BA611, size: 0x8, addend: 0x0, symName: __ZN4absl12lts_2024011613base_internal12_GLOBAL__N_119create_globals_onceE, symObjAddr: 0x13318, symBinAddr: 0x7EB10, symSize: 0x0 }
  - { offsetInCU: 0x82, offset: 0x1BA62C, size: 0x8, addend: 0x0, symName: __ZN4absl12lts_2024011613base_internal12_GLOBAL__N_122unhooked_arena_storageE, symObjAddr: 0x13320, symBinAddr: 0x7EB18, symSize: 0x0 }
  - { offsetInCU: 0x9D, offset: 0x1BA647, size: 0x8, addend: 0x0, symName: __ZN4absl12lts_2024011613base_internal12_GLOBAL__N_137unhooked_async_sig_safe_arena_storageE, symObjAddr: 0x13468, symBinAddr: 0x7EC60, symSize: 0x0 }
  - { offsetInCU: 0xB8, offset: 0x1BA662, size: 0x8, addend: 0x0, symName: __ZN4absl12lts_2024011613base_internal12_GLOBAL__N_121default_arena_storageE, symObjAddr: 0x131D0, symBinAddr: 0x7E9C8, symSize: 0x0 }
  - { offsetInCU: 0x130, offset: 0x1BA6DA, size: 0x8, addend: 0x0, symName: __ZN4absl12lts_2024011613base_internal12_GLOBAL__N_118CreateGlobalArenasEv, symObjAddr: 0x48, symBinAddr: 0x35DE0, symSize: 0x3C }
  - { offsetInCU: 0x2ED, offset: 0x1BA897, size: 0x8, addend: 0x0, symName: __ZN4absl12lts_2024011613base_internal12CallOnceImplIRFvvEJEEEvPNSt3__16atomicIjEENS1_14SchedulingModeEOT_DpOT0_, symObjAddr: 0x1100, symBinAddr: 0x36E8C, symSize: 0x11C }
  - { offsetInCU: 0x313, offset: 0x1BA8BD, size: 0x8, addend: 0x0, symName: __ZZN4absl12lts_2024011613base_internal12CallOnceImplIRFvvEJEEEvPNSt3__16atomicIjEENS1_14SchedulingModeEOT_DpOT0_E5trans, symObjAddr: 0x1C30, symBinAddr: 0x6B760, symSize: 0x0 }
  - { offsetInCU: 0x6CD, offset: 0x1BAC77, size: 0x8, addend: 0x0, symName: __ZN4absl12lts_2024011613base_internalL16DoAllocWithArenaEmPNS1_13LowLevelAlloc5ArenaE, symObjAddr: 0x864, symBinAddr: 0x365FC, symSize: 0x5A0 }
  - { offsetInCU: 0xD39, offset: 0x1BB2E3, size: 0x8, addend: 0x0, symName: __ZN4absl12lts_2024011613base_internalL13AddToFreelistEPvPNS1_13LowLevelAlloc5ArenaE, symObjAddr: 0x740, symBinAddr: 0x364D8, symSize: 0xCC }
  - { offsetInCU: 0xE8D, offset: 0x1BB437, size: 0x8, addend: 0x0, symName: __ZN4absl12lts_2024011613base_internalL18LLA_SkiplistLevelsEmmPj, symObjAddr: 0xE10, symBinAddr: 0x36B9C, symSize: 0x90 }
  - { offsetInCU: 0xF84, offset: 0x1BB52E, size: 0x8, addend: 0x0, symName: __ZN4absl12lts_2024011613base_internalL18LLA_SkiplistInsertEPNS1_12_GLOBAL__N_19AllocListES4_PS4_, symObjAddr: 0xEA0, symBinAddr: 0x36C2C, symSize: 0xB4 }
  - { offsetInCU: 0xF8E, offset: 0x1BB538, size: 0x8, addend: 0x0, symName: __ZN4absl12lts_2024011613base_internalL18LLA_SkiplistInsertEPNS1_12_GLOBAL__N_19AllocListES4_PS4_, symObjAddr: 0xEA0, symBinAddr: 0x36C2C, symSize: 0xB4 }
  - { offsetInCU: 0x103E, offset: 0x1BB5E8, size: 0x8, addend: 0x0, symName: __ZN4absl12lts_2024011613base_internalL8CoalesceEPNS1_12_GLOBAL__N_19AllocListE, symObjAddr: 0xF54, symBinAddr: 0x36CE0, symSize: 0xC8 }
  - { offsetInCU: 0x120C, offset: 0x1BB7B6, size: 0x8, addend: 0x0, symName: __ZN4absl12lts_2024011613base_internalL18LLA_SkiplistDeleteEPNS1_12_GLOBAL__N_19AllocListES4_PS4_, symObjAddr: 0x101C, symBinAddr: 0x36DA8, symSize: 0xE4 }
  - { offsetInCU: 0x12F5, offset: 0x1BB89F, size: 0x8, addend: 0x0, symName: __ZN4absl12lts_2024011613base_internal12CallOnceImplIRFvvEJEEEvPNSt3__16atomicIjEENS1_14SchedulingModeEOT_DpOT0_, symObjAddr: 0x1100, symBinAddr: 0x36E8C, symSize: 0x11C }
  - { offsetInCU: 0x4002, offset: 0x1BE5AC, size: 0x8, addend: 0x0, symName: __ZN4absl12lts_2024011613base_internal13LowLevelAlloc12DefaultArenaEv, symObjAddr: 0x0, symBinAddr: 0x35D98, symSize: 0x48 }
  - { offsetInCU: 0x40C3, offset: 0x1BE66D, size: 0x8, addend: 0x0, symName: __ZN4absl12lts_2024011613base_internal13LowLevelAlloc5ArenaC2Ej, symObjAddr: 0x84, symBinAddr: 0x35E1C, symSize: 0x90 }
  - { offsetInCU: 0x416C, offset: 0x1BE716, size: 0x8, addend: 0x0, symName: __ZN4absl12lts_2024011613base_internal13LowLevelAlloc5ArenaC1Ej, symObjAddr: 0x114, symBinAddr: 0x35EAC, symSize: 0x4 }
  - { offsetInCU: 0x4195, offset: 0x1BE73F, size: 0x8, addend: 0x0, symName: __ZN4absl12lts_2024011613base_internal13LowLevelAlloc5ArenaC1Ej, symObjAddr: 0x114, symBinAddr: 0x35EAC, symSize: 0x4 }
  - { offsetInCU: 0x41FB, offset: 0x1BE7A5, size: 0x8, addend: 0x0, symName: __ZN4absl12lts_2024011613base_internal13LowLevelAlloc8NewArenaEj, symObjAddr: 0x118, symBinAddr: 0x35EB0, symSize: 0xB0 }
  - { offsetInCU: 0x447D, offset: 0x1BEA27, size: 0x8, addend: 0x0, symName: __ZN4absl12lts_2024011613base_internal13LowLevelAlloc14AllocWithArenaEmPNS2_5ArenaE, symObjAddr: 0x1C8, symBinAddr: 0x35F60, symSize: 0x14 }
  - { offsetInCU: 0x44CA, offset: 0x1BEA74, size: 0x8, addend: 0x0, symName: __ZN4absl12lts_2024011613base_internal13LowLevelAlloc11DeleteArenaEPNS2_5ArenaE, symObjAddr: 0x1DC, symBinAddr: 0x35F74, symSize: 0x314 }
  - { offsetInCU: 0x44D5, offset: 0x1BEA7F, size: 0x8, addend: 0x0, symName: __ZN4absl12lts_2024011613base_internal13LowLevelAlloc14AllocWithArenaEmPNS2_5ArenaE.cold.1, symObjAddr: 0x121C, symBinAddr: 0x624D0, symSize: 0x5C }
  - { offsetInCU: 0x44ED, offset: 0x1BEA97, size: 0x8, addend: 0x0, symName: __ZN4absl12lts_2024011613base_internal13LowLevelAlloc11DeleteArenaEPNS2_5ArenaE, symObjAddr: 0x1DC, symBinAddr: 0x35F74, symSize: 0x314 }
  - { offsetInCU: 0x4873, offset: 0x1BEE1D, size: 0x8, addend: 0x0, symName: __ZN4absl12lts_2024011613base_internal12_GLOBAL__N_19ArenaLockC1EPNS1_13LowLevelAlloc5ArenaE, symObjAddr: 0x4F0, symBinAddr: 0x36288, symSize: 0x98 }
  - { offsetInCU: 0x4A13, offset: 0x1BEFBD, size: 0x8, addend: 0x0, symName: __ZN4absl12lts_2024011613base_internal12_GLOBAL__N_19ArenaLock5LeaveEv, symObjAddr: 0x588, symBinAddr: 0x36320, symSize: 0x6C }
  - { offsetInCU: 0x4B34, offset: 0x1BF0DE, size: 0x8, addend: 0x0, symName: __ZN4absl12lts_2024011613base_internal13LowLevelAlloc4FreeEPv, symObjAddr: 0x5F4, symBinAddr: 0x3638C, symSize: 0xD4 }
  - { offsetInCU: 0x4B59, offset: 0x1BF103, size: 0x8, addend: 0x0, symName: __ZN4absl12lts_2024011613base_internal13LowLevelAlloc4FreeEPv, symObjAddr: 0x5F4, symBinAddr: 0x3638C, symSize: 0xD4 }
  - { offsetInCU: 0x4C5A, offset: 0x1BF204, size: 0x8, addend: 0x0, symName: __ZN4absl12lts_2024011613base_internal12_GLOBAL__N_19ArenaLockD1Ev, symObjAddr: 0x6C8, symBinAddr: 0x36460, symSize: 0x78 }
  - { offsetInCU: 0x4CB6, offset: 0x1BF260, size: 0x8, addend: 0x0, symName: __ZN4absl12lts_2024011613base_internal13LowLevelAlloc11DeleteArenaEPNS2_5ArenaE.cold.1, symObjAddr: 0x1278, symBinAddr: 0x6252C, symSize: 0x5C }
  - { offsetInCU: 0x4E4D, offset: 0x1BF3F7, size: 0x8, addend: 0x0, symName: __ZN4absl12lts_2024011613base_internal12_GLOBAL__N_19ArenaLock5LeaveEv.cold.1, symObjAddr: 0x12D4, symBinAddr: 0x62588, symSize: 0x4C }
  - { offsetInCU: 0x4E8D, offset: 0x1BF437, size: 0x8, addend: 0x0, symName: __ZN4absl12lts_2024011613base_internalL13AddToFreelistEPvPNS1_13LowLevelAlloc5ArenaE.cold.2, symObjAddr: 0x137C, symBinAddr: 0x62630, symSize: 0x5C }
  - { offsetInCU: 0x4EA5, offset: 0x1BF44F, size: 0x8, addend: 0x0, symName: __ZN4absl12lts_2024011613base_internalL13AddToFreelistEPvPNS1_13LowLevelAlloc5ArenaE.cold.1, symObjAddr: 0x1320, symBinAddr: 0x625D4, symSize: 0x5C }
  - { offsetInCU: 0x4EBD, offset: 0x1BF467, size: 0x8, addend: 0x0, symName: __ZN4absl12lts_2024011613base_internal13LowLevelAlloc5AllocEm, symObjAddr: 0x80C, symBinAddr: 0x365A4, symSize: 0x58 }
  - { offsetInCU: 0x4FD6, offset: 0x1BF580, size: 0x8, addend: 0x0, symName: __ZN4absl12lts_2024011613base_internalL18LLA_SkiplistLevelsEmmPj.cold.1, symObjAddr: 0x13D8, symBinAddr: 0x6268C, symSize: 0x5C }
  - { offsetInCU: 0x4FF3, offset: 0x1BF59D, size: 0x8, addend: 0x0, symName: __ZN4absl12lts_2024011613base_internalL18LLA_SkiplistDeleteEPNS1_12_GLOBAL__N_19AllocListES4_PS4_.cold.1, symObjAddr: 0x1434, symBinAddr: 0x626E8, symSize: 0x5C }
  - { offsetInCU: 0x26, offset: 0x1BF64D, size: 0x8, addend: 0x0, symName: __ZN4absl12lts_2024011613hash_internal12LowLevelHashEPKvmyPKy, symObjAddr: 0x0, symBinAddr: 0x36FA8, symSize: 0x174 }
  - { offsetInCU: 0x2AE0, offset: 0x1C2107, size: 0x8, addend: 0x0, symName: __ZN4absl12lts_2024011613hash_internal12LowLevelHashEPKvmyPKy, symObjAddr: 0x0, symBinAddr: 0x36FA8, symSize: 0x174 }
  - { offsetInCU: 0x529, offset: 0x1C2C8F, size: 0x8, addend: 0x0, symName: __ZN4absl12lts_2024011616strings_internal13JoinAlgorithmINSt3__111__wrap_iterIPKNS3_12basic_stringIcNS3_11char_traitsIcEENS3_9allocatorIcEEEEEEvEESA_T_SE_NS0_11string_viewENS1_11NoFormatterE, symObjAddr: 0x2800, symBinAddr: 0x38DD4, symSize: 0x168 }
  - { offsetInCU: 0xEB4, offset: 0x1C361A, size: 0x8, addend: 0x0, symName: __ZN4absl12lts_2024011614flags_internal13AbslParseFlagENS0_11string_viewEPbPNSt3__112basic_stringIcNS4_11char_traitsIcEENS4_9allocatorIcEEEE, symObjAddr: 0x0, symBinAddr: 0x3711C, symSize: 0x16C }
  - { offsetInCU: 0x1166, offset: 0x1C38CC, size: 0x8, addend: 0x0, symName: __ZN4absl12lts_2024011614flags_internal13AbslParseFlagENS0_11string_viewEPsPNSt3__112basic_stringIcNS4_11char_traitsIcEENS4_9allocatorIcEEEE, symObjAddr: 0x16C, symBinAddr: 0x37288, symSize: 0xF0 }
  - { offsetInCU: 0x1355, offset: 0x1C3ABB, size: 0x8, addend: 0x0, symName: __ZN4absl12lts_2024011614flags_internalL11NumericBaseENS0_11string_viewE, symObjAddr: 0x96C, symBinAddr: 0x37A88, symSize: 0x90 }
  - { offsetInCU: 0x1403, offset: 0x1C3B69, size: 0x8, addend: 0x0, symName: __ZN4absl12lts_2024011614flags_internal13AbslParseFlagENS0_11string_viewEPNS0_7uint128EPNSt3__112basic_stringIcNS5_11char_traitsIcEENS5_9allocatorIcEEEE, symObjAddr: 0x9FC, symBinAddr: 0x37B18, symSize: 0xF8 }
  - { offsetInCU: 0x143D, offset: 0x1C3BA3, size: 0x8, addend: 0x0, symName: __ZN4absl12lts_2024011614flags_internal13AbslParseFlagENS0_11string_viewEPtPNSt3__112basic_stringIcNS4_11char_traitsIcEENS4_9allocatorIcEEEE, symObjAddr: 0x25C, symBinAddr: 0x37378, symSize: 0xF0 }
  - { offsetInCU: 0x162C, offset: 0x1C3D92, size: 0x8, addend: 0x0, symName: __ZN4absl12lts_2024011614flags_internal13AbslParseFlagENS0_11string_viewEPiPNSt3__112basic_stringIcNS4_11char_traitsIcEENS4_9allocatorIcEEEE, symObjAddr: 0x34C, symBinAddr: 0x37468, symSize: 0xDC }
  - { offsetInCU: 0x1807, offset: 0x1C3F6D, size: 0x8, addend: 0x0, symName: __ZN4absl12lts_2024011614flags_internal13AbslParseFlagENS0_11string_viewEPjPNSt3__112basic_stringIcNS4_11char_traitsIcEENS4_9allocatorIcEEEE, symObjAddr: 0x428, symBinAddr: 0x37544, symSize: 0xDC }
  - { offsetInCU: 0x1A15, offset: 0x1C417B, size: 0x8, addend: 0x0, symName: __ZN4absl12lts_2024011614flags_internal13AbslParseFlagENS0_11string_viewEPlPNSt3__112basic_stringIcNS4_11char_traitsIcEENS4_9allocatorIcEEEE, symObjAddr: 0x504, symBinAddr: 0x37620, symSize: 0xDC }
  - { offsetInCU: 0x1C23, offset: 0x1C4389, size: 0x8, addend: 0x0, symName: __ZN4absl12lts_2024011614flags_internal13AbslParseFlagENS0_11string_viewEPmPNSt3__112basic_stringIcNS4_11char_traitsIcEENS4_9allocatorIcEEEE, symObjAddr: 0x5E0, symBinAddr: 0x376FC, symSize: 0xDC }
  - { offsetInCU: 0x1E31, offset: 0x1C4597, size: 0x8, addend: 0x0, symName: __ZN4absl12lts_2024011614flags_internal13AbslParseFlagENS0_11string_viewEPxPNSt3__112basic_stringIcNS4_11char_traitsIcEENS4_9allocatorIcEEEE, symObjAddr: 0x6BC, symBinAddr: 0x377D8, symSize: 0xDC }
  - { offsetInCU: 0x203F, offset: 0x1C47A5, size: 0x8, addend: 0x0, symName: __ZN4absl12lts_2024011614flags_internal13AbslParseFlagENS0_11string_viewEPyPNSt3__112basic_stringIcNS4_11char_traitsIcEENS4_9allocatorIcEEEE, symObjAddr: 0x798, symBinAddr: 0x378B4, symSize: 0xDC }
  - { offsetInCU: 0x221D, offset: 0x1C4983, size: 0x8, addend: 0x0, symName: __ZN4absl12lts_2024011614flags_internal13AbslParseFlagENS0_11string_viewEPNS0_6int128EPNSt3__112basic_stringIcNS5_11char_traitsIcEENS5_9allocatorIcEEEE, symObjAddr: 0x874, symBinAddr: 0x37990, symSize: 0xF8 }
  - { offsetInCU: 0x23D3, offset: 0x1C4B39, size: 0x8, addend: 0x0, symName: __ZN4absl12lts_2024011614flags_internal13AbslParseFlagENS0_11string_viewEPNS0_7uint128EPNSt3__112basic_stringIcNS5_11char_traitsIcEENS5_9allocatorIcEEEE, symObjAddr: 0x9FC, symBinAddr: 0x37B18, symSize: 0xF8 }
  - { offsetInCU: 0x2589, offset: 0x1C4CEF, size: 0x8, addend: 0x0, symName: __ZN4absl12lts_2024011614flags_internal13AbslParseFlagENS0_11string_viewEPfPNSt3__112basic_stringIcNS4_11char_traitsIcEENS4_9allocatorIcEEEE, symObjAddr: 0xAF4, symBinAddr: 0x37C10, symSize: 0x4 }
  - { offsetInCU: 0x25B4, offset: 0x1C4D1A, size: 0x8, addend: 0x0, symName: __ZN4absl12lts_2024011614flags_internal13AbslParseFlagENS0_11string_viewEPfPNSt3__112basic_stringIcNS4_11char_traitsIcEENS4_9allocatorIcEEEE, symObjAddr: 0xAF4, symBinAddr: 0x37C10, symSize: 0x4 }
  - { offsetInCU: 0x25D4, offset: 0x1C4D3A, size: 0x8, addend: 0x0, symName: __ZN4absl12lts_2024011614flags_internal13AbslParseFlagENS0_11string_viewEPdPNSt3__112basic_stringIcNS4_11char_traitsIcEENS4_9allocatorIcEEEE, symObjAddr: 0xAF8, symBinAddr: 0x37C14, symSize: 0x4 }
  - { offsetInCU: 0x25FF, offset: 0x1C4D65, size: 0x8, addend: 0x0, symName: __ZN4absl12lts_2024011614flags_internal13AbslParseFlagENS0_11string_viewEPdPNSt3__112basic_stringIcNS4_11char_traitsIcEENS4_9allocatorIcEEEE, symObjAddr: 0xAF8, symBinAddr: 0x37C14, symSize: 0x4 }
  - { offsetInCU: 0x261F, offset: 0x1C4D85, size: 0x8, addend: 0x0, symName: __ZN4absl12lts_2024011614flags_internal13AbslParseFlagENS0_11string_viewEPNSt3__112basic_stringIcNS3_11char_traitsIcEENS3_9allocatorIcEEEESA_, symObjAddr: 0xAFC, symBinAddr: 0x37C18, symSize: 0x28 }
  - { offsetInCU: 0x2667, offset: 0x1C4DCD, size: 0x8, addend: 0x0, symName: __ZN4absl12lts_2024011614flags_internal13AbslParseFlagENS0_11string_viewEPNSt3__16vectorINS3_12basic_stringIcNS3_11char_traitsIcEENS3_9allocatorIcEEEENS8_ISA_EEEEPSA_, symObjAddr: 0xB24, symBinAddr: 0x37C40, symSize: 0x7C }
  - { offsetInCU: 0x282D, offset: 0x1C4F93, size: 0x8, addend: 0x0, symName: __ZN4absl12lts_2024011614flags_internal7UnparseEb, symObjAddr: 0xBA0, symBinAddr: 0x37CBC, symSize: 0x20 }
  - { offsetInCU: 0x2892, offset: 0x1C4FF8, size: 0x8, addend: 0x0, symName: __ZN4absl12lts_2024011614flags_internal7UnparseEs, symObjAddr: 0xBC0, symBinAddr: 0x37CDC, symSize: 0x4 }
  - { offsetInCU: 0x28C0, offset: 0x1C5026, size: 0x8, addend: 0x0, symName: __ZN4absl12lts_2024011614flags_internal7UnparseEs, symObjAddr: 0xBC0, symBinAddr: 0x37CDC, symSize: 0x4 }
  - { offsetInCU: 0x28DC, offset: 0x1C5042, size: 0x8, addend: 0x0, symName: __ZN4absl12lts_2024011614flags_internal7UnparseEs, symObjAddr: 0xBC0, symBinAddr: 0x37CDC, symSize: 0x4 }
  - { offsetInCU: 0x28F5, offset: 0x1C505B, size: 0x8, addend: 0x0, symName: __ZN4absl12lts_2024011614flags_internal7UnparseEt, symObjAddr: 0xBC4, symBinAddr: 0x37CE0, symSize: 0x4 }
  - { offsetInCU: 0x2923, offset: 0x1C5089, size: 0x8, addend: 0x0, symName: __ZN4absl12lts_2024011614flags_internal7UnparseEt, symObjAddr: 0xBC4, symBinAddr: 0x37CE0, symSize: 0x4 }
  - { offsetInCU: 0x293F, offset: 0x1C50A5, size: 0x8, addend: 0x0, symName: __ZN4absl12lts_2024011614flags_internal7UnparseEt, symObjAddr: 0xBC4, symBinAddr: 0x37CE0, symSize: 0x4 }
  - { offsetInCU: 0x2958, offset: 0x1C50BE, size: 0x8, addend: 0x0, symName: __ZN4absl12lts_2024011614flags_internal7UnparseEi, symObjAddr: 0xBC8, symBinAddr: 0x37CE4, symSize: 0x4 }
  - { offsetInCU: 0x2977, offset: 0x1C50DD, size: 0x8, addend: 0x0, symName: __ZN4absl12lts_2024011614flags_internal7UnparseEi, symObjAddr: 0xBC8, symBinAddr: 0x37CE4, symSize: 0x4 }
  - { offsetInCU: 0x2993, offset: 0x1C50F9, size: 0x8, addend: 0x0, symName: __ZN4absl12lts_2024011614flags_internal7UnparseEi, symObjAddr: 0xBC8, symBinAddr: 0x37CE4, symSize: 0x4 }
  - { offsetInCU: 0x29AC, offset: 0x1C5112, size: 0x8, addend: 0x0, symName: __ZN4absl12lts_2024011614flags_internal7UnparseEj, symObjAddr: 0xBCC, symBinAddr: 0x37CE8, symSize: 0x4 }
  - { offsetInCU: 0x29DA, offset: 0x1C5140, size: 0x8, addend: 0x0, symName: __ZN4absl12lts_2024011614flags_internal7UnparseEj, symObjAddr: 0xBCC, symBinAddr: 0x37CE8, symSize: 0x4 }
  - { offsetInCU: 0x29F6, offset: 0x1C515C, size: 0x8, addend: 0x0, symName: __ZN4absl12lts_2024011614flags_internal7UnparseEj, symObjAddr: 0xBCC, symBinAddr: 0x37CE8, symSize: 0x4 }
  - { offsetInCU: 0x2A0F, offset: 0x1C5175, size: 0x8, addend: 0x0, symName: __ZN4absl12lts_2024011614flags_internal7UnparseEl, symObjAddr: 0xBD0, symBinAddr: 0x37CEC, symSize: 0x4 }
  - { offsetInCU: 0x2A3D, offset: 0x1C51A3, size: 0x8, addend: 0x0, symName: __ZN4absl12lts_2024011614flags_internal7UnparseEl, symObjAddr: 0xBD0, symBinAddr: 0x37CEC, symSize: 0x4 }
  - { offsetInCU: 0x2A59, offset: 0x1C51BF, size: 0x8, addend: 0x0, symName: __ZN4absl12lts_2024011614flags_internal7UnparseEl, symObjAddr: 0xBD0, symBinAddr: 0x37CEC, symSize: 0x4 }
  - { offsetInCU: 0x2A72, offset: 0x1C51D8, size: 0x8, addend: 0x0, symName: __ZN4absl12lts_2024011614flags_internal7UnparseEm, symObjAddr: 0xBD4, symBinAddr: 0x37CF0, symSize: 0x4 }
  - { offsetInCU: 0x2AA0, offset: 0x1C5206, size: 0x8, addend: 0x0, symName: __ZN4absl12lts_2024011614flags_internal7UnparseEm, symObjAddr: 0xBD4, symBinAddr: 0x37CF0, symSize: 0x4 }
  - { offsetInCU: 0x2ABC, offset: 0x1C5222, size: 0x8, addend: 0x0, symName: __ZN4absl12lts_2024011614flags_internal7UnparseEm, symObjAddr: 0xBD4, symBinAddr: 0x37CF0, symSize: 0x4 }
  - { offsetInCU: 0x2AD5, offset: 0x1C523B, size: 0x8, addend: 0x0, symName: __ZN4absl12lts_2024011614flags_internal7UnparseEx, symObjAddr: 0xBD8, symBinAddr: 0x37CF4, symSize: 0x4 }
  - { offsetInCU: 0x2B03, offset: 0x1C5269, size: 0x8, addend: 0x0, symName: __ZN4absl12lts_2024011614flags_internal7UnparseEx, symObjAddr: 0xBD8, symBinAddr: 0x37CF4, symSize: 0x4 }
  - { offsetInCU: 0x2B1F, offset: 0x1C5285, size: 0x8, addend: 0x0, symName: __ZN4absl12lts_2024011614flags_internal7UnparseEx, symObjAddr: 0xBD8, symBinAddr: 0x37CF4, symSize: 0x4 }
  - { offsetInCU: 0x2B38, offset: 0x1C529E, size: 0x8, addend: 0x0, symName: __ZN4absl12lts_2024011614flags_internal7UnparseEy, symObjAddr: 0xBDC, symBinAddr: 0x37CF8, symSize: 0x4 }
  - { offsetInCU: 0x2B66, offset: 0x1C52CC, size: 0x8, addend: 0x0, symName: __ZN4absl12lts_2024011614flags_internal7UnparseEy, symObjAddr: 0xBDC, symBinAddr: 0x37CF8, symSize: 0x4 }
  - { offsetInCU: 0x2B82, offset: 0x1C52E8, size: 0x8, addend: 0x0, symName: __ZN4absl12lts_2024011614flags_internal7UnparseEy, symObjAddr: 0xBDC, symBinAddr: 0x37CF8, symSize: 0x4 }
  - { offsetInCU: 0x2B9B, offset: 0x1C5301, size: 0x8, addend: 0x0, symName: __ZN4absl12lts_2024011614flags_internal7UnparseENS0_6int128E, symObjAddr: 0xBE0, symBinAddr: 0x37CFC, symSize: 0xE8 }
  - { offsetInCU: 0x2DC6, offset: 0x1C552C, size: 0x8, addend: 0x0, symName: __ZN4absl12lts_2024011614flags_internal7UnparseENS0_7uint128E, symObjAddr: 0xE44, symBinAddr: 0x37DE4, symSize: 0xE8 }
  - { offsetInCU: 0x2FF1, offset: 0x1C5757, size: 0x8, addend: 0x0, symName: __ZN4absl12lts_2024011614flags_internal7UnparseEf, symObjAddr: 0xF2C, symBinAddr: 0x37ECC, symSize: 0x4 }
  - { offsetInCU: 0x3020, offset: 0x1C5786, size: 0x8, addend: 0x0, symName: __ZN4absl12lts_2024011614flags_internal7UnparseEf, symObjAddr: 0xF2C, symBinAddr: 0x37ECC, symSize: 0x4 }
  - { offsetInCU: 0x303B, offset: 0x1C57A1, size: 0x8, addend: 0x0, symName: __ZN4absl12lts_2024011614flags_internal23UnparseFloatingPointValIfEENSt3__112basic_stringIcNS3_11char_traitsIcEENS3_9allocatorIcEEEET_, symObjAddr: 0xF30, symBinAddr: 0x37ED0, symSize: 0x168 }
  - { offsetInCU: 0x3601, offset: 0x1C5D67, size: 0x8, addend: 0x0, symName: __ZN4absl12lts_2024011614flags_internal7UnparseEd, symObjAddr: 0x1098, symBinAddr: 0x38038, symSize: 0x4 }
  - { offsetInCU: 0x3630, offset: 0x1C5D96, size: 0x8, addend: 0x0, symName: __ZN4absl12lts_2024011614flags_internal7UnparseEd, symObjAddr: 0x1098, symBinAddr: 0x38038, symSize: 0x4 }
  - { offsetInCU: 0x364B, offset: 0x1C5DB1, size: 0x8, addend: 0x0, symName: __ZN4absl12lts_2024011614flags_internal23UnparseFloatingPointValIdEENSt3__112basic_stringIcNS3_11char_traitsIcEENS3_9allocatorIcEEEET_, symObjAddr: 0x109C, symBinAddr: 0x3803C, symSize: 0x168 }
  - { offsetInCU: 0x3BFB, offset: 0x1C6361, size: 0x8, addend: 0x0, symName: __ZN4absl12lts_2024011614flags_internal15AbslUnparseFlagENS0_11string_viewE, symObjAddr: 0x1204, symBinAddr: 0x381A4, symSize: 0x20 }
  - { offsetInCU: 0x3C2B, offset: 0x1C6391, size: 0x8, addend: 0x0, symName: __ZN4absl12lts_2024011614flags_internal15AbslUnparseFlagENS0_11string_viewE, symObjAddr: 0x1204, symBinAddr: 0x381A4, symSize: 0x20 }
  - { offsetInCU: 0x3CC5, offset: 0x1C642B, size: 0x8, addend: 0x0, symName: __ZN4absl12lts_2024011614flags_internal15AbslUnparseFlagERKNSt3__16vectorINS2_12basic_stringIcNS2_11char_traitsIcEENS2_9allocatorIcEEEENS7_IS9_EEEE, symObjAddr: 0x1224, symBinAddr: 0x381C4, symSize: 0x18 }
  - { offsetInCU: 0x3CF5, offset: 0x1C645B, size: 0x8, addend: 0x0, symName: __ZN4absl12lts_2024011614flags_internal15AbslUnparseFlagERKNSt3__16vectorINS2_12basic_stringIcNS2_11char_traitsIcEENS2_9allocatorIcEEEENS7_IS9_EEEE, symObjAddr: 0x1224, symBinAddr: 0x381C4, symSize: 0x18 }
  - { offsetInCU: 0x3D12, offset: 0x1C6478, size: 0x8, addend: 0x0, symName: __ZN4absl12lts_2024011614flags_internal15AbslUnparseFlagERKNSt3__16vectorINS2_12basic_stringIcNS2_11char_traitsIcEENS2_9allocatorIcEEEENS7_IS9_EEEE, symObjAddr: 0x1224, symBinAddr: 0x381C4, symSize: 0x18 }
  - { offsetInCU: 0x47BB, offset: 0x1C6F21, size: 0x8, addend: 0x0, symName: __ZN4absl12lts_2024011613AbslParseFlagENS0_11string_viewEPNS0_11LogSeverityEPNSt3__112basic_stringIcNS4_11char_traitsIcEENS4_9allocatorIcEEEE, symObjAddr: 0x123C, symBinAddr: 0x381DC, symSize: 0x1F8 }
  - { offsetInCU: 0x4B0E, offset: 0x1C7274, size: 0x8, addend: 0x0, symName: __ZN4absl12lts_2024011615AbslUnparseFlagENS0_11LogSeverityE, symObjAddr: 0x1434, symBinAddr: 0x383D4, symSize: 0x48 }
  - { offsetInCU: 0x4B40, offset: 0x1C72A6, size: 0x8, addend: 0x0, symName: __ZN4absl12lts_2024011615AbslUnparseFlagENS0_11LogSeverityE, symObjAddr: 0x1434, symBinAddr: 0x383D4, symSize: 0x48 }
  - { offsetInCU: 0xC1B6, offset: 0x1CE91C, size: 0x8, addend: 0x0, symName: __ZNSt3__119__allocate_at_leastB7v160006INS_9allocatorIN4absl12lts_2024011611string_viewEEEEENS_19__allocation_resultINS_16allocator_traitsIT_E7pointerEEERS8_m, symObjAddr: 0x22BC, symBinAddr: 0x38A2C, symSize: 0x34 }
  - { offsetInCU: 0xC254, offset: 0x1CE9BA, size: 0x8, addend: 0x0, symName: __ZNSt3__16vectorINS_12basic_stringIcNS_11char_traitsIcEENS_9allocatorIcEEEENS4_IS6_EEEC2INS_11__wrap_iterIPKN4absl12lts_2024011611string_viewEEELi0EEET_SH_, symObjAddr: 0x22F0, symBinAddr: 0x38A60, symSize: 0xB4 }
  - { offsetInCU: 0xC268, offset: 0x1CE9CE, size: 0x8, addend: 0x0, symName: __ZNSt3__130__uninitialized_allocator_copyB7v160006INS_9allocatorIN4absl12lts_2024011611string_viewEEEPZNKS3_16strings_internal8SplitterINS3_6ByCharENS3_10AllowEmptyES4_E18ConvertToContainerINS_6vectorIS4_S5_EES4_Lb0EEclERKSA_E8raw_viewSI_PS4_EET2_RT_T0_T1_SK_, symObjAddr: 0x2230, symBinAddr: 0x389A0, symSize: 0x34 }
  - { offsetInCU: 0xC391, offset: 0x1CEAF7, size: 0x8, addend: 0x0, symName: __ZNKSt3__111__copy_loopINS_17_ClassicAlgPolicyEEclB7v160006IPZNK4absl12lts_2024011616strings_internal8SplitterINS5_6ByCharENS5_10AllowEmptyENS5_11string_viewEE18ConvertToContainerINS_6vectorISA_NS_9allocatorISA_EEEESA_Lb0EEclERKSB_E8raw_viewSL_PSA_EENS_4pairIT_T1_EESO_T0_SP_, symObjAddr: 0x2264, symBinAddr: 0x389D4, symSize: 0x44 }
  - { offsetInCU: 0xC4AC, offset: 0x1CEC12, size: 0x8, addend: 0x0, symName: __ZNSt3__130__uninitialized_allocator_copyB7v160006INS_9allocatorINS_12basic_stringIcNS_11char_traitsIcEENS1_IcEEEEEENS_11__wrap_iterIPKN4absl12lts_2024011611string_viewEEESE_PS6_EET2_RT_T0_T1_SG_, symObjAddr: 0x244C, symBinAddr: 0x38BBC, symSize: 0xB4 }
  - { offsetInCU: 0xC755, offset: 0x1CEEBB, size: 0x8, addend: 0x0, symName: __ZNSt3__119__allocate_at_leastB7v160006INS_9allocatorINS_12basic_stringIcNS_11char_traitsIcEENS1_IcEEEEEEEENS_19__allocation_resultINS_16allocator_traitsIT_E7pointerEEERSA_m, symObjAddr: 0x2408, symBinAddr: 0x38B78, symSize: 0x44 }
  - { offsetInCU: 0xC7F3, offset: 0x1CEF59, size: 0x8, addend: 0x0, symName: __ZNSt3__130__uninitialized_allocator_copyB7v160006INS_9allocatorINS_12basic_stringIcNS_11char_traitsIcEENS1_IcEEEEEENS_11__wrap_iterIPKN4absl12lts_2024011611string_viewEEESE_PS6_EET2_RT_T0_T1_SG_, symObjAddr: 0x244C, symBinAddr: 0x38BBC, symSize: 0xB4 }
  - { offsetInCU: 0xCFEB, offset: 0x1CF751, size: 0x8, addend: 0x0, symName: __ZNK4absl12lts_2024011616strings_internal8SplitterINS0_6ByCharENS0_10AllowEmptyENS0_11string_viewEE18ConvertToContainerINSt3__16vectorIS5_NS8_9allocatorIS5_EEEES5_Lb0EEclERKS6_, symObjAddr: 0x1D68, symBinAddr: 0x384D8, symSize: 0xC4 }
  - { offsetInCU: 0xF413, offset: 0x1D1B79, size: 0x8, addend: 0x0, symName: __ZN4absl12lts_2024011614flags_internalL11NumericBaseENS0_11string_viewE.cold.2, symObjAddr: 0x2A68, symBinAddr: 0x6276C, symSize: 0x28 }
  - { offsetInCU: 0xF456, offset: 0x1D1BBC, size: 0x8, addend: 0x0, symName: __ZN4absl12lts_2024011614flags_internalL11NumericBaseENS0_11string_viewE.cold.1, symObjAddr: 0x2A40, symBinAddr: 0x62744, symSize: 0x28 }
  - { offsetInCU: 0xF600, offset: 0x1D1D66, size: 0x8, addend: 0x0, symName: __ZNK4absl12lts_2024011616strings_internal8SplitterINS0_6ByCharENS0_10AllowEmptyENS0_11string_viewEE18ConvertToContainerINSt3__16vectorINS8_12basic_stringIcNS8_11char_traitsIcEENS8_9allocatorIcEEEENSD_ISF_EEEESF_Lb0EEclERKS6_, symObjAddr: 0x1D00, symBinAddr: 0x38470, symSize: 0x68 }
  - { offsetInCU: 0xF97A, offset: 0x1D20E0, size: 0x8, addend: 0x0, symName: __ZNSt3__16vectorINS_12basic_stringIcNS_11char_traitsIcEENS_9allocatorIcEEEENS4_IS6_EEE13__vdeallocateEv, symObjAddr: 0x262C, symBinAddr: 0x38D9C, symSize: 0x38 }
  - { offsetInCU: 0xFA8E, offset: 0x1D21F4, size: 0x8, addend: 0x0, symName: __ZNSt3__16vectorINS_12basic_stringIcNS_11char_traitsIcEENS_9allocatorIcEEEENS4_IS6_EEED2B7v160006Ev, symObjAddr: 0x25F4, symBinAddr: 0x38D64, symSize: 0x38 }
  - { offsetInCU: 0xFB19, offset: 0x1D227F, size: 0x8, addend: 0x0, symName: __ZNSt3__16vectorINS_12basic_stringIcNS_11char_traitsIcEENS_9allocatorIcEEEENS4_IS6_EEE7__clearB7v160006Ev, symObjAddr: 0x1CAC, symBinAddr: 0x3841C, symSize: 0x54 }
